LX51 LINKER/LOCATER V3.51                                                               01/11/2013  15:44:20  PAGE 1


LX51 LINKER/LOCATER V3.51, INVOKED BY:
C:\KEIL51\C51\BIN\LX51.EXE .\Debug\Output\STARTUP.obj, .\Debug\Output\Main.obj, .\Debug\Output\ISO7816_Main.obj, .\Debug
>> \Output\ISO7816_API.obj, .\Debug\Output\ISO7816_Interrupt.obj, .\Debug\Output\NORFlash.obj, .\Debug\Output\file.obj, 
>> .\Debug\Output\fs.obj, .\Debug\Output\security.obj, .\Debug\Output\midgard.obj, .\Debug\Output\A3A8.obj, .\Debug\Outp
>> ut\DES.obj, .\Debug\Output\barrenkalaheapcalc.obj, .\Debug\Output\hexstring.obj, .\Debug\Output\mem.obj, .\Debug\Outp
>> ut\ioman.obj, .\Debug\Output\yggdrasil.obj TO .\Debug\Output\THC20F17BD_V10_DEMO_RC_01 CASE CLASSES (DATA (D:0X0-D:0X
>> 7F), IDATA (I:0X0-I:0XFF), XDATA (X:0X0000-X:0X07FF), CODE (C:0X0000-C:0XFFFF), CONST (C:0X0000-C:0XFFFF))


CPU MODE:     8051 MODE
MEMORY MODEL: LARGE


INPUT MODULES INCLUDED:
  .\Debug\Output\STARTUP.obj (?C_STARTUP)
         COMMENT TYPE 1: A51 / ASM51 Assembler
  .\Debug\Output\Main.obj (MAIN)
         COMMENT TYPE 1: A51 / ASM51 Assembler
  .\Debug\Output\ISO7816_Main.obj (ISO7816_MAIN)
         COMMENT TYPE 0: C51 V7.01
  .\Debug\Output\ISO7816_API.obj (ISO7816_API)
         COMMENT TYPE 0: C51 V7.01
  .\Debug\Output\ISO7816_Interrupt.obj (ISO7816_INTERRUPT)
         COMMENT TYPE 0: C51 V7.01
  .\Debug\Output\NORFlash.obj (NORFLASH)
         COMMENT TYPE 0: C51 V7.01
  .\Debug\Output\file.obj (FILE)
         COMMENT TYPE 0: C51 V7.01
  .\Debug\Output\fs.obj (FS)
         COMMENT TYPE 0: C51 V7.01
  .\Debug\Output\security.obj (SECURITY)
         COMMENT TYPE 0: C51 V7.01
  .\Debug\Output\midgard.obj (MIDGARD)
         COMMENT TYPE 0: C51 V7.01
  .\Debug\Output\A3A8.obj (A3A8)
         COMMENT TYPE 0: C51 V7.01
  .\Debug\Output\DES.obj (DES)
         COMMENT TYPE 0: C51 V7.01
  .\Debug\Output\barrenkalaheapcalc.obj (BARRENKALAHEAPCALC)
         COMMENT TYPE 0: C51 V7.01
  .\Debug\Output\hexstring.obj (HEXSTRING)
         COMMENT TYPE 0: C51 V7.01
  .\Debug\Output\mem.obj (MEM)
         COMMENT TYPE 0: C51 V7.01
  .\Debug\Output\ioman.obj (IOMAN)
         COMMENT TYPE 0: C51 V7.01
  .\Debug\Output\yggdrasil.obj (YGGDRASIL)
         COMMENT TYPE 0: C51 V7.01
  C:\KEIL51\C51\LIB\C51L.LIB (?C_INIT)
         COMMENT TYPE 1: A51 / ASM51 Assembler
  C:\KEIL51\C51\LIB\C51L.LIB (?C?COPY)
         COMMENT TYPE 1: A51 / ASM51 Assembler
  C:\KEIL51\C51\LIB\C51L.LIB (?C?CLDPTR)
         COMMENT TYPE 1: A51 / ASM51 Assembler
  C:\KEIL51\C51\LIB\C51L.LIB (?C?CLDOPTR)
         COMMENT TYPE 1: A51 / ASM51 Assembler
  C:\KEIL51\C51\LIB\C51L.LIB (?C?CILDOPTR)
         COMMENT TYPE 1: A51 / ASM51 Assembler
  C:\KEIL51\C51\LIB\C51L.LIB (?C?CSTPTR)
         COMMENT TYPE 1: A51 / ASM51 Assembler
  C:\KEIL51\C51\LIB\C51L.LIB (?C?CSTOPTR)
         COMMENT TYPE 1: A51 / ASM51 Assembler
  C:\KEIL51\C51\LIB\C51L.LIB (?C?IMUL)
         COMMENT TYPE 1: A51 / ASM51 Assembler
  C:\KEIL51\C51\LIB\C51L.LIB (?C?UIDIV)
         COMMENT TYPE 1: A51 / ASM51 Assembler
LX51 LINKER/LOCATER V3.51                                                             01/11/2013  15:44:20  PAGE 2


  C:\KEIL51\C51\LIB\C51L.LIB (?C?SIDIV)
         COMMENT TYPE 1: A51 / ASM51 Assembler
  C:\KEIL51\C51\LIB\C51L.LIB (?C?IILDX)
         COMMENT TYPE 1: A51 / ASM51 Assembler
  C:\KEIL51\C51\LIB\C51L.LIB (?C?ILDIX)
         COMMENT TYPE 1: A51 / ASM51 Assembler
  C:\KEIL51\C51\LIB\C51L.LIB (?C?ILDPTR)
         COMMENT TYPE 1: A51 / ASM51 Assembler
  C:\KEIL51\C51\LIB\C51L.LIB (?C?ILDOPTR)
         COMMENT TYPE 1: A51 / ASM51 Assembler
  C:\KEIL51\C51\LIB\C51L.LIB (?C?ISTPTR)
         COMMENT TYPE 1: A51 / ASM51 Assembler
  C:\KEIL51\C51\LIB\C51L.LIB (?C?ISTOPTR)
         COMMENT TYPE 1: A51 / ASM51 Assembler
  C:\KEIL51\C51\LIB\C51L.LIB (?C?SLCMP)
         COMMENT TYPE 1: A51 / ASM51 Assembler
  C:\KEIL51\C51\LIB\C51L.LIB (?C?ULCMP)
         COMMENT TYPE 1: A51 / ASM51 Assembler
  C:\KEIL51\C51\LIB\C51L.LIB (?C?LSTOPTR)
         COMMENT TYPE 1: A51 / ASM51 Assembler
  C:\KEIL51\C51\LIB\C51L.LIB (?C?LLDXDATA)
         COMMENT TYPE 1: A51 / ASM51 Assembler
  C:\KEIL51\C51\LIB\C51L.LIB (?C?LSTXDATA)
         COMMENT TYPE 1: A51 / ASM51 Assembler
  C:\KEIL51\C51\LIB\C51L.LIB (?C?PLDXDATA)
         COMMENT TYPE 1: A51 / ASM51 Assembler
  C:\KEIL51\C51\LIB\C51L.LIB (?C?PSTXDATA)
         COMMENT TYPE 1: A51 / ASM51 Assembler
  C:\KEIL51\C51\LIB\C51L.LIB (?C?PLDPTR)
         COMMENT TYPE 1: A51 / ASM51 Assembler
  C:\KEIL51\C51\LIB\C51L.LIB (?C?PSTPTR)
         COMMENT TYPE 1: A51 / ASM51 Assembler
  C:\KEIL51\C51\LIB\C51L.LIB (?C?PLDOPTR)
         COMMENT TYPE 1: A51 / ASM51 Assembler
  C:\KEIL51\C51\LIB\C51L.LIB (?C?PSTOPTR)
         COMMENT TYPE 1: A51 / ASM51 Assembler
  C:\KEIL51\C51\LIB\C51L.LIB (?C?CCASE)
         COMMENT TYPE 1: A51 / ASM51 Assembler
  C:\KEIL51\C51\LIB\C51L.LIB (?C?ICASE)
         COMMENT TYPE 1: A51 / ASM51 Assembler
  C:\KEIL51\C51\LIB\C51L.LIB (PUTCHAR)
         COMMENT TYPE 1: A51 / ASM51 Assembler
  C:\KEIL51\C51\LIB\C51L.LIB (PRINTF)
         COMMENT TYPE 1: A51 / ASM51 Assembler
  C:\KEIL51\C51\LIB\C51L.LIB (STRLEN)
         COMMENT TYPE 1: A51 / ASM51 Assembler
  C:\KEIL51\C51\LIB\C51L.LIB (?C?LSTIDATA)
         COMMENT TYPE 1: A51 / ASM51 Assembler
  C:\KEIL51\C51\LIB\C51L.LIB (?C?LSTPDATA)
         COMMENT TYPE 1: A51 / ASM51 Assembler
  C:\KEIL51\C51\LIB\C51L.LIB (?C?PLDIDATA)
         COMMENT TYPE 1: A51 / ASM51 Assembler
  C:\KEIL51\C51\LIB\C51L.LIB (?C?PSTIDATA)
         COMMENT TYPE 1: A51 / ASM51 Assembler
  C:\KEIL51\C51\LIB\C51L.LIB (?C?PLDIXDATA)
         COMMENT TYPE 1: A51 / ASM51 Assembler
  C:\KEIL51\C51\LIB\C51L.LIB (?C?PLDPDATA)
         COMMENT TYPE 1: A51 / ASM51 Assembler
  C:\KEIL51\C51\LIB\C51L.LIB (?C?PSTPDATA)
         COMMENT TYPE 1: A51 / ASM51 Assembler
  C:\KEIL51\C51\LIB\C51L.LIB (?C?PLDCODE)
         COMMENT TYPE 1: A51 / ASM51 Assembler


ACTIVE MEMORY CLASSES OF MODULE:  .\Debug\Output\THC20F17BD_V10_DEMO_RC_01 (?C_STARTUP)
LX51 LINKER/LOCATER V3.51                                                             01/11/2013  15:44:20  PAGE 3



BASE        START       END         USED      MEMORY CLASS
==========================================================
I:000000H   I:000000H   I:00007FH   00000DH   DATA
I:000000H   I:000000H   I:0000FFH   000040H   IDATA
X:000000H   X:000000H   X:0007FFH   0006FBH   XDATA
C:000000H   C:000000H   C:00FFFFH   00699CH   CODE
C:000000H   C:000000H   C:00FFFFH   0009F1H   CONST
I:000020H.0 I:000020H.0 I:00002FH.7 000001H.1 BIT


MEMORY MAP OF MODULE:  .\Debug\Output\THC20F17BD_V10_DEMO_RC_01 (?C_STARTUP)


START     STOP      LENGTH    ALIGN  RELOC    MEMORY CLASS   SEGMENT NAME
=========================================================================

* * * * * * * * * * *   D A T A   M E M O R Y   * * * * * * * * * * * * *
000000H   000007H   000008H   ---    AT..     DATA           "REG BANK 0"
000008H   00000CH   000005H   BYTE   UNIT     DATA           ?DT?PRINTF?PRINTF
00000DH.0 00001FH.7 000013H.0 ---    ---      **GAP**
000020H.0 000021H.0 000001H.1 BIT    UNIT     BIT            ?BI?PRINTF?PRINTF
000021H.1 000021H   000000H.7 ---    ---      **GAP**
000022H   000061H   000040H   BYTE   UNIT     IDATA          ?STACK

* * * * * * * * * * *   C O D E   M E M O R Y   * * * * * * * * * * * * *
000000H   000002H   000003H   ---    OFFS..   CODE           ?CO??C_STARTUP?0
000003H   00000AH   000008H   ---    OFFS..   CODE           ?CO??C_STARTUP?1
00000BH   000012H   000008H   ---    OFFS..   CODE           ?CO??C_STARTUP?2
000013H   00001AH   000008H   ---    OFFS..   CODE           ?CO??C_STARTUP?3
00001BH   000022H   000008H   ---    OFFS..   CODE           ?CO??C_STARTUP?4
000023H   00002AH   000008H   ---    OFFS..   CODE           ?CO??C_STARTUP?5
00002BH   000032H   000008H   ---    OFFS..   CODE           ?CO??C_STARTUP?6
000033H   00003AH   000008H   ---    OFFS..   CODE           ?CO??C_STARTUP?7
00003BH   0000CCH   000092H   ---    OFFS..   CODE           ?CO??C_STARTUP?8
0000CDH   001190H   0010C4H   BYTE   UNIT     CODE           ?PR?_YGGDRASIL_DECODE?YGGDRASIL
001191H   0016CAH   00053AH   BYTE   UNIT     CODE           ?C?LIB_CODE
0016CBH   001BF4H   00052AH   BYTE   UNIT     CODE           ?PR?_AUTH_A3A8?A3A8
001BF5H   001FCBH   0003D7H   BYTE   UNIT     CODE           ?PR?_DES_OPERATION?ISO7816_API
001FCCH   002330H   000365H   BYTE   UNIT     CODE           ?PR?PRINTF?PRINTF
002331H   002639H   000309H   BYTE   UNIT     CODE           ?PR?_FS_ALLOC?FS
00263AH   002896H   00025DH   BYTE   UNIT     CODE           ?PR?SEND_STATUS?YGGDRASIL
002897H   002AB5H   00021FH   BYTE   UNIT     CODE           ?PR?__WRITEREC?FILE
002AB6H   002CC2H   00020DH   BYTE   UNIT     CODE           ?PR?_M_ALLOC?MIDGARD
002CC3H   002EBCH   0001FAH   BYTE   UNIT     CODE           ?PR?_DECRYPT_DESHASH?DES
002EBDH   0030A6H   0001EAH   BYTE   UNIT     CODE           ?PR?_CHV_CHANGE?SECURITY
0030A7H   003290H   0001EAH   BYTE   UNIT     CODE           ?PR?_AUTH_DESHASH?DES
003291H   00346CH   0001DCH   BYTE   UNIT     CODE           ?PR?_UPDATEFLASH?ISO7816_API
00346DH   003646H   0001DAH   BYTE   UNIT     CODE           ?PR?_FS_FORMAT?FS
003647H   003815H   0001CFH   BYTE   UNIT     CODE           ?PR?_M_ALLOC_ND?MIDGARD
003816H   0039D9H   0001C4H   BYTE   UNIT     CODE           ?PR?_CHV_ENABLE?SECURITY
0039DAH   003B9DH   0001C4H   BYTE   UNIT     CODE           ?PR?_CHV_DISABLE?SECURITY
003B9EH   003D4EH   0001B1H   BYTE   UNIT     CODE           ?PR?_SBOX?DES
003D4FH   003EFEH   0001B0H   BYTE   UNIT     CODE           ?PR?_CHV_VERIFY?SECURITY
003EFFH   004089H   00018BH   BYTE   UNIT     CODE           ?PR?_CHV_UNBLOCK?SECURITY
00408AH   00420BH   000182H   BYTE   UNIT     CODE           ?PR?_FS_DEALLOC?FS
00420CH   004379H   00016EH   BYTE   UNIT     CODE           ?PR?_CHV_CREATE?SECURITY
00437AH   0044E0H   000167H   BYTE   UNIT     CODE           ?PR?_MEM_CMP?MAIN
0044E1H   004631H   000151H   BYTE   UNIT     CODE           ?PR?__CREATEFILECYCLIC?FILE
004632H   004781H   000150H   BYTE   UNIT     CODE           ?PR?__CREATEFILEREC?FILE
004782H   0048C8H   000147H   BYTE   UNIT     CODE           ?PR?__SELECT?FILE
0048C9H   004A08H   000140H   BYTE   UNIT     CODE           ?PR?__CREATEFILEBIN?FILE
004A09H   004B28H   000120H   BYTE   UNIT     CODE           ?PR?__READREC?FILE
004B29H   004C45H   00011DH   BYTE   UNIT     CODE           ?PR?ISO7816_MAIN?ISO7816_MAIN
004C46H   004D55H   000110H   BYTE   UNIT     CODE           ?PR?_PERMUTE?DES
LX51 LINKER/LOCATER V3.51                                                             01/11/2013  15:44:20  PAGE 4


004D56H   004E51H   0000FCH   BYTE   UNIT     CODE           ?PR?_FILE_REMOVE_ENTRY?FILE
004E52H   004F4CH   0000FBH   BYTE   UNIT     CODE           ?PR?__CREATEDIRECTORY?FILE
004F4DH   005047H   0000FBH   BYTE   UNIT     CODE           ?PR?_IOMAN_WRITE_BUFFER?IOMAN
005048H   00513BH   0000F4H   BYTE   UNIT     CODE           ?PR?_KEYSHIFT?DES
00513CH   005214H   0000D9H   BYTE   UNIT     CODE           ?PR?_FILE_ADD_ENTRY?FILE
005215H   0052ECH   0000D8H   BYTE   UNIT     CODE           ?PR?_FILE_CHECK_STATUS?FILE
0052EDH   0053C1H   0000D5H   BYTE   UNIT     CODE           ?PR?_IOMAN_READ_BUFFER?IOMAN
0053C2H   005495H   0000D4H   BYTE   UNIT     CODE           ?PR?M_GC?MIDGARD
005496H   005550H   0000BBH   BYTE   UNIT     CODE           ?PR?__REMOVE?FILE
005551H   005608H   0000B8H   BYTE   UNIT     CODE           ?PR?UART_ISR?ISO7816_INTERRUPT
005609H   0056BAH   0000B2H   BYTE   UNIT     CODE           ?PR?M_MEM_DUMP?MIDGARD
0056BBH   005769H   0000AFH   BYTE   UNIT     CODE           ?PR?__READBIN?FILE
00576AH   005818H   0000AFH   BYTE   UNIT     CODE           ?PR?__WRITEBIN?FILE
005819H   0058B7H   00009FH   BYTE   UNIT     CODE           ?PR?_MEM_CPY?MAIN
0058B8H   005956H   00009FH   BYTE   UNIT     CODE           ?PR?M_HEAP_SPACE?MIDGARD
005957H   0059E7H   000091H   BYTE   UNIT     CODE           ?PR?RCVAPDU?ISO7816_MAIN
0059E8H   005A72H   00008BH   BYTE   UNIT     CODE           ?PR?_FILE_FIND_ENTRY?FILE
005A73H   005AFDH   00008BH   BYTE   UNIT     CODE           ?PR?FS_INIT?FS
005AFEH   005B84H   000087H   BYTE   UNIT     CODE           ?PR?CHV_INIT?SECURITY
005B85H   005C04H   000080H   BYTE   UNIT     CODE           ?C_C51STARTUP
005C05H   005C7CH   000078H   BYTE   UNIT     CODE           ?PR?_WRITE_BYTES?NORFLASH
005C7DH   005CF4H   000078H   BYTE   UNIT     CODE           ?PR?_M_FREE_ND?MIDGARD
005CF5H   005D6CH   000078H   BYTE   UNIT     CODE           ?PR?_AUTH_DESKEY8TO7?DES
005D6DH   005DE0H   000074H   BYTE   UNIT     CODE           ?PR?_M_FREE?MIDGARD
005DE1H   005E52H   000072H   BYTE   UNIT     CODE           ?PR?_MEMCAT?MEM
005E53H   005EC1H   00006FH   BYTE   UNIT     CODE           ?PR?_READFLASH?ISO7816_API
005EC2H   005F2AH   000069H   BYTE   UNIT     CODE           ?C_INITSEG
005F2BH   005F90H   000066H   BYTE   UNIT     CODE           ?PR?_MEMCOPY?MEM
005F91H   005FF6H   000066H   BYTE   UNIT     CODE           ?PR?_MEMADD?MEM
005FF7H   006050H   00005AH   BYTE   UNIT     CODE           ?PR?_REHABILITATE?FILE
006051H   0060A9H   000059H   BYTE   UNIT     CODE           ?PR?_ERASE_PAGES?ISO7816_API
0060AAH   006102H   000059H   BYTE   UNIT     CODE           ?PR?_INVALIDATE?FILE
006103H   006158H   000056H   BYTE   UNIT     CODE           ?PR?_FROMHEX?HEXSTRING
006159H   0061ACH   000054H   BYTE   UNIT     CODE           ?PR?_SET_PPS?ISO7816_API
0061ADH   006200H   000054H   BYTE   UNIT     CODE           ?PR?_MEMCOMPARE?MEM
006201H   006251H   000051H   BYTE   UNIT     CODE           ?PR?RETURNTOBL?ISO7816_API
006252H   0062A0H   00004FH   BYTE   UNIT     CODE           ?PR?_XOR?DES
0062A1H   0062ECH   00004CH   BYTE   UNIT     CODE           ?PR?_CALCRC?ISO7816_API
0062EDH   006337H   00004BH   BYTE   UNIT     CODE           ?PR?_AUTH_3DES?DES
006338H   006382H   00004BH   BYTE   UNIT     CODE           ?PR?_DECRYPT_3DES?DES
006383H   0063CAH   000048H   BYTE   UNIT     CODE           ?PR?_FILE_GET_DFHEADER?FILE
0063CBH   006411H   000047H   BYTE   UNIT     CODE           ?PR?PPS?ISO7816_API
006412H   006455H   000044H   BYTE   UNIT     CODE           ?PR?_M_SHIFT?MIDGARD
006456H   006498H   000043H   BYTE   UNIT     CODE           ?PR?_FILE_GET_EFHEADER?FILE
006499H   0064D8H   000040H   BYTE   UNIT     CODE           ?PR?_FILE_GET_HEADER?FILE
0064D9H   006518H   000040H   BYTE   UNIT     CODE           ?CO?MIDGARD
006519H   006557H   00003FH   BYTE   UNIT     CODE           ?PR?_IOMAN_TRANSMIT?IOMAN
006558H   00658EH   000037H   BYTE   UNIT     CODE           ?PR?M_INIT_ALLOC?MIDGARD
00658FH   0065C4H   000036H   BYTE   UNIT     CODE           ?PR?_MEMPADDING?MEM
0065C5H   0065F9H   000035H   BYTE   UNIT     CODE           ?PR?_TX_N_BYTES?ISO7816_API
0065FAH   00662DH   000034H   BYTE   UNIT     CODE           ?PR?_ISO_AUTOTXNULL?ISO7816_API
00662EH   00665EH   000031H   BYTE   UNIT     CODE           ?PR?_ERASE_PAGE?NORFLASH
00665FH   00668EH   000030H   BYTE   UNIT     CODE           ?PR?_RANDOM_NUMBER_GENERATOR?ISO7816_API
00668FH   0066BBH   00002DH   BYTE   UNIT     CODE           ?PR?WDT_ISR?ISO7816_INTERRUPT
0066BCH   0066E6H   00002BH   BYTE   UNIT     CODE           ?PR?_RX_N_BYTES?ISO7816_API
0066E7H   00670DH   000027H   BYTE   UNIT     CODE           ?PR?PUTCHAR?PUTCHAR
00670EH   006733H   000026H   BYTE   UNIT     CODE           ?PR?IOMAN_SEND_ATR?IOMAN
006734H   006758H   000025H   BYTE   UNIT     CODE           ?PR?_MEMCLEAR?MEM
006759H   00677BH   000023H   BYTE   UNIT     CODE           ?PR?ISO7816_CASE?ISO7816_MAIN
00677CH   006797H   00001CH   BYTE   UNIT     CODE           ?PR?FILE_GET_CURRENT_HEADER?FILE
006798H   0067B0H   000019H   BYTE   UNIT     CODE           ?PR?M_USED_HEAP?MIDGARD
0067B1H   0067C7H   000017H   BYTE   UNIT     CODE           ?PR?_PPS_HANDLER?ISO7816_MAIN
0067C8H   0067DDH   000016H   BYTE   UNIT     CODE           ?PR?_IOINIT?ISO7816_API
0067DEH   0067F3H   000016H   BYTE   UNIT     CODE           ?PR?SLEEP_MODE?ISO7816_API
0067F4H   006809H   000016H   BYTE   UNIT     CODE           ?PR?_SETBASE?ISO7816_API
LX51 LINKER/LOCATER V3.51                                                             01/11/2013  15:44:20  PAGE 5


00680AH   00681EH   000015H   BYTE   UNIT     CODE           ?PR?_COMMAND_INTERPRETER?ISO7816_MAIN
00681FH   006833H   000015H   BYTE   UNIT     CODE           ?PR?INITIALIZE_OPERATING_SYSTEM?YGGDRASIL
006834H   006848H   000015H   BYTE   UNIT     CODE           ?PR?_STRLEN?STRLEN
006849H   00685BH   000013H   BYTE   UNIT     CODE           ?PR?_IOMAN_READ_POS?IOMAN
00685CH   00686CH   000011H   BYTE   UNIT     CODE           ?PR?_TXSTATUS?ISO7816_MAIN
00686DH   00687DH   000011H   BYTE   UNIT     CODE           ?PR?__READREC_NEXT?FILE
00687EH   00688EH   000011H   BYTE   UNIT     CODE           ?PR?__READREC_PREV?FILE
00688FH   00689FH   000011H   BYTE   UNIT     CODE           ?PR?__WRITEREC_NEXT?FILE
0068A0H   0068B0H   000011H   BYTE   UNIT     CODE           ?PR?__WRITEREC_PREV?FILE
0068B1H   0068BFH   00000FH   BYTE   UNIT     CODE           ?PR?HW_INIT?MAIN
0068C0H   0068CEH   00000FH   BYTE   UNIT     CODE           ?PR?__WRITE_NEW_REC?FILE
0068CFH   0068DCH   00000EH   BYTE   UNIT     CODE           ?PR?_TX_STATUS?ISO7816_API
0068DDH   0068EAH   00000EH   BYTE   UNIT     CODE           ?CO?FS
0068EBH   0068F8H   00000EH   BYTE   UNIT     CODE           ?PR?_CHV_GET_STATUS?SECURITY
0068F9H   006906H   00000EH   BYTE   UNIT     CODE           ?PR?_IOMAN_WRITE_POS?IOMAN
006907H   006913H   00000DH   BYTE   UNIT     CODE           ?PR?ISO7816_INIT?ISO7816_MAIN
006914H   006920H   00000DH   BYTE   UNIT     CODE           ?PR?SEND_ATR?ISO7816_MAIN
006921H   00692DH   00000DH   BYTE   UNIT     CODE           ?PR?PPS_ACK?ISO7816_API
00692EH   006939H   00000CH   BYTE   UNIT     CODE           ?PR?MAIN?MAIN
00693AH   006945H   00000CH   BYTE   UNIT     CODE           ?PR?_SEND_BYTE?ISO7816_API
006946H   006950H   00000BH   BYTE   UNIT     CODE           ?PR?RECEIVE_BYTE?ISO7816_API
006951H   00695BH   00000BH   BYTE   UNIT     CODE           ?PR?IOMAN_READ?IOMAN
00695CH   006964H   000009H   BYTE   UNIT     CODE           ?PR?_GSM_HANDLER?ISO7816_MAIN
006965H   00696DH   000009H   BYTE   UNIT     CODE           ?PR?IOMAN_INIT?IOMAN
00696EH   006976H   000009H   BYTE   UNIT     CODE           ?PR?_IOMAN_SEEK?IOMAN
006977H   00697DH   000007H   BYTE   UNIT     CODE           ?PR?_IOMAN_RECEIVE?IOMAN
00697EH   006983H   000006H   BYTE   UNIT     CODE           ?PR?_IOMAN_WRITE?IOMAN
006984H   006986H   000003H   BYTE   UNIT     CODE           ?PR?DES_ISR?ISO7816_INTERRUPT
006987H   006989H   000003H   BYTE   UNIT     CODE           ?PR?TMR0_ISR?ISO7816_INTERRUPT
00698AH   00698CH   000003H   BYTE   UNIT     CODE           ?PR?INT3_ISR?ISO7816_INTERRUPT
00698DH   00698FH   000003H   BYTE   UNIT     CODE           ?PR?FLASH_ISR?ISO7816_INTERRUPT
006990H   006992H   000003H   BYTE   UNIT     CODE           ?PR?INT5_ISR?ISO7816_INTERRUPT
006993H   006995H   000003H   BYTE   UNIT     CODE           ?PR?GETHEX?HEXSTRING
006996H   006998H   000003H   BYTE   UNIT     CODE           ?PR?INITIALIZE_HARDWARE?YGGDRASIL
006999H   006999H   000001H   BYTE   UNIT     CODE           ?PR?CMMD_HANDLE?ISO7816_MAIN
00699AH   00699AH   000001H   BYTE   UNIT     CODE           ?PR?_GETHEXVALUE?HEXSTRING
00699BH   00699BH   000001H   BYTE   UNIT     CODE           ?PR?IOMAN_CLOSE?IOMAN
00699CH   006D85H   0003EAH   BYTE   UNIT     CONST          ?CO?A3A8
006D86H   007105H   000380H   BYTE   UNIT     CONST          ?CO?DES
007106H   007305H   000200H   BYTE   UNIT     CONST          ?CO?YGGDRASIL
007306H   007365H   000060H   BYTE   UNIT     CONST          ?CO?ISO7816_API
007366H   00737CH   000017H   BYTE   UNIT     CONST          ?CO?ISO7816_MAIN
00737DH   00738CH   000010H   BYTE   UNIT     CONST          ?CO?IOMAN

* * * * * * * * * * *  X D A T A   M E M O R Y  * * * * * * * * * * * * *
000000H   00030AH   00030BH   BYTE   UNIT     XDATA          ?XD?ISO7816_MAIN
00030BH   000438H   00012EH   BYTE   UNIT     XDATA          ?XD?MIDGARD
000439H   0004D8H   0000A0H   BYTE   UNIT     XDATA          ?XD?A3A8
0004D9H   000521H   000049H   BYTE   UNIT     XDATA          _XDATA_GROUP_
000522H   000554H   000033H   BYTE   UNIT     XDATA          ?XD?YGGDRASIL
000555H   000584H   000030H   BYTE   UNIT     XDATA          ?XD?_AUTH_DESHASH?DES
000585H   0005B4H   000030H   BYTE   UNIT     XDATA          ?XD?_DECRYPT_DESHASH?DES
0005B5H   0005DCH   000028H   BYTE   UNIT     XDATA          ?XD?PRINTF?PRINTF
0005DDH   0005ECH   000010H   BYTE   UNIT     XDATA          ?XD?IOMAN_SEND_ATR?IOMAN
0005EDH   0005FAH   00000EH   BYTE   UNIT     XDATA          ?XD?SECURITY
0005FBH   000608H   00000EH   BYTE   UNIT     XDATA          ?XD?_PERMUTE?DES
000609H   000616H   00000EH   BYTE   UNIT     XDATA          ?XD?_SBOX?DES
000617H   000623H   00000DH   BYTE   UNIT     XDATA          ?XD?_AUTH_DESKEY8TO7?DES
000624H   00062FH   00000CH   BYTE   UNIT     XDATA          ?XD?_MEMADD?MEM
000630H   00063BH   00000CH   BYTE   UNIT     XDATA          ?XD?_MEMCAT?MEM
00063CH   000646H   00000BH   BYTE   UNIT     XDATA          ?XD?_M_ALLOC_ND?MIDGARD
000647H   000651H   00000BH   BYTE   UNIT     XDATA          ?XD?_XOR?DES
000652H   00065BH   00000AH   BYTE   UNIT     XDATA          ?XD?_IOMAN_WRITE_BUFFER?IOMAN
00065CH   000664H   000009H   BYTE   UNIT     XDATA          ?XD?_AUTH_3DES?DES
000665H   00066DH   000009H   BYTE   UNIT     XDATA          ?XD?_DECRYPT_3DES?DES
LX51 LINKER/LOCATER V3.51                                                             01/11/2013  15:44:20  PAGE 6


00066EH   000676H   000009H   BYTE   UNIT     XDATA          ?XD?_IOMAN_READ_BUFFER?IOMAN
000677H   00067EH   000008H   BYTE   UNIT     XDATA          ?XD?_MEM_CPY?MAIN
00067FH   000686H   000008H   BYTE   UNIT     XDATA          ?XD?_MEM_CMP?MAIN
000687H   00068EH   000008H   BYTE   UNIT     XDATA          ?XD?_CALCRC?ISO7816_API
00068FH   000696H   000008H   BYTE   UNIT     XDATA          ?XD?M_HEAP_SPACE?MIDGARD
000697H   00069EH   000008H   BYTE   UNIT     XDATA          ?XD?_KEYSHIFT?DES
00069FH   0006A5H   000007H   BYTE   UNIT     XDATA          ?XD?_DES_OPERATION?ISO7816_API
0006A6H   0006ACH   000007H   BYTE   UNIT     XDATA          ?XD?_M_SHIFT?MIDGARD
0006ADH   0006B3H   000007H   BYTE   UNIT     XDATA          ?XD?_IOMAN_TRANSMIT?IOMAN
0006B4H   0006B9H   000006H   BYTE   UNIT     XDATA          ?XD?_ERASE_PAGES?ISO7816_API
0006BAH   0006BFH   000006H   BYTE   UNIT     XDATA          ?XD?__WRITE_NEW_REC?FILE
0006C0H   0006C5H   000006H   BYTE   UNIT     XDATA          ?XD?FILE
0006C6H   0006CBH   000006H   BYTE   UNIT     XDATA          ?XD?FS
0006CCH   0006D1H   000006H   BYTE   UNIT     XDATA          ?XD?_M_FREE_ND?MIDGARD
0006D2H   0006D7H   000006H   BYTE   UNIT     XDATA          ?XD?M_GC?MIDGARD
0006D8H   0006DCH   000005H   BYTE   UNIT     XDATA          ?XD?M_MEM_DUMP?MIDGARD
0006DDH   0006E1H   000005H   BYTE   UNIT     XDATA          ?XD?_MEMPADDING?MEM
0006E2H   0006E6H   000005H   BYTE   UNIT     XDATA          ?XD?IOMAN
0006E7H   0006EAH   000004H   BYTE   UNIT     XDATA          ?XD?CHV_INIT?SECURITY
0006EBH   0006EDH   000003H   BYTE   UNIT     XDATA          ?XD?_IOMAN_READ_POS?IOMAN
0006EEH   0006F0H   000003H   BYTE   UNIT     XDATA          ?XD?_IOMAN_WRITE_POS?IOMAN
0006F1H   0006F3H   000003H   BYTE   UNIT     XDATA          ?XD?_IOMAN_RECEIVE?IOMAN
0006F4H   0006F5H   000002H   BYTE   UNIT     XDATA          ?XD?ISO7816_INTERRUPT
0006F6H   0006F7H   000002H   BYTE   UNIT     XDATA          ?XD?_IOMAN_SEEK?IOMAN
0006F8H   0006F8H   000001H   BYTE   UNIT     XDATA          ?XD?MAIN
0006F9H   0006F9H   000001H   BYTE   UNIT     XDATA          ?XD?IOMAN_READ?IOMAN
0006FAH   0006FAH   000001H   BYTE   UNIT     XDATA          ?XD?_IOMAN_WRITE?IOMAN



OVERLAY MAP OF MODULE:   .\Debug\Output\THC20F17BD_V10_DEMO_RC_01 (?C_STARTUP)


FUNCTION/MODULE                            XDATA_GROUP
--> CALLED FUNCTION/MODULE                 START  STOP
======================================================
?C_C51STARTUP                              ----- -----
  +--> ?PR?MAIN?MAIN
  +--> ?C_INITSEG

MAIN/MAIN                                  ----- -----
  +--> ?PR?HW_INIT?MAIN
  +--> ?PR?ISO7816_INIT?ISO7816_MAIN
  +--> ?PR?ISO7816_MAIN?ISO7816_MAIN

HW_INIT/MAIN                               ----- -----

ISO7816_INIT/ISO7816_MAIN                  ----- -----
  +--> ?PR?INITIALIZE_HARDWARE?YGGDRASIL

INITIALIZE_HARDWARE/YGGDRASIL              ----- -----
  +--> ?PR?IOMAN_INIT?IOMAN

IOMAN_INIT/IOMAN                           ----- -----

ISO7816_MAIN/ISO7816_MAIN                  04D9H 04DDH
  +--> ?PR?_IOINIT?ISO7816_API
  +--> ?PR?SEND_ATR?ISO7816_MAIN
  +--> ?PR?INITIALIZE_OPERATING_SYSTEM?YGGDR...
  +--> ?PR?RECEIVE_BYTE?ISO7816_API
  +--> ?PR?_SEND_BYTE?ISO7816_API
  +--> ?PR?_PPS_HANDLER?ISO7816_MAIN
  +--> ?PR?_ISO_AUTOTXNULL?ISO7816_API
  +--> ?PR?_YGGDRASIL_DECODE?YGGDRASIL
  +--> ?PR?_IOMAN_TRANSMIT?IOMAN
LX51 LINKER/LOCATER V3.51                                                             01/11/2013  15:44:20  PAGE 7



_IOINIT/ISO7816_API                        ----- -----

SEND_ATR/ISO7816_MAIN                      ----- -----
  +--> ?CO?ISO7816_MAIN
  +--> ?PR?_TX_N_BYTES?ISO7816_API

?CO?ISO7816_MAIN                           ----- -----

_TX_N_BYTES/ISO7816_API                    04DEH 04E2H
  +--> ?PR?_SEND_BYTE?ISO7816_API

_SEND_BYTE/ISO7816_API                     ----- -----

INITIALIZE_OPERATING_SYSTEM/YGGDRASIL      04DEH 04DFH
  +--> ?PR?M_INIT_ALLOC?MIDGARD
  +--> ?PR?FS_INIT?FS
  +--> ?PR?_FS_FORMAT?FS

M_INIT_ALLOC/MIDGARD                       ----- -----

FS_INIT/FS                                 04E8H 04EAH
  +--> ?PR?_M_ALLOC?MIDGARD
  +--> ?PR?_IOMAN_READ_BUFFER?IOMAN
  +--> ?PR?_M_FREE?MIDGARD

_M_ALLOC/MIDGARD                           050FH 0510H

_IOMAN_READ_BUFFER/IOMAN                   ----- -----
  +--> ?PR?_READFLASH?ISO7816_API
  +--> ?PR?_MEMCOPY?MEM

_READFLASH/ISO7816_API                     050FH 0514H
  +--> ?PR?_MEM_CPY?MAIN

_MEM_CPY/MAIN                              ----- -----

_MEMCOPY/MEM                               050FH 051AH

_M_FREE/MIDGARD                            ----- -----

_FS_FORMAT/FS                              04E8H 04F3H
  +--> ?PR?_M_ALLOC?MIDGARD
  +--> ?PR?_IOMAN_WRITE_BUFFER?IOMAN
  +--> ?PR?_M_FREE?MIDGARD
  +--> ?CO?FS
  +--> ?PR?_CHV_CREATE?SECURITY

_IOMAN_WRITE_BUFFER/IOMAN                  ----- -----
  +--> ?PR?_UPDATEFLASH?ISO7816_API
  +--> ?CO?ISO7816_MAIN
  +--> ?PR?_MEM_CMP?MAIN

_UPDATEFLASH/ISO7816_API                   050FH 0519H
  +--> ?PR?_MEM_CPY?MAIN
  +--> ?PR?_ERASE_PAGE?NORFLASH
  +--> ?PR?_WRITE_BYTES?NORFLASH
  +--> ?PR?_MEM_CMP?MAIN

_ERASE_PAGE/NORFLASH                       ----- -----

_WRITE_BYTES/NORFLASH                      051AH 0521H

_MEM_CMP/MAIN                              ----- -----

LX51 LINKER/LOCATER V3.51                                                             01/11/2013  15:44:20  PAGE 8


?CO?FS                                     ----- -----

_CHV_CREATE/SECURITY                       04F4H 04FFH
  +--> ?PR?_M_ALLOC?MIDGARD
  +--> ?PR?_MEMCOPY?MEM
  +--> ?PR?_STRLEN?STRLEN
  +--> ?PR?_IOMAN_WRITE_BUFFER?IOMAN
  +--> ?PR?_M_FREE?MIDGARD

_STRLEN/STRLEN                             ----- -----

RECEIVE_BYTE/ISO7816_API                   ----- -----

_PPS_HANDLER/ISO7816_MAIN                  ----- -----
  +--> ?PR?_SET_PPS?ISO7816_API

_SET_PPS/ISO7816_API                       ----- -----
  +--> ?PR?PPS_ACK?ISO7816_API
  +--> ?PR?_IOINIT?ISO7816_API

PPS_ACK/ISO7816_API                        ----- -----
  +--> ?PR?_TX_N_BYTES?ISO7816_API

_ISO_AUTOTXNULL/ISO7816_API                ----- -----

_YGGDRASIL_DECODE/YGGDRASIL                04DEH 04E7H
  +--> ?PR?_MEMCOPY?MEM
  +--> ?PR?_FROMHEX?HEXSTRING
  +--> ?PR?__SELECT?FILE
  +--> ?PR?SEND_STATUS?YGGDRASIL
  +--> ?PR?_MEMCLEAR?MEM
  +--> ?PR?__READBIN?FILE
  +--> ?PR?__READREC_NEXT?FILE
  +--> ?PR?__READREC_PREV?FILE
  +--> ?PR?__READREC?FILE
  +--> ?PR?__WRITEBIN?FILE
  +--> ?PR?__WRITEREC_NEXT?FILE
  +--> ?PR?__WRITEREC_PREV?FILE
  +--> ?PR?__WRITEREC?FILE
  +--> ?PR?_CHV_VERIFY?SECURITY
  +--> ?PR?_CHV_CHANGE?SECURITY
  +--> ?PR?_CHV_GET_STATUS?SECURITY
  +--> ?PR?_CHV_DISABLE?SECURITY
  +--> ?PR?_CHV_ENABLE?SECURITY
  +--> ?PR?_CHV_UNBLOCK?SECURITY
  +--> ?PR?_REHABILITATE?FILE
  +--> ?PR?_INVALIDATE?FILE
  +--> ?PR?_AUTH_A3A8?A3A8
  +--> ?PR?_FS_FORMAT?FS
  +--> ?PR?FS_INIT?FS
  +--> ?PR?__REMOVE?FILE
  +--> ?PR?__CREATEFILEBIN?FILE
  +--> ?PR?__CREATEFILEREC?FILE
  +--> ?PR?__CREATEFILECYCLIC?FILE
  +--> ?PR?__CREATEDIRECTORY?FILE
  +--> ?PR?_IOMAN_SEEK?IOMAN
  +--> ?PR?_IOMAN_WRITE?IOMAN

_FROMHEX/HEXSTRING                         04E8H 04EEH

__SELECT/FILE                              04E8H 04EEH
  +--> ?PR?_FILE_GET_HEADER?FILE
  +--> ?PR?_M_FREE?MIDGARD

_FILE_GET_HEADER/FILE                      0508H 050CH
LX51 LINKER/LOCATER V3.51                                                             01/11/2013  15:44:20  PAGE 9


  +--> ?PR?_M_ALLOC?MIDGARD
  +--> ?PR?_IOMAN_READ_BUFFER?IOMAN

SEND_STATUS/YGGDRASIL                      04E8H 04F6H
  +--> ?PR?FILE_GET_CURRENT_HEADER?FILE
  +--> ?PR?_M_FREE?MIDGARD

FILE_GET_CURRENT_HEADER/FILE               ----- -----
  +--> ?PR?_FILE_GET_DFHEADER?FILE
  +--> ?PR?_FILE_GET_EFHEADER?FILE

_FILE_GET_DFHEADER/FILE                    04FEH 0502H
  +--> ?PR?_M_ALLOC?MIDGARD
  +--> ?PR?_IOMAN_READ_BUFFER?IOMAN

_FILE_GET_EFHEADER/FILE                    04F7H 04FBH
  +--> ?PR?_M_ALLOC?MIDGARD
  +--> ?PR?_IOMAN_READ_BUFFER?IOMAN

_MEMCLEAR/MEM                              04E8H 04EAH

__READBIN/FILE                             04E8H 04F3H
  +--> ?PR?_FILE_GET_EFHEADER?FILE
  +--> ?PR?_FILE_CHECK_STATUS?FILE
  +--> ?PR?_M_FREE?MIDGARD
  +--> ?PR?_IOMAN_READ_BUFFER?IOMAN

_FILE_CHECK_STATUS/FILE                    04F5H 04F5H

__READREC_NEXT/FILE                        ----- -----
  +--> ?PR?__READREC?FILE

__READREC/FILE                             04E8H 04F4H
  +--> ?PR?_FILE_GET_EFHEADER?FILE
  +--> ?PR?_FILE_CHECK_STATUS?FILE
  +--> ?PR?_M_FREE?MIDGARD
  +--> ?PR?_IOMAN_READ_BUFFER?IOMAN

__READREC_PREV/FILE                        ----- -----
  +--> ?PR?__READREC?FILE

__WRITEBIN/FILE                            04E8H 04F3H
  +--> ?PR?_FILE_GET_EFHEADER?FILE
  +--> ?PR?_FILE_CHECK_STATUS?FILE
  +--> ?PR?_M_FREE?MIDGARD
  +--> ?PR?_IOMAN_WRITE_BUFFER?IOMAN

__WRITEREC_NEXT/FILE                       ----- -----
  +--> ?PR?__WRITEREC?FILE

__WRITEREC/FILE                            04E8H 04F4H
  +--> ?PR?_FILE_GET_EFHEADER?FILE
  +--> ?PR?_FILE_CHECK_STATUS?FILE
  +--> ?PR?_M_FREE?MIDGARD
  +--> ?PR?_IOMAN_WRITE_BUFFER?IOMAN

__WRITEREC_PREV/FILE                       ----- -----
  +--> ?PR?__WRITEREC?FILE

_CHV_VERIFY/SECURITY                       04E8H 04EEH
  +--> ?PR?_M_ALLOC?MIDGARD
  +--> ?PR?_IOMAN_READ_BUFFER?IOMAN
  +--> ?PR?_M_FREE?MIDGARD
  +--> ?PR?_MEMCOMPARE?MEM
  +--> ?PR?_IOMAN_WRITE_BUFFER?IOMAN
LX51 LINKER/LOCATER V3.51                                                             01/11/2013  15:44:20  PAGE 10



_MEMCOMPARE/MEM                            04F2H 04FBH

_CHV_CHANGE/SECURITY                       04E8H 04F1H
  +--> ?PR?_M_ALLOC?MIDGARD
  +--> ?PR?_IOMAN_READ_BUFFER?IOMAN
  +--> ?PR?_M_FREE?MIDGARD
  +--> ?PR?_MEMCOMPARE?MEM
  +--> ?PR?_MEMCOPY?MEM
  +--> ?PR?_IOMAN_WRITE_BUFFER?IOMAN

_CHV_GET_STATUS/SECURITY                   ----- -----

_CHV_DISABLE/SECURITY                      04E8H 04EEH
  +--> ?PR?_M_ALLOC?MIDGARD
  +--> ?PR?_IOMAN_READ_BUFFER?IOMAN
  +--> ?PR?_M_FREE?MIDGARD
  +--> ?PR?_MEMCOMPARE?MEM
  +--> ?PR?_IOMAN_WRITE_BUFFER?IOMAN

_CHV_ENABLE/SECURITY                       04E8H 04EEH
  +--> ?PR?_M_ALLOC?MIDGARD
  +--> ?PR?_IOMAN_READ_BUFFER?IOMAN
  +--> ?PR?_M_FREE?MIDGARD
  +--> ?PR?_MEMCOMPARE?MEM
  +--> ?PR?_IOMAN_WRITE_BUFFER?IOMAN

_CHV_UNBLOCK/SECURITY                      04E8H 04F1H
  +--> ?PR?_M_ALLOC?MIDGARD
  +--> ?PR?_IOMAN_READ_BUFFER?IOMAN
  +--> ?PR?_M_FREE?MIDGARD
  +--> ?PR?_MEMCOMPARE?MEM
  +--> ?PR?_MEMCOPY?MEM
  +--> ?PR?_IOMAN_WRITE_BUFFER?IOMAN

_REHABILITATE/FILE                         04E8H 04ECH
  +--> ?PR?_FILE_GET_EFHEADER?FILE
  +--> ?PR?_FILE_CHECK_STATUS?FILE
  +--> ?PR?_IOMAN_WRITE_BUFFER?IOMAN
  +--> ?PR?_M_FREE?MIDGARD

_INVALIDATE/FILE                           04E8H 04ECH
  +--> ?PR?_FILE_GET_EFHEADER?FILE
  +--> ?PR?_FILE_CHECK_STATUS?FILE
  +--> ?PR?_IOMAN_WRITE_BUFFER?IOMAN
  +--> ?PR?_M_FREE?MIDGARD

_AUTH_A3A8/A3A8                            04E8H 0500H
  +--> ?CO?A3A8
  +--> ?PR?_MEMCOPY?MEM

?CO?A3A8                                   ----- -----

__REMOVE/FILE                              04E8H 04F3H
  +--> ?PR?_FILE_GET_DFHEADER?FILE
  +--> ?PR?_FILE_FIND_ENTRY?FILE
  +--> ?PR?_FILE_GET_HEADER?FILE
  +--> ?PR?_IOMAN_WRITE_BUFFER?IOMAN
  +--> ?PR?_FILE_REMOVE_ENTRY?FILE
  +--> ?PR?_FS_DEALLOC?FS
  +--> ?PR?_M_FREE?MIDGARD

_FILE_FIND_ENTRY/FILE                      04F4H 04FAH
  +--> ?PR?_FILE_GET_HEADER?FILE
  +--> ?PR?_M_FREE?MIDGARD
LX51 LINKER/LOCATER V3.51                                                             01/11/2013  15:44:20  PAGE 11



_FILE_REMOVE_ENTRY/FILE                    04F4H 04FDH
  +--> ?PR?_FILE_GET_HEADER?FILE
  +--> ?PR?_M_FREE?MIDGARD
  +--> ?PR?_IOMAN_WRITE_BUFFER?IOMAN

_FS_DEALLOC/FS                             04F4H 0504H
  +--> ?PR?_M_ALLOC?MIDGARD
  +--> ?PR?_IOMAN_READ_BUFFER?IOMAN
  +--> ?PR?_IOMAN_WRITE_BUFFER?IOMAN

__CREATEFILEBIN/FILE                       04E8H 04FDH
  +--> ?PR?_FILE_GET_DFHEADER?FILE
  +--> ?PR?_FS_ALLOC?FS
  +--> ?PR?_M_ALLOC?MIDGARD
  +--> ?PR?_IOMAN_WRITE_BUFFER?IOMAN
  +--> ?PR?_M_FREE?MIDGARD
  +--> ?PR?_FILE_ADD_ENTRY?FILE

_FS_ALLOC/FS                               04FEH 050EH
  +--> ?PR?_M_ALLOC?MIDGARD
  +--> ?PR?_MEMCOPY?MEM
  +--> ?PR?_IOMAN_WRITE_BUFFER?IOMAN
  +--> ?PR?_M_FREE?MIDGARD
  +--> ?PR?_IOMAN_READ_BUFFER?IOMAN

_FILE_ADD_ENTRY/FILE                       04FEH 0507H
  +--> ?PR?_FILE_GET_HEADER?FILE
  +--> ?PR?_M_FREE?MIDGARD
  +--> ?PR?_IOMAN_WRITE_BUFFER?IOMAN

__CREATEFILEREC/FILE                       04E8H 04FAH
  +--> ?PR?_FILE_GET_DFHEADER?FILE
  +--> ?PR?_FS_ALLOC?FS
  +--> ?PR?_M_ALLOC?MIDGARD
  +--> ?PR?_IOMAN_WRITE_BUFFER?IOMAN
  +--> ?PR?_FILE_ADD_ENTRY?FILE
  +--> ?PR?_M_FREE?MIDGARD

__CREATEFILECYCLIC/FILE                    04E8H 04FAH
  +--> ?PR?_FILE_GET_DFHEADER?FILE
  +--> ?PR?_FS_ALLOC?FS
  +--> ?PR?_M_ALLOC?MIDGARD
  +--> ?PR?_IOMAN_WRITE_BUFFER?IOMAN
  +--> ?PR?_FILE_ADD_ENTRY?FILE
  +--> ?PR?_M_FREE?MIDGARD

__CREATEDIRECTORY/FILE                     04E8H 04F7H
  +--> ?PR?_FILE_GET_DFHEADER?FILE
  +--> ?PR?_FS_ALLOC?FS
  +--> ?PR?_M_ALLOC?MIDGARD
  +--> ?PR?_IOMAN_WRITE_BUFFER?IOMAN
  +--> ?PR?_FILE_ADD_ENTRY?FILE
  +--> ?PR?_M_FREE?MIDGARD

_IOMAN_SEEK/IOMAN                          ----- -----

_IOMAN_WRITE/IOMAN                         ----- -----

_IOMAN_TRANSMIT/IOMAN                      ----- -----
  +--> ?PR?_SEND_BYTE?ISO7816_API
  +--> ?PR?_TX_N_BYTES?ISO7816_API
  +--> ?PR?_TX_STATUS?ISO7816_API

_TX_STATUS/ISO7816_API                     ----- -----
LX51 LINKER/LOCATER V3.51                                                             01/11/2013  15:44:20  PAGE 12


  +--> ?PR?_SEND_BYTE?ISO7816_API

?C_INITSEG                                 ----- -----

*** NEW ROOT *****************************

DES_ISR/ISO7816_INTERRUPT                  ----- -----

*** NEW ROOT *****************************

TMR0_ISR/ISO7816_INTERRUPT                 ----- -----

*** NEW ROOT *****************************

UART_ISR/ISO7816_INTERRUPT                 ----- -----
  +--> ?PR?ISO7816_CASE?ISO7816_MAIN

ISO7816_CASE/ISO7816_MAIN                  ----- -----
  +--> ?CO?YGGDRASIL

?CO?YGGDRASIL                              ----- -----

*** NEW ROOT *****************************

INT3_ISR/ISO7816_INTERRUPT                 ----- -----

*** NEW ROOT *****************************

FLASH_ISR/ISO7816_INTERRUPT                ----- -----

*** NEW ROOT *****************************

INT5_ISR/ISO7816_INTERRUPT                 ----- -----

*** NEW ROOT *****************************

WDT_ISR/ISO7816_INTERRUPT                  ----- -----
  +--> ?PR?_ISO_AUTOTXNULL?ISO7816_API



PUBLIC SYMBOLS OF MODULE:  .\Debug\Output\THC20F17BD_V10_DEMO_RC_01 (?C_STARTUP)


      VALUE       CLASS    TYPE      PUBLIC SYMBOL NAME
      =================================================
      020004E8H   XDATA    BYTE      ?__createdirectory?BYTE
      020004E8H   XDATA    BYTE      ?__createfilebin?BYTE
      020004E8H   XDATA    BYTE      ?__createfilecyclic?BYTE
      020004E8H   XDATA    BYTE      ?__createfilerec?BYTE
      020004E8H   XDATA    BYTE      ?__readbin?BYTE
      020004E8H   XDATA    BYTE      ?__readrec?BYTE
      020004E8H   XDATA    BYTE      ?__writebin?BYTE
      020004E8H   XDATA    BYTE      ?__writerec?BYTE
      0200065CH   XDATA    BYTE      ?_auth_3DES?BYTE
      020004E8H   XDATA    BYTE      ?_auth_A3A8?BYTE
      02000555H   XDATA    BYTE      ?_auth_DEShash?BYTE
      02000617H   XDATA    BYTE      ?_auth_DESkey8to7?BYTE
      02000687H   XDATA    BYTE      ?_CalCRC?BYTE
      020004E8H   XDATA    BYTE      ?_chv_change?BYTE
      020004F4H   XDATA    BYTE      ?_chv_create?BYTE
      020004E8H   XDATA    BYTE      ?_chv_unblock?BYTE
      02000665H   XDATA    BYTE      ?_decrypt_3DES?BYTE
      02000585H   XDATA    BYTE      ?_decrypt_DEShash?BYTE
      0200069FH   XDATA    BYTE      ?_DES_Operation?BYTE
LX51 LINKER/LOCATER V3.51                                                             01/11/2013  15:44:20  PAGE 13


      020006ADH   XDATA    BYTE      ?_ioman_transmit?BYTE
      0200067FH   XDATA    ---       ?_MEM_CMP?BYTE
      02000677H   XDATA    ---       ?_MEM_CPY?BYTE
      02000624H   XDATA    BYTE      ?_memadd?BYTE
      02000630H   XDATA    BYTE      ?_memcat?BYTE
      020004F2H   XDATA    BYTE      ?_memcompare?BYTE
      0200050FH   XDATA    BYTE      ?_memcopy?BYTE
      020006DDH   XDATA    BYTE      ?_mempadding?BYTE
      020005B5H   XDATA    ---       ?_PRINTF517?BYTE
      020005B5H   XDATA    ---       ?_PRINTF?BYTE
      020005B5H   XDATA    ---       ?_SPRINTF517?BYTE
      020005B5H   XDATA    ---       ?_SPRINTF?BYTE
      01001619H   CODE     ---       ?C?CCASE
      010012CDH   CODE     ---       ?C?CILDOPTR
      010012A0H   CODE     ---       ?C?CLDOPTR
      01001287H   CODE     ---       ?C?CLDPTR
      00000000H   NUMBER   ---       ?C?CODESEG
      01001261H   CODE     ---       ?C?COPY
      01001312H   CODE     ---       ?C?CSTOPTR
      01001300H   CODE     ---       ?C?CSTPTR
      0100163FH   CODE     ---       ?C?ICASE
      010013D1H   CODE     ---       ?C?IILDX
      010013E7H   CODE     ---       ?C?ILDIX
      01001428H   CODE     ---       ?C?ILDOPTR
      010013FDH   CODE     ---       ?C?ILDPTR
      01001334H   CODE     ---       ?C?IMUL
      0100147FH   CODE     ---       ?C?ISTOPTR
      01001460H   CODE     ---       ?C?ISTPTR
      010014F7H   CODE     ---       ?C?LLDXDATA
      0100166CH   CODE     ---       ?C?LSTIDATA
      010014D3H   CODE     ---       ?C?LSTOPTR
      01001678H   CODE     ---       ?C?LSTPDATA
      01001503H   CODE     ---       ?C?LSTXDATA
      010016BFH   CODE     ---       ?C?PLDCODE
      01001684H   CODE     ---       ?C?PLDIDATA
      01001696H   CODE     ---       ?C?PLDIXDATA
      01001590H   CODE     ---       ?C?PLDOPTR
      010016ADH   CODE     ---       ?C?PLDPDATA
      01001521H   CODE     ---       ?C?PLDPTR
      0100150FH   CODE     ---       ?C?PLDXDATA
      0100168DH   CODE     ---       ?C?PSTIDATA
      010015C0H   CODE     ---       ?C?PSTOPTR
      010016B6H   CODE     ---       ?C?PSTPDATA
      01001541H   CODE     ---       ?C?PSTPTR
      01001518H   CODE     ---       ?C?PSTXDATA
      0100139BH   CODE     ---       ?C?SIDIV
      010014ACH   CODE     ---       ?C?SLCMP
      01001346H   CODE     ---       ?C?UIDIV
      010014C2H   CODE     ---       ?C?ULCMP
      00000000H   NUMBER   ---       ?C?XDATASEG
      01005BC0H   CODE     ---       ?C_START
      01000000H   CODE     ---       ?C_STARTUP
      01004E52H   CODE     ---       __createdirectory
      010048C9H   CODE     ---       __createfilebin
      010044E1H   CODE     ---       __createfilecyclic
      01004632H   CODE     ---       __createfilerec
      010056BBH   CODE     ---       __readbin
      01004A0FH   CODE     ---       __readrec
      0100686DH   CODE     ---       __readrec_next
      0100687EH   CODE     ---       __readrec_prev
      01005496H   CODE     ---       __remove
      01004782H   CODE     ---       __select
      010068C0H   CODE     ---       __write_new_rec
      0100576AH   CODE     ---       __writebin
      0100289DH   CODE     ---       __writerec
LX51 LINKER/LOCATER V3.51                                                             01/11/2013  15:44:20  PAGE 14


      0100688FH   CODE     ---       __writerec_next
      010068A0H   CODE     ---       __writerec_prev
      010062EDH   CODE     ---       _auth_3DES
      010016CBH   CODE     ---       _auth_A3A8
      010030B6H   CODE     ---       _auth_DEShash
      01005CF5H   CODE     ---       _auth_DESkey8to7
      010062A1H   CODE     ---       _CalCRC
      02000313H   XDATA    ---       _chunkroot
      01002EBDH   CODE     ---       _chv_change
      0100420CH   CODE     ---       _chv_create
      010039DAH   CODE     ---       _chv_disable
      01003816H   CODE     ---       _chv_enable
      010068EBH   CODE     ---       _chv_get_status
      020005F5H   XDATA    ---       _chv_status
      01003EFFH   CODE     ---       _chv_unblock
      01003D4FH   CODE     ---       _chv_verify
      0100680AH   CODE     ---       _Command_Interpreter
      020006C2H   XDATA    WORD      _cur_dir
      020006C4H   XDATA    WORD      _cur_ptr
      020006C0H   XDATA    WORD      _cur_rec
      01006338H   CODE     ---       _decrypt_3DES
      01002CD2H   CODE     ---       _decrypt_DEShash
      01001BF5H   CODE     ---       _DES_Operation
      0100662EH   CODE     ---       _Erase_Page
      01006051H   CODE     ---       _Erase_Pages
      01005141H   CODE     ---       _file_add_entry
      01005215H   CODE     ---       _file_check_status
      010059E8H   CODE     ---       _file_find_entry
      01006396H   CODE     ---       _file_get_dfheader
      01006464H   CODE     ---       _file_get_efheader
      010064A4H   CODE     ---       _file_get_header
      01004D56H   CODE     ---       _file_remove_entry
      01006103H   CODE     ---       _fromhex
      01002331H   CODE     ---       _fs_alloc
      0100408AH   CODE     ---       _fs_dealloc
      0100346DH   CODE     ---       _fs_format
      0100699AH   CODE     ---       _gethexvalue
      0100695CH   CODE     ---       _GSM_Handler
      010060AAH   CODE     ---       _invalidate
      010067C8H   CODE     ---       _IoInit
      010052EDH   CODE     ---       _ioman_read_buffer
      01006849H   CODE     ---       _ioman_read_pos
      01006977H   CODE     ---       _ioman_receive
      0100696EH   CODE     ---       _ioman_seek
      01006519H   CODE     ---       _ioman_transmit
      0100697EH   CODE     ---       _ioman_write
      01004F4DH   CODE     ---       _ioman_write_buffer
      010068F9H   CODE     ---       _ioman_write_pos
      02000107H   XDATA    BYTE      _iso7816_state
      010065FAH   CODE     ---       _ISO_AutoTxNULL
      01005048H   CODE     ---       _KeyShift
      01002AB6H   CODE     ---       _m_alloc
      01003647H   CODE     ---       _m_alloc_nd
      01005D6DH   CODE     ---       _m_free
      01005C7DH   CODE     ---       _m_free_nd
      0100437AH   CODE     ---       _MEM_CMP
      01005819H   CODE     ---       _MEM_CPY
      01005F91H   CODE     ---       _memadd
      01005DE1H   CODE     ---       _memcat
      01006734H   CODE     ---       _memclear
      010061ADH   CODE     ---       _memcompare
      01005F2BH   CODE     ---       _memcopy
      0100658FH   CODE     ---       _mempadding
      010067B1H   CODE     ---       _PPS_Handler
      01002037H   CODE     ---       _PRINTF
LX51 LINKER/LOCATER V3.51                                                             01/11/2013  15:44:20  PAGE 15


      01002037H   CODE     ---       _PRINTF517
      010066E7H   CODE     ---       _PUTCHAR
      0100665FH   CODE     ---       _Random_Number_Generator
      01005E53H   CODE     ---       _ReadFlash
      01005FF7H   CODE     ---       _rehabilitate
      010066BCH   CODE     ---       _Rx_n_Bytes
      0100693AH   CODE     ---       _send_byte
      01006159H   CODE     ---       _Set_PPS
      010067F4H   CODE     ---       _SetBase
      01002031H   CODE     ---       _SPRINTF
      01002031H   CODE     ---       _SPRINTF517
      01006834H   CODE     ---       _STRLEN
      *EXTERN*    CODE     ---       _sys_read
      *EXTERN*    CODE     ---       _sys_select
      010065C5H   CODE     ---       _Tx_n_Bytes
      010068CFH   CODE     ---       _Tx_Status
      0100685CH   CODE     ---       _TxStatus
      01003291H   CODE     ---       _UpdateFlash
      01005C05H   CODE     ---       _Write_Bytes
      010000CDH   CODE     ---       _Yggdrasil_Decode
      02000319H   XDATA    ---       alloc_buffer
      0200030DH   XDATA    ---       alloc_prev
      02000315H   XDATA    ---       alloc_ptr
      02000317H   XDATA    ---       alloc_ptr_temp
      01007366H   CONST    ---       ATR
      0200030BH   XDATA    ---       candidate
      01005AFEH   CODE     ---       chv_init
      020005EDH   XDATA    ---       chv_padding
*SFR* 00000086H   DATA     BYTE      CLKCON
      01006999H   CODE     ---       CMMD_Handle
*SFR* 000000C2H   DATA     BYTE      CRCDAT
      020006E2H   XDATA    WORD      data_pointer
      01006E3EH   CONST    ---       DataExpansion
*SFR* 000000C0H.5 DATA     BIT       DES_DATEN
*SFR* 000000C0H.3 DATA     BIT       DES_END
      01006984H   CODE     ---       DES_ISR
*SFR* 000000C0H.6 DATA     BIT       DES_KEY1EN
*SFR* 000000C0H.7 DATA     BIT       DES_KEY2EN
*SFR* 000000C0H.1 DATA     BIT       DES_MODE
*SFR* 000000C0H   DATA     BIT       DES_START
*SFR* 000000C0H.2 DATA     BIT       DES_TDES
*SFR* 000000C0H   DATA     BYTE      DESCTL
*SFR* 000000F8H   DATA     BYTE      DESD0
*SFR* 000000F9H   DATA     BYTE      DESD1
*SFR* 000000FAH   DATA     BYTE      DESD2
*SFR* 000000FBH   DATA     BYTE      DESD3
*SFR* 000000FCH   DATA     BYTE      DESD4
*SFR* 000000FDH   DATA     BYTE      DESD5
*SFR* 000000FEH   DATA     BYTE      DESD6
*SFR* 000000FFH   DATA     BYTE      DESD7
*SFR* 000000E3H   DATA     BYTE      FDCON
      0100677CH   CODE     ---       file_get_current_header
      0100708EH   CONST    ---       FinalPermuteMap
*SFR* 000000EBH   DATA     BYTE      FL_CON
*SFR* 000000E9H   DATA     BYTE      FL_SDP1
*SFR* 000000EAH   DATA     BYTE      FL_SDP2
*SFR* 000000E8H   DATA     BYTE      FL_STS
*SFR* 000000E8H.2 DATA     BIT       FL_STS_F_CHKFF_ERR
*SFR* 000000E8H.1 DATA     BIT       FL_STS_F_OP_ERR
*SFR* 000000E8H   DATA     BIT       FL_STS_F_OVER
      0100698DH   CODE     ---       FLASH_ISR
      02000108H   XDATA    ---       FlashBuffer
      02000308H   XDATA    WORD      Foffset
      02000542H   XDATA    WORD      free_space
      01005A73H   CODE     ---       fs_init
LX51 LINKER/LOCATER V3.51                                                             01/11/2013  15:44:20  PAGE 16


      02000554H   XDATA    BYTE      get_resp_length
      01006993H   CODE     ---       gethex
      01007106H   CONST    ---       gsm_class_case
      02000311H   XDATA    WORD      heap_end
      0200030FH   XDATA    WORD      heap_start
      010068B1H   CODE     ---       HW_INIT
*SFR* 000000A8H   DATA     BYTE      IE
*SFR* 000000A8H   DATA     BIT       IE_DES
*SFR* 000000A8H.7 DATA     BIT       IE_EA
*SFR* 000000A8H.4 DATA     BIT       IE_FLASH
*SFR* 000000A8H.3 DATA     BIT       IE_INT3
*SFR* 000000A8H.5 DATA     BIT       IE_INT5
*SFR* 000000A8H.1 DATA     BIT       IE_TMR0
*SFR* 000000A8H.2 DATA     BIT       IE_UART
*SFR* 000000A8H.6 DATA     BIT       IE_WDT
      01006996H   CODE     ---       Initialize_Hardware
      0100681FH   CODE     ---       Initialize_Operating_System
      01006D86H   CONST    ---       InitialPermuteMap
      0100698AH   CODE     ---       INT3_ISR
      01006990H   CODE     ---       INT5_ISR
      020006E4H   XDATA    ---       iobuf
      0100699BH   CODE     ---       ioman_close
      01006965H   CODE     ---       ioman_init
      01006951H   CODE     ---       ioman_read
      0100670EH   CODE     ---       ioman_send_atr
      02000000H   XDATA    ---       iso7816_buffer
      01006759H   CODE     ---       ISO7816_case
      01006907H   CODE     ---       ISO7816_INIT
      01004B29H   CODE     ---       ISO7816_MAIN
      020006F8H   XDATA    ---       ISO7816_TIME
      01006E0EH   CONST    ---       KeyCompression
      01006DC6H   CONST    ---       KeyPermuteMap
      01006DFEH   CONST    ---       KeyRotation
      010053C2H   CODE     ---       m_gc
      010058B8H   CODE     ---       m_heap_space
      01006558H   CODE     ---       m_init_alloc
      01005609H   CODE     ---       m_mem_dump
      01006798H   CODE     ---       m_used_heap
      0100692EH   CODE     ---       MAIN
      010070CEH   CONST    ---       map8to7
*SFR* 000000C3H   DATA     BYTE      MMU_SEL
      0100706EH   CONST    ---       PBox
      010063CBH   CODE     ---       PPS
      01006921H   CODE     ---       PPS_ACK
      0200030AH   XDATA    BYTE      PPSFlag
      01005957H   CODE     ---       RcvAPDU
      01006946H   CODE     ---       receive_byte
      *EXTERN*    XDATA    ---       response
      *EXTERN*    XDATA    BYTE      response_length
      01006201H   CODE     ---       ReturnToBL
*SFR* 000000E1H   DATA     BYTE      RNGCTL
*SFR* 000000E2H   DATA     BYTE      RNGDAT
*SFR* 00000090H   DATA     BYTE      rP1
*SFR* 000000B0H   DATA     BYTE      rP3
      01006E6EH   CONST    ---       SBox
      01006914H   CODE     ---       Send_ATR
*SFR* 00000097H   DATA     BYTE      SLEEP
      010067DEH   CODE     ---       Sleep_Mode
      01007371H   CONST    ---       SW
      02000106H   XDATA    BYTE      SWptr
*SFR* 00000088H   DATA     BYTE      TCON
      01006987H   CODE     ---       TMR0_ISR
      01005551H   CODE     ---       UART_ISR
*SFR* 000000DAH   DATA     BYTE      UBRC
*SFR* 000000D9H   DATA     BYTE      UBUF
LX51 LINKER/LOCATER V3.51                                                             01/11/2013  15:44:20  PAGE 17


*SFR* 000000DFH   DATA     BYTE      UCR
*SFR* 000000D8H   DATA     BYTE      USR
*SFR* 000000D8H   DATA     BIT       USR_TBE
      02000544H   XDATA    ---       v_chv_status
*SFR* 000000DBH   DATA     BYTE      VDCON
      01007306H   CONST    ---       VectorTable
      0100668FH   CODE     ---       WDT_ISR
      01007206H   CONST    ---       yggdrasil_class_case



UNRESOLVED EXTERNAL SYMBOLS:
   _sys_read
   _sys_select
   response
   response_length



SYMBOL TABLE OF MODULE:  .\Debug\Output\THC20F17BD_V10_DEMO_RC_01 (?C_STARTUP)

      VALUE       REP       CLASS    TYPE      SYMBOL NAME
      ====================================================
      ---         MODULE    ---      ---       ?C_STARTUP
      01000000H   PUBLIC    CODE     ---       ?C_STARTUP
      000000E0H   SYMBOL    DATA     ---       ACC
      00000083H   SYMBOL    CODE     ---       ADDR16BIT
      000000B7H   SYMBOL    CODE     ---       ADDR8BIT
      000000ADH   SYMBOL    CODE     ---       ADDR8BITL
      000000B3H   SYMBOL    CODE     ---       ADDR8BITS
      000000F0H   SYMBOL    DATA     ---       B
      0000008FH   SYMBOL    DATA     ---       CLKSEL
      0000003BH   SYMBOL    CODE     ---       CSTARTUP
      00000083H   SYMBOL    DATA     ---       DPH
      00000082H   SYMBOL    DATA     ---       DPL
      00000000H   SYMBOL    NUMBER   ---       IBPSTACK
      00000100H   SYMBOL    NUMBER   ---       IBPSTACKTOP
      00000100H   SYMBOL    NUMBER   ---       IDATALEN
      00000041H   SYMBOL    CODE     ---       IDATALOOP
      00000051H   SYMBOL    CODE     ---       INCHI
      000000BCH   SYMBOL    CODE     ---       INITIDATA
      00000059H   SYMBOL    CODE     ---       INITIIALIZEDDATA
      00000090H   SYMBOL    CODE     ---       INITXDATA
      00000003H   SYMBOL    CODE     ---       INTERRUPT0
      0000000BH   SYMBOL    CODE     ---       INTERRUPT1
      00000013H   SYMBOL    CODE     ---       INTERRUPT2
      0000001BH   SYMBOL    CODE     ---       INTERRUPT3
      00000023H   SYMBOL    CODE     ---       INTERRUPT4
      0000002BH   SYMBOL    CODE     ---       INTERRUPT5
      00000033H   SYMBOL    CODE     ---       INTERRUPT6
      0000004EH   SYMBOL    CODE     ---       JUDGEHI
      000000C7H   SYMBOL    CODE     ---       JUMPTOMAIN
      00000069H   SYMBOL    CODE     ---       LEN13BIT
      0000007AH   SYMBOL    CODE     ---       LEN5BIT
      0000005EH   SYMBOL    CODE     ---       LOOPINIT
      00000059H   SYMBOL    CODE     ---       NONXRAMINIT0
      000000A0H   SYMBOL    DATA     ---       P2
      00000000H   SYMBOL    NUMBER   ---       PBPSTACK
      00000000H   SYMBOL    NUMBER   ---       PBPSTACKTOP
      00000000H   SYMBOL    NUMBER   ---       PDATALEN
      00000000H   SYMBOL    NUMBER   ---       PDATASTART
      00000000H   SYMBOL    NUMBER   ---       PPAGE
      00000000H   SYMBOL    NUMBER   ---       PPAGEENABLE
      00000081H   SYMBOL    DATA     ---       SP
      00000000H   SYMBOL    NUMBER   ---       XBPSTACK
LX51 LINKER/LOCATER V3.51                                                             01/11/2013  15:44:20  PAGE 18


      00000000H   SYMBOL    NUMBER   ---       XBPSTACKTOP
      00000800H   SYMBOL    NUMBER   ---       XDATALEN
      00000053H   SYMBOL    CODE     ---       XDATALOOP
      00000000H   SYMBOL    NUMBER   ---       XDATASTART
      01000000H   LINE      CODE     ---       #105
      01000003H   LINE      CODE     ---       #112
      01000006H   LINE      CODE     ---       #113
      01000007H   LINE      CODE     ---       #114
      01000008H   LINE      CODE     ---       #115
      01000009H   LINE      CODE     ---       #116
      0100000AH   LINE      CODE     ---       #117
      0100000BH   LINE      CODE     ---       #124
      0100000EH   LINE      CODE     ---       #125
      0100000FH   LINE      CODE     ---       #126
      01000010H   LINE      CODE     ---       #127
      01000011H   LINE      CODE     ---       #128
      01000012H   LINE      CODE     ---       #129
      01000013H   LINE      CODE     ---       #136
      01000016H   LINE      CODE     ---       #137
      01000017H   LINE      CODE     ---       #138
      01000018H   LINE      CODE     ---       #139
      01000019H   LINE      CODE     ---       #140
      0100001AH   LINE      CODE     ---       #141
      0100001BH   LINE      CODE     ---       #148
      0100001EH   LINE      CODE     ---       #149
      0100001FH   LINE      CODE     ---       #150
      01000020H   LINE      CODE     ---       #151
      01000021H   LINE      CODE     ---       #152
      01000022H   LINE      CODE     ---       #153
      01000023H   LINE      CODE     ---       #160
      01000026H   LINE      CODE     ---       #161
      01000027H   LINE      CODE     ---       #162
      01000028H   LINE      CODE     ---       #163
      01000029H   LINE      CODE     ---       #164
      0100002AH   LINE      CODE     ---       #165
      0100002BH   LINE      CODE     ---       #172
      0100002EH   LINE      CODE     ---       #173
      0100002FH   LINE      CODE     ---       #174
      01000030H   LINE      CODE     ---       #175
      01000031H   LINE      CODE     ---       #176
      01000032H   LINE      CODE     ---       #177
      01000033H   LINE      CODE     ---       #184
      01000036H   LINE      CODE     ---       #185
      01000037H   LINE      CODE     ---       #186
      01000038H   LINE      CODE     ---       #187
      01000039H   LINE      CODE     ---       #188
      0100003AH   LINE      CODE     ---       #189
      0100003BH   LINE      CODE     ---       #199
      0100003EH   LINE      CODE     ---       #202
      01000040H   LINE      CODE     ---       #203
      01000041H   LINE      CODE     ---       #205
      01000042H   LINE      CODE     ---       #206
      01000044H   LINE      CODE     ---       #211
      01000047H   LINE      CODE     ---       #212
      01000049H   LINE      CODE     ---       #213
      0100004BH   LINE      CODE     ---       #215
      0100004CH   LINE      CODE     ---       #216
      0100004EH   LINE      CODE     ---       #218
      0100004FH   LINE      CODE     ---       #219
      01000051H   LINE      CODE     ---       #222
      01000052H   LINE      CODE     ---       #224
      01000053H   LINE      CODE     ---       #226
      01000054H   LINE      CODE     ---       #227
      01000055H   LINE      CODE     ---       #228
      01000057H   LINE      CODE     ---       #229
LX51 LINKER/LOCATER V3.51                                                             01/11/2013  15:44:20  PAGE 19


      01000059H   LINE      CODE     ---       #270
      0100005CH   LINE      CODE     ---       #271
      0100005EH   LINE      CODE     ---       #274
      0100005FH   LINE      CODE     ---       #275
      01000060H   LINE      CODE     ---       #276
      01000062H   LINE      CODE     ---       #278
      01000063H   LINE      CODE     ---       #279
      01000064H   LINE      CODE     ---       #280
      01000066H   LINE      CODE     ---       #281
      01000069H   LINE      CODE     ---       #284
      0100006AH   LINE      CODE     ---       #285
      0100006BH   LINE      CODE     ---       #286
      0100006CH   LINE      CODE     ---       #287
      0100006DH   LINE      CODE     ---       #288
      0100006EH   LINE      CODE     ---       #289
      0100006FH   LINE      CODE     ---       #290
      01000070H   LINE      CODE     ---       #291
      01000072H   LINE      CODE     ---       #292
      01000075H   LINE      CODE     ---       #293
      01000077H   LINE      CODE     ---       #294
      01000078H   LINE      CODE     ---       #295
      0100007AH   LINE      CODE     ---       #298
      0100007BH   LINE      CODE     ---       #299
      0100007DH   LINE      CODE     ---       #300
      01000080H   LINE      CODE     ---       #301
      01000082H   LINE      CODE     ---       #302
      01000083H   LINE      CODE     ---       #305
      01000084H   LINE      CODE     ---       #306
      01000086H   LINE      CODE     ---       #307
      01000087H   LINE      CODE     ---       #308
      01000088H   LINE      CODE     ---       #309
      01000089H   LINE      CODE     ---       #310
      0100008AH   LINE      CODE     ---       #311
      0100008BH   LINE      CODE     ---       #312
      0100008CH   LINE      CODE     ---       #313
      0100008DH   LINE      CODE     ---       #314
      0100008EH   LINE      CODE     ---       #315
      0100008FH   LINE      CODE     ---       #316
      01000090H   LINE      CODE     ---       #319
      01000091H   LINE      CODE     ---       #320
      01000092H   LINE      CODE     ---       #321
      01000093H   LINE      CODE     ---       #322
      01000094H   LINE      CODE     ---       #324
      01000095H   LINE      CODE     ---       #325
      01000097H   LINE      CODE     ---       #326
      01000098H   LINE      CODE     ---       #327
      01000099H   LINE      CODE     ---       #328
      0100009BH   LINE      CODE     ---       #329
      0100009CH   LINE      CODE     ---       #331
      0100009DH   LINE      CODE     ---       #332
      0100009EH   LINE      CODE     ---       #333
      0100009FH   LINE      CODE     ---       #335
      010000A0H   LINE      CODE     ---       #336
      010000A2H   LINE      CODE     ---       #337
      010000A3H   LINE      CODE     ---       #338
      010000A4H   LINE      CODE     ---       #339
      010000A6H   LINE      CODE     ---       #340
      010000A7H   LINE      CODE     ---       #342
      010000A9H   LINE      CODE     ---       #343
      010000ABH   LINE      CODE     ---       #344
      010000ADH   LINE      CODE     ---       #347
      010000AEH   LINE      CODE     ---       #348
      010000B0H   LINE      CODE     ---       #349
      010000B1H   LINE      CODE     ---       #350
      010000B3H   LINE      CODE     ---       #353
LX51 LINKER/LOCATER V3.51                                                             01/11/2013  15:44:20  PAGE 20


      010000B4H   LINE      CODE     ---       #354
      010000B6H   LINE      CODE     ---       #355
      010000B7H   LINE      CODE     ---       #358
      010000B8H   LINE      CODE     ---       #359
      010000B9H   LINE      CODE     ---       #360
      010000BAH   LINE      CODE     ---       #361
      010000BBH   LINE      CODE     ---       #362
      010000BCH   LINE      CODE     ---       #365
      010000BDH   LINE      CODE     ---       #366
      010000BEH   LINE      CODE     ---       #367
      010000BFH   LINE      CODE     ---       #368
      010000C0H   LINE      CODE     ---       #369
      010000C1H   LINE      CODE     ---       #371
      010000C3H   LINE      CODE     ---       #372
      010000C5H   LINE      CODE     ---       #373
      010000C7H   LINE      CODE     ---       #378
      010000CAH   LINE      CODE     ---       #381

      ---         MODULE    ---      ---       MAIN
      0200067FH   PUBLIC    XDATA    ---       ?_MEM_CMP?BYTE
      02000677H   PUBLIC    XDATA    ---       ?_MEM_CPY?BYTE
      010068B1H   PUBLIC    CODE     ---       HW_INIT
      020006F8H   PUBLIC    XDATA    ---       ISO7816_TIME
      0100692EH   PUBLIC    CODE     ---       MAIN
      0100437AH   PUBLIC    CODE     ---       _MEM_CMP
      01005819H   PUBLIC    CODE     ---       _MEM_CPY
      01006934H   SYMBOL    CODE     ---       ?C0001
      01006939H   SYMBOL    CODE     ---       ?C0002
      01006939H   SYMBOL    CODE     ---       ?C0003
      010068BFH   SYMBOL    CODE     ---       ?C0004
      010058B5H   SYMBOL    CODE     ---       ?C0005
      010058B4H   SYMBOL    CODE     ---       ?C0006
      0100583FH   SYMBOL    CODE     ---       ?C0007
      01005879H   SYMBOL    CODE     ---       ?C0008
      010058B7H   SYMBOL    CODE     ---       ?C0009
      010058B5H   SYMBOL    CODE     ---       ?C0010
      010058B7H   SYMBOL    CODE     ---       ?C0011
      010058B7H   SYMBOL    CODE     ---       ?C0012
      0100442EH   SYMBOL    CODE     ---       ?C0013
      0100442BH   SYMBOL    CODE     ---       ?C0014
      010043A0H   SYMBOL    CODE     ---       ?C0015
      010043E5H   SYMBOL    CODE     ---       ?C0016
      010044DEH   SYMBOL    CODE     ---       ?C0017
      010044DCH   SYMBOL    CODE     ---       ?C0018
      010044DAH   SYMBOL    CODE     ---       ?C0019
      0100444EH   SYMBOL    CODE     ---       ?C0020
      01004494H   SYMBOL    CODE     ---       ?C0021
      010044DEH   SYMBOL    CODE     ---       ?C0022
      010044DCH   SYMBOL    CODE     ---       ?C0023
      010044DEH   SYMBOL    CODE     ---       ?C0024
      010044E0H   SYMBOL    CODE     ---       ?C0025
      000000E0H   SYMBOL    DATA     ---       ACC
      000000F0H   SYMBOL    DATA     ---       B
      000000EEH   SYMBOL    DATA     ---       BANK_NUM
      000000EFH   SYMBOL    DATA     ---       BANK_SEL
      000000DBH   SYMBOL    DATA     ---       CHIPSC
      00000086H   SYMBOL    DATA     ---       CLKCON
      0000008FH   SYMBOL    DATA     ---       CLKSEL
      010044D2H   SYMBOL    CODE     ---       CONTINUE_CC
      01004422H   SYMBOL    CODE     ---       CONTINUE_CX
      0100448BH   SYMBOL    CODE     ---       CONTINUE_XC
      010043DCH   SYMBOL    CODE     ---       CONTINUE_XX
      000000C2H   SYMBOL    DATA     ---       CRCDAT
      000000C0H   SYMBOL    DATA     ---       DESCTL
      000000F8H   SYMBOL    DATA     ---       DESD0
LX51 LINKER/LOCATER V3.51                                                             01/11/2013  15:44:20  PAGE 21


      000000F9H   SYMBOL    DATA     ---       DESD1
      000000FAH   SYMBOL    DATA     ---       DESD2
      000000FBH   SYMBOL    DATA     ---       DESD3
      000000FCH   SYMBOL    DATA     ---       DESD4
      000000FDH   SYMBOL    DATA     ---       DESD5
      000000FEH   SYMBOL    DATA     ---       DESD6
      000000FFH   SYMBOL    DATA     ---       DESD7
      000000C0H.5 SYMBOL    BIT      ---       DES_DATEN
      000000C0H.3 SYMBOL    BIT      ---       DES_END
      000000C0H.6 SYMBOL    BIT      ---       DES_KEY1EN
      000000C0H.7 SYMBOL    BIT      ---       DES_KEY2EN
      000000C0H.1 SYMBOL    BIT      ---       DES_MODE
      000000C0H.0 SYMBOL    BIT      ---       DES_START
      000000C0H.2 SYMBOL    BIT      ---       DES_TDES
      00000083H   SYMBOL    DATA     ---       DPH0
      00000085H   SYMBOL    DATA     ---       DPH1
      00000082H   SYMBOL    DATA     ---       DPL0
      00000084H   SYMBOL    DATA     ---       DPL1
      000000A2H   SYMBOL    DATA     ---       DPS
      02000677H   SYMBOL    XDATA    ---       DST?240
      0200067FH   SYMBOL    XDATA    ---       DST?343
      000000E3H   SYMBOL    DATA     ---       FDCON
      000000EBH   SYMBOL    DATA     ---       FL_CON
      000000E7H   SYMBOL    DATA     ---       FL_PATCH
      000000E9H   SYMBOL    DATA     ---       FL_SDP1
      000000EAH   SYMBOL    DATA     ---       FL_SDP2
      000000E8H   SYMBOL    DATA     ---       FL_STS
      000000E8H.2 SYMBOL    BIT      ---       FL_STS_F_CHKFF_ERR
      000000E8H.1 SYMBOL    BIT      ---       FL_STS_F_OP_ERR
      000000E8H.0 SYMBOL    BIT      ---       FL_STS_F_OVER
      000000A8H   SYMBOL    DATA     ---       IE
      000000A8H.0 SYMBOL    BIT      ---       IE_DES
      000000A8H.7 SYMBOL    BIT      ---       IE_EA
      000000A8H.4 SYMBOL    BIT      ---       IE_FLASH
      000000A8H.3 SYMBOL    BIT      ---       IE_INT3
      000000A8H.5 SYMBOL    BIT      ---       IE_INT5
      000000A8H.1 SYMBOL    BIT      ---       IE_TMR0
      000000A8H.2 SYMBOL    BIT      ---       IE_UART
      000000A8H.6 SYMBOL    BIT      ---       IE_WDT
      000000B8H   SYMBOL    DATA     ---       IP
      0200067DH   SYMBOL    XDATA    ---       LEN?242
      02000685H   SYMBOL    XDATA    ---       LEN?345
      010044BEH   SYMBOL    CODE     ---       LOOP_CMP_CC
      0100440FH   SYMBOL    CODE     ---       LOOP_CMP_CX
      01004478H   SYMBOL    CODE     ---       LOOP_CMP_XC
      010043CAH   SYMBOL    CODE     ---       LOOP_CMP_XX
      010058A4H   SYMBOL    CODE     ---       LOOP_CPY_C
      0100586AH   SYMBOL    CODE     ---       LOOP_CPY_X
      000000C3H   SYMBOL    DATA     ---       MMU_SEL
      00000087H   SYMBOL    DATA     ---       PCON
      000000D0H   SYMBOL    DATA     ---       PSW
      000000E1H   SYMBOL    DATA     ---       RNGCTL
      000000E2H   SYMBOL    DATA     ---       RNGDAT
      00000080H   SYMBOL    DATA     ---       RP0
      00000090H   SYMBOL    DATA     ---       RP1
      000000A0H   SYMBOL    DATA     ---       RP2
      000000B0H   SYMBOL    DATA     ---       RP3
      00000080H   SYMBOL    DATA     ---       SFR80
      00000081H   SYMBOL    DATA     ---       SFR81
      00000082H   SYMBOL    DATA     ---       SFR82
      00000083H   SYMBOL    DATA     ---       SFR83
      00000084H   SYMBOL    DATA     ---       SFR84
      00000085H   SYMBOL    DATA     ---       SFR85
      00000086H   SYMBOL    DATA     ---       SFR86
      00000087H   SYMBOL    DATA     ---       SFR87
LX51 LINKER/LOCATER V3.51                                                             01/11/2013  15:44:20  PAGE 22


      00000088H   SYMBOL    DATA     ---       SFR88
      00000089H   SYMBOL    DATA     ---       SFR89
      0000008AH   SYMBOL    DATA     ---       SFR8A
      0000008BH   SYMBOL    DATA     ---       SFR8B
      0000008CH   SYMBOL    DATA     ---       SFR8C
      0000008DH   SYMBOL    DATA     ---       SFR8D
      0000008EH   SYMBOL    DATA     ---       SFR8E
      0000008FH   SYMBOL    DATA     ---       SFR8F
      00000090H   SYMBOL    DATA     ---       SFR90
      00000091H   SYMBOL    DATA     ---       SFR91
      00000092H   SYMBOL    DATA     ---       SFR92
      00000093H   SYMBOL    DATA     ---       SFR93
      00000094H   SYMBOL    DATA     ---       SFR94
      00000095H   SYMBOL    DATA     ---       SFR95
      00000096H   SYMBOL    DATA     ---       SFR96
      00000097H   SYMBOL    DATA     ---       SFR97
      00000098H   SYMBOL    DATA     ---       SFR98
      00000099H   SYMBOL    DATA     ---       SFR99
      0000009AH   SYMBOL    DATA     ---       SFR9A
      0000009BH   SYMBOL    DATA     ---       SFR9B
      0000009CH   SYMBOL    DATA     ---       SFR9C
      0000009DH   SYMBOL    DATA     ---       SFR9D
      0000009EH   SYMBOL    DATA     ---       SFR9E
      0000009FH   SYMBOL    DATA     ---       SFR9F
      000000A0H   SYMBOL    DATA     ---       SFRA0
      000000A1H   SYMBOL    DATA     ---       SFRA1
      000000A2H   SYMBOL    DATA     ---       SFRA2
      000000A3H   SYMBOL    DATA     ---       SFRA3
      000000A4H   SYMBOL    DATA     ---       SFRA4
      000000A5H   SYMBOL    DATA     ---       SFRA5
      000000A6H   SYMBOL    DATA     ---       SFRA6
      000000A7H   SYMBOL    DATA     ---       SFRA7
      000000A8H   SYMBOL    DATA     ---       SFRA8
      000000A9H   SYMBOL    DATA     ---       SFRA9
      000000AAH   SYMBOL    DATA     ---       SFRAA
      000000ABH   SYMBOL    DATA     ---       SFRAB
      000000ACH   SYMBOL    DATA     ---       SFRAC
      000000ADH   SYMBOL    DATA     ---       SFRAD
      000000AEH   SYMBOL    DATA     ---       SFRAE
      000000AFH   SYMBOL    DATA     ---       SFRAF
      000000B0H   SYMBOL    DATA     ---       SFRB0
      000000B1H   SYMBOL    DATA     ---       SFRB1
      000000B2H   SYMBOL    DATA     ---       SFRB2
      000000B3H   SYMBOL    DATA     ---       SFRB3
      000000B4H   SYMBOL    DATA     ---       SFRB4
      000000B5H   SYMBOL    DATA     ---       SFRB5
      000000B6H   SYMBOL    DATA     ---       SFRB6
      000000B7H   SYMBOL    DATA     ---       SFRB7
      000000B8H   SYMBOL    DATA     ---       SFRB8
      000000B9H   SYMBOL    DATA     ---       SFRB9
      000000BAH   SYMBOL    DATA     ---       SFRBA
      000000BBH   SYMBOL    DATA     ---       SFRBB
      000000BCH   SYMBOL    DATA     ---       SFRBC
      000000BDH   SYMBOL    DATA     ---       SFRBD
      000000BEH   SYMBOL    DATA     ---       SFRBE
      000000BFH   SYMBOL    DATA     ---       SFRBF
      000000C0H   SYMBOL    DATA     ---       SFRC0
      000000C1H   SYMBOL    DATA     ---       SFRC1
      000000C2H   SYMBOL    DATA     ---       SFRC2
      000000C3H   SYMBOL    DATA     ---       SFRC3
      000000C4H   SYMBOL    DATA     ---       SFRC4
      000000C5H   SYMBOL    DATA     ---       SFRC5
      000000C6H   SYMBOL    DATA     ---       SFRC6
      000000C7H   SYMBOL    DATA     ---       SFRC7
      000000C8H   SYMBOL    DATA     ---       SFRC8
LX51 LINKER/LOCATER V3.51                                                             01/11/2013  15:44:20  PAGE 23


      000000C9H   SYMBOL    DATA     ---       SFRC9
      000000CAH   SYMBOL    DATA     ---       SFRCA
      000000CBH   SYMBOL    DATA     ---       SFRCB
      000000CCH   SYMBOL    DATA     ---       SFRCC
      000000CDH   SYMBOL    DATA     ---       SFRCD
      000000CEH   SYMBOL    DATA     ---       SFRCE
      000000CFH   SYMBOL    DATA     ---       SFRCF
      000000D0H   SYMBOL    DATA     ---       SFRD0
      000000D1H   SYMBOL    DATA     ---       SFRD1
      000000D2H   SYMBOL    DATA     ---       SFRD2
      000000D3H   SYMBOL    DATA     ---       SFRD3
      000000D4H   SYMBOL    DATA     ---       SFRD4
      000000D5H   SYMBOL    DATA     ---       SFRD5
      000000D6H   SYMBOL    DATA     ---       SFRD6
      000000D7H   SYMBOL    DATA     ---       SFRD7
      000000D8H   SYMBOL    DATA     ---       SFRD8
      000000D9H   SYMBOL    DATA     ---       SFRD9
      000000DAH   SYMBOL    DATA     ---       SFRDA
      000000DBH   SYMBOL    DATA     ---       SFRDB
      000000DCH   SYMBOL    DATA     ---       SFRDC
      000000DDH   SYMBOL    DATA     ---       SFRDD
      000000DEH   SYMBOL    DATA     ---       SFRDE
      000000DFH   SYMBOL    DATA     ---       SFRDF
      000000E0H   SYMBOL    DATA     ---       SFRE0
      000000E1H   SYMBOL    DATA     ---       SFRE1
      000000E2H   SYMBOL    DATA     ---       SFRE2
      000000E3H   SYMBOL    DATA     ---       SFRE3
      000000E4H   SYMBOL    DATA     ---       SFRE4
      000000E5H   SYMBOL    DATA     ---       SFRE5
      000000E6H   SYMBOL    DATA     ---       SFRE6
      000000E7H   SYMBOL    DATA     ---       SFRE7
      000000E8H   SYMBOL    DATA     ---       SFRE8
      000000E9H   SYMBOL    DATA     ---       SFRE9
      000000EAH   SYMBOL    DATA     ---       SFREA
      000000EBH   SYMBOL    DATA     ---       SFREB
      000000ECH   SYMBOL    DATA     ---       SFREC
      000000EDH   SYMBOL    DATA     ---       SFRED
      000000EEH   SYMBOL    DATA     ---       SFREE
      000000EFH   SYMBOL    DATA     ---       SFREF
      000000F0H   SYMBOL    DATA     ---       SFRF0
      000000F1H   SYMBOL    DATA     ---       SFRF1
      000000F2H   SYMBOL    DATA     ---       SFRF2
      000000F3H   SYMBOL    DATA     ---       SFRF3
      000000F4H   SYMBOL    DATA     ---       SFRF4
      000000F5H   SYMBOL    DATA     ---       SFRF5
      000000F6H   SYMBOL    DATA     ---       SFRF6
      000000F7H   SYMBOL    DATA     ---       SFRF7
      000000F8H   SYMBOL    DATA     ---       SFRF8
      000000F9H   SYMBOL    DATA     ---       SFRF9
      000000FAH   SYMBOL    DATA     ---       SFRFA
      000000FBH   SYMBOL    DATA     ---       SFRFB
      000000FCH   SYMBOL    DATA     ---       SFRFC
      000000FDH   SYMBOL    DATA     ---       SFRFD
      000000FEH   SYMBOL    DATA     ---       SFRFE
      000000FFH   SYMBOL    DATA     ---       SFRFF
      00000097H   SYMBOL    DATA     ---       SLEEP
      00000081H   SYMBOL    DATA     ---       SP
      0200067AH   SYMBOL    XDATA    ---       SRC?241
      02000682H   SYMBOL    XDATA    ---       SRC?344
      00000088H   SYMBOL    DATA     ---       TCON
      00000088H.5 SYMBOL    BIT      ---       TCON_TF0
      00000088H.4 SYMBOL    BIT      ---       TCON_TR0
      0000008CH   SYMBOL    DATA     ---       TH0
      0000008AH   SYMBOL    DATA     ---       TL0
      00000089H   SYMBOL    DATA     ---       TMOD
LX51 LINKER/LOCATER V3.51                                                             01/11/2013  15:44:20  PAGE 24


      000000DAH   SYMBOL    DATA     ---       UBRC
      000000D9H   SYMBOL    DATA     ---       UBUF
      000000DFH   SYMBOL    DATA     ---       UCR
      000000DEH   SYMBOL    DATA     ---       UCR2
      000000DDH   SYMBOL    DATA     ---       UCR3
      000000DCH   SYMBOL    DATA     ---       UIMSK
      000000D8H   SYMBOL    DATA     ---       USR
      000000D8H.0 SYMBOL    BIT      ---       USR_TBE
      000000DBH   SYMBOL    DATA     ---       VDCON
      000000A5H   SYMBOL    DATA     ---       WDTCON
      000000A6H   SYMBOL    DATA     ---       WDTRST

      0100692EH   BLOCK     CODE     ---       LVL=0
      0100692EH   LINE      CODE     ---       #269
      01006931H   LINE      CODE     ---       #273
      01006934H   LINE      CODE     ---       #285
      01006937H   LINE      CODE     ---       #288
      01006939H   LINE      CODE     ---       #293
      ---         BLOCKEND  ---      ---       LVL=0

      010068B1H   BLOCK     CODE     ---       LVL=0
      010068B1H   LINE      CODE     ---       #309
      010068B3H   LINE      CODE     ---       #312
      010068B6H   LINE      CODE     ---       #315
      010068B9H   LINE      CODE     ---       #318
      010068BCH   LINE      CODE     ---       #321
      010068BFH   LINE      CODE     ---       #325
      ---         BLOCKEND  ---      ---       LVL=0

      01005819H   BLOCK     CODE     ---       LVL=0
      01005819H   LINE      CODE     ---       #368
      0100581CH   LINE      CODE     ---       #369
      0100581FH   LINE      CODE     ---       #374
      01005822H   LINE      CODE     ---       #375
      01005823H   LINE      CODE     ---       #376
      01005824H   LINE      CODE     ---       #377
      01005825H   LINE      CODE     ---       #378
      01005827H   LINE      CODE     ---       #379
      01005829H   LINE      CODE     ---       #380
      0100582CH   LINE      CODE     ---       #385
      0100582FH   LINE      CODE     ---       #386
      01005830H   LINE      CODE     ---       #387
      01005831H   LINE      CODE     ---       #388
      01005832H   LINE      CODE     ---       #389
      0100583FH   LINE      CODE     ---       #405
      01005841H   LINE      CODE     ---       #407
      01005844H   LINE      CODE     ---       #409
      01005847H   LINE      CODE     ---       #411
      01005848H   LINE      CODE     ---       #413
      01005849H   LINE      CODE     ---       #415
      0100584AH   LINE      CODE     ---       #417
      0100584BH   LINE      CODE     ---       #419
      0100584CH   LINE      CODE     ---       #421
      0100584EH   LINE      CODE     ---       #423
      0100584FH   LINE      CODE     ---       #425
      01005852H   LINE      CODE     ---       #427
      01005853H   LINE      CODE     ---       #429
      01005854H   LINE      CODE     ---       #431
      01005855H   LINE      CODE     ---       #433
      01005856H   LINE      CODE     ---       #435
      01005858H   LINE      CODE     ---       #437
      0100585AH   LINE      CODE     ---       #439
      0100585CH   LINE      CODE     ---       #441
      0100585FH   LINE      CODE     ---       #443
      01005860H   LINE      CODE     ---       #445
LX51 LINKER/LOCATER V3.51                                                             01/11/2013  15:44:20  PAGE 25


      01005861H   LINE      CODE     ---       #447
      01005862H   LINE      CODE     ---       #449
      01005863H   LINE      CODE     ---       #451
      01005865H   LINE      CODE     ---       #453
      01005867H   LINE      CODE     ---       #455
      0100586AH   LINE      CODE     ---       #459
      0100586BH   LINE      CODE     ---       #461
      0100586CH   LINE      CODE     ---       #463
      0100586EH   LINE      CODE     ---       #465
      0100586FH   LINE      CODE     ---       #467
      01005870H   LINE      CODE     ---       #469
      01005872H   LINE      CODE     ---       #471
      01005874H   LINE      CODE     ---       #473
      01005876H   LINE      CODE     ---       #475
      01005878H   LINE      CODE     ---       #479
      01005879H   LINE      CODE     ---       #489
      0100587BH   LINE      CODE     ---       #491
      0100587EH   LINE      CODE     ---       #493
      01005881H   LINE      CODE     ---       #495
      01005882H   LINE      CODE     ---       #497
      01005883H   LINE      CODE     ---       #499
      01005884H   LINE      CODE     ---       #501
      01005885H   LINE      CODE     ---       #503
      01005886H   LINE      CODE     ---       #505
      01005888H   LINE      CODE     ---       #507
      01005889H   LINE      CODE     ---       #509
      0100588CH   LINE      CODE     ---       #511
      0100588DH   LINE      CODE     ---       #513
      0100588EH   LINE      CODE     ---       #515
      0100588FH   LINE      CODE     ---       #517
      01005890H   LINE      CODE     ---       #519
      01005892H   LINE      CODE     ---       #521
      01005894H   LINE      CODE     ---       #523
      01005896H   LINE      CODE     ---       #525
      01005899H   LINE      CODE     ---       #527
      0100589AH   LINE      CODE     ---       #529
      0100589BH   LINE      CODE     ---       #531
      0100589CH   LINE      CODE     ---       #533
      0100589DH   LINE      CODE     ---       #535
      0100589FH   LINE      CODE     ---       #537
      010058A1H   LINE      CODE     ---       #539
      010058A4H   LINE      CODE     ---       #543
      010058A5H   LINE      CODE     ---       #545
      010058A6H   LINE      CODE     ---       #547
      010058A7H   LINE      CODE     ---       #549
      010058A9H   LINE      CODE     ---       #551
      010058AAH   LINE      CODE     ---       #553
      010058ABH   LINE      CODE     ---       #555
      010058ADH   LINE      CODE     ---       #557
      010058AFH   LINE      CODE     ---       #559
      010058B1H   LINE      CODE     ---       #561
      010058B3H   LINE      CODE     ---       #565
      010058B4H   LINE      CODE     ---       #573
      010058B5H   LINE      CODE     ---       #579
      010058B7H   LINE      CODE     ---       #585
      ---         BLOCKEND  ---      ---       LVL=0

      0100437AH   BLOCK     CODE     ---       LVL=0
      0100437AH   LINE      CODE     ---       #602
      0100437DH   LINE      CODE     ---       #603
      01004380H   LINE      CODE     ---       #608
      01004383H   LINE      CODE     ---       #609
      01004384H   LINE      CODE     ---       #610
      01004385H   LINE      CODE     ---       #611
      01004386H   LINE      CODE     ---       #612
LX51 LINKER/LOCATER V3.51                                                             01/11/2013  15:44:20  PAGE 26


      01004388H   LINE      CODE     ---       #613
      0100438AH   LINE      CODE     ---       #614
      0100438DH   LINE      CODE     ---       #619
      01004390H   LINE      CODE     ---       #620
      01004391H   LINE      CODE     ---       #621
      01004392H   LINE      CODE     ---       #622
      01004393H   LINE      CODE     ---       #623
      010043A0H   LINE      CODE     ---       #639
      010043A2H   LINE      CODE     ---       #641
      010043A5H   LINE      CODE     ---       #643
      010043A8H   LINE      CODE     ---       #645
      010043A9H   LINE      CODE     ---       #647
      010043AAH   LINE      CODE     ---       #649
      010043ABH   LINE      CODE     ---       #651
      010043ACH   LINE      CODE     ---       #653
      010043ADH   LINE      CODE     ---       #655
      010043AFH   LINE      CODE     ---       #657
      010043B0H   LINE      CODE     ---       #659
      010043B3H   LINE      CODE     ---       #661
      010043B4H   LINE      CODE     ---       #663
      010043B5H   LINE      CODE     ---       #665
      010043B6H   LINE      CODE     ---       #667
      010043B7H   LINE      CODE     ---       #669
      010043B9H   LINE      CODE     ---       #671
      010043BBH   LINE      CODE     ---       #673
      010043BDH   LINE      CODE     ---       #675
      010043C0H   LINE      CODE     ---       #677
      010043C1H   LINE      CODE     ---       #679
      010043C2H   LINE      CODE     ---       #681
      010043C3H   LINE      CODE     ---       #683
      010043C4H   LINE      CODE     ---       #685
      010043C6H   LINE      CODE     ---       #687
      010043C8H   LINE      CODE     ---       #689
      010043CAH   LINE      CODE     ---       #693
      010043CBH   LINE      CODE     ---       #695
      010043CCH   LINE      CODE     ---       #697
      010043CDH   LINE      CODE     ---       #699
      010043CFH   LINE      CODE     ---       #701
      010043D0H   LINE      CODE     ---       #703
      010043D1H   LINE      CODE     ---       #705
      010043D3H   LINE      CODE     ---       #707
      010043D4H   LINE      CODE     ---       #709
      010043D5H   LINE      CODE     ---       #711
      010043D7H   LINE      CODE     ---       #713
      010043D9H   LINE      CODE     ---       #715
      010043DBH   LINE      CODE     ---       #717
      010043DCH   LINE      CODE     ---       #721
      010043DEH   LINE      CODE     ---       #723
      010043E0H   LINE      CODE     ---       #725
      010043E2H   LINE      CODE     ---       #729
      010043E5H   LINE      CODE     ---       #739
      010043E7H   LINE      CODE     ---       #741
      010043EAH   LINE      CODE     ---       #743
      010043EDH   LINE      CODE     ---       #745
      010043EEH   LINE      CODE     ---       #747
      010043EFH   LINE      CODE     ---       #749
      010043F0H   LINE      CODE     ---       #751
      010043F1H   LINE      CODE     ---       #753
      010043F2H   LINE      CODE     ---       #755
      010043F4H   LINE      CODE     ---       #757
      010043F5H   LINE      CODE     ---       #759
      010043F8H   LINE      CODE     ---       #761
      010043F9H   LINE      CODE     ---       #763
      010043FAH   LINE      CODE     ---       #765
      010043FBH   LINE      CODE     ---       #767
LX51 LINKER/LOCATER V3.51                                                             01/11/2013  15:44:20  PAGE 27


      010043FCH   LINE      CODE     ---       #769
      010043FEH   LINE      CODE     ---       #771
      01004400H   LINE      CODE     ---       #773
      01004402H   LINE      CODE     ---       #775
      01004405H   LINE      CODE     ---       #777
      01004406H   LINE      CODE     ---       #779
      01004407H   LINE      CODE     ---       #781
      01004408H   LINE      CODE     ---       #783
      01004409H   LINE      CODE     ---       #785
      0100440BH   LINE      CODE     ---       #787
      0100440DH   LINE      CODE     ---       #789
      0100440FH   LINE      CODE     ---       #793
      01004410H   LINE      CODE     ---       #795
      01004411H   LINE      CODE     ---       #797
      01004412H   LINE      CODE     ---       #799
      01004414H   LINE      CODE     ---       #801
      01004415H   LINE      CODE     ---       #803
      01004416H   LINE      CODE     ---       #805
      01004417H   LINE      CODE     ---       #807
      01004419H   LINE      CODE     ---       #809
      0100441AH   LINE      CODE     ---       #811
      0100441BH   LINE      CODE     ---       #813
      0100441DH   LINE      CODE     ---       #815
      0100441FH   LINE      CODE     ---       #817
      01004421H   LINE      CODE     ---       #819
      01004422H   LINE      CODE     ---       #823
      01004424H   LINE      CODE     ---       #825
      01004426H   LINE      CODE     ---       #827
      01004428H   LINE      CODE     ---       #831
      0100442BH   LINE      CODE     ---       #839
      0100442EH   LINE      CODE     ---       #843
      01004431H   LINE      CODE     ---       #844
      01004432H   LINE      CODE     ---       #845
      01004433H   LINE      CODE     ---       #846
      01004434H   LINE      CODE     ---       #847
      01004436H   LINE      CODE     ---       #848
      01004438H   LINE      CODE     ---       #849
      0100443BH   LINE      CODE     ---       #854
      0100443EH   LINE      CODE     ---       #855
      0100443FH   LINE      CODE     ---       #856
      01004440H   LINE      CODE     ---       #857
      01004441H   LINE      CODE     ---       #858
      0100444EH   LINE      CODE     ---       #874
      01004450H   LINE      CODE     ---       #876
      01004453H   LINE      CODE     ---       #878
      01004456H   LINE      CODE     ---       #880
      01004457H   LINE      CODE     ---       #882
      01004458H   LINE      CODE     ---       #884
      01004459H   LINE      CODE     ---       #886
      0100445AH   LINE      CODE     ---       #888
      0100445BH   LINE      CODE     ---       #890
      0100445DH   LINE      CODE     ---       #892
      0100445EH   LINE      CODE     ---       #894
      01004461H   LINE      CODE     ---       #896
      01004462H   LINE      CODE     ---       #898
      01004463H   LINE      CODE     ---       #900
      01004464H   LINE      CODE     ---       #902
      01004465H   LINE      CODE     ---       #904
      01004467H   LINE      CODE     ---       #906
      01004469H   LINE      CODE     ---       #908
      0100446BH   LINE      CODE     ---       #910
      0100446EH   LINE      CODE     ---       #912
      0100446FH   LINE      CODE     ---       #914
      01004470H   LINE      CODE     ---       #916
      01004471H   LINE      CODE     ---       #918
LX51 LINKER/LOCATER V3.51                                                             01/11/2013  15:44:20  PAGE 28


      01004472H   LINE      CODE     ---       #920
      01004474H   LINE      CODE     ---       #922
      01004476H   LINE      CODE     ---       #924
      01004478H   LINE      CODE     ---       #928
      01004479H   LINE      CODE     ---       #930
      0100447AH   LINE      CODE     ---       #932
      0100447BH   LINE      CODE     ---       #934
      0100447CH   LINE      CODE     ---       #936
      0100447EH   LINE      CODE     ---       #938
      0100447FH   LINE      CODE     ---       #940
      01004480H   LINE      CODE     ---       #942
      01004482H   LINE      CODE     ---       #944
      01004483H   LINE      CODE     ---       #946
      01004484H   LINE      CODE     ---       #948
      01004486H   LINE      CODE     ---       #950
      01004488H   LINE      CODE     ---       #952
      0100448AH   LINE      CODE     ---       #954
      0100448BH   LINE      CODE     ---       #958
      0100448DH   LINE      CODE     ---       #960
      0100448FH   LINE      CODE     ---       #962
      01004491H   LINE      CODE     ---       #966
      01004494H   LINE      CODE     ---       #976
      01004496H   LINE      CODE     ---       #978
      01004499H   LINE      CODE     ---       #980
      0100449CH   LINE      CODE     ---       #982
      0100449DH   LINE      CODE     ---       #984
      0100449EH   LINE      CODE     ---       #986
      0100449FH   LINE      CODE     ---       #988
      010044A0H   LINE      CODE     ---       #990
      010044A1H   LINE      CODE     ---       #992
      010044A3H   LINE      CODE     ---       #994
      010044A4H   LINE      CODE     ---       #996
      010044A7H   LINE      CODE     ---       #998
      010044A8H   LINE      CODE     ---       #1000
      010044A9H   LINE      CODE     ---       #1002
      010044AAH   LINE      CODE     ---       #1004
      010044ABH   LINE      CODE     ---       #1006
      010044ADH   LINE      CODE     ---       #1008
      010044AFH   LINE      CODE     ---       #1010
      010044B1H   LINE      CODE     ---       #1012
      010044B4H   LINE      CODE     ---       #1014
      010044B5H   LINE      CODE     ---       #1016
      010044B6H   LINE      CODE     ---       #1018
      010044B7H   LINE      CODE     ---       #1020
      010044B8H   LINE      CODE     ---       #1022
      010044BAH   LINE      CODE     ---       #1024
      010044BCH   LINE      CODE     ---       #1026
      010044BEH   LINE      CODE     ---       #1030
      010044BFH   LINE      CODE     ---       #1032
      010044C0H   LINE      CODE     ---       #1034
      010044C1H   LINE      CODE     ---       #1036
      010044C2H   LINE      CODE     ---       #1038
      010044C4H   LINE      CODE     ---       #1040
      010044C5H   LINE      CODE     ---       #1042
      010044C6H   LINE      CODE     ---       #1044
      010044C7H   LINE      CODE     ---       #1046
      010044C9H   LINE      CODE     ---       #1048
      010044CAH   LINE      CODE     ---       #1050
      010044CBH   LINE      CODE     ---       #1052
      010044CDH   LINE      CODE     ---       #1054
      010044CFH   LINE      CODE     ---       #1056
      010044D1H   LINE      CODE     ---       #1058
      010044D2H   LINE      CODE     ---       #1062
      010044D4H   LINE      CODE     ---       #1064
      010044D6H   LINE      CODE     ---       #1066
LX51 LINKER/LOCATER V3.51                                                             01/11/2013  15:44:20  PAGE 29


      010044D8H   LINE      CODE     ---       #1070
      010044DAH   LINE      CODE     ---       #1078
      010044DCH   LINE      CODE     ---       #1084
      010044DEH   LINE      CODE     ---       #1091
      010044E0H   LINE      CODE     ---       #1095
      ---         BLOCKEND  ---      ---       LVL=0

      ---         MODULE    ---      ---       ISO7816_MAIN
      0200030AH   PUBLIC    XDATA    BYTE      PPSFlag
      02000308H   PUBLIC    XDATA    WORD      Foffset
      02000108H   PUBLIC    XDATA    ---       FlashBuffer
      02000107H   PUBLIC    XDATA    BYTE      _iso7816_state
      02000106H   PUBLIC    XDATA    BYTE      SWptr
      02000000H   PUBLIC    XDATA    ---       iso7816_buffer
      01007371H   PUBLIC    CONST    ---       SW
      01007366H   PUBLIC    CONST    ---       ATR
      0100685CH   PUBLIC    CODE     ---       _TxStatus
      01006999H   PUBLIC    CODE     ---       CMMD_Handle
      010067B1H   PUBLIC    CODE     ---       _PPS_Handler
      0100695CH   PUBLIC    CODE     ---       _GSM_Handler
      0100680AH   PUBLIC    CODE     ---       _Command_Interpreter
      01005957H   PUBLIC    CODE     ---       RcvAPDU
      01006914H   PUBLIC    CODE     ---       Send_ATR
      01004B29H   PUBLIC    CODE     ---       ISO7816_main
      01006759H   PUBLIC    CODE     ---       ISO7816_case
      01006907H   PUBLIC    CODE     ---       ISO7816_init
      000000A8H   SFRSYM    DATA     BYTE      IE
      000000A8H.2 SFRSYM    DATA     BIT       IE_UART
      00000088H   SFRSYM    DATA     BYTE      TCON
      000000C0H   SFRSYM    DATA     BYTE      DESCTL
      000000E8H   SFRSYM    DATA     BYTE      FL_STS
      000000A8H.7 SFRSYM    DATA     BIT       IE_EA
      000000D8H   SFRSYM    DATA     BYTE      USR

      01006907H   BLOCK     CODE     ---       LVL=0
      01006907H   LINE      CODE     ---       #24
      01006907H   LINE      CODE     ---       #25
      0100690AH   LINE      CODE     ---       #26
      0100690CH   LINE      CODE     ---       #27
      0100690EH   LINE      CODE     ---       #28
      01006913H   LINE      CODE     ---       #29
      ---         BLOCKEND  ---      ---       LVL=0

      01006759H   BLOCK     CODE     ---       LVL=0
      01006759H   LINE      CODE     ---       #31
      01006759H   LINE      CODE     ---       #32
      01006765H   LINE      CODE     ---       #33
      01006765H   LINE      CODE     ---       #34
      0100676FH   LINE      CODE     ---       #35
      0100676FH   LINE      CODE     ---       #36
      01006779H   LINE      CODE     ---       #37
      01006779H   LINE      CODE     ---       #38
      0100677BH   LINE      CODE     ---       #39
      0100677BH   LINE      CODE     ---       #40
      0100677BH   LINE      CODE     ---       #41
      ---         BLOCKEND  ---      ---       LVL=0

      01004B29H   BLOCK     CODE     ---       LVL=0
      020004D9H   SYMBOL    XDATA    WORD      i
      00000004H   SYMBOL    DATA     WORD      len
      020004DBH   SYMBOL    XDATA    WORD      sw
      020004DDH   SYMBOL    XDATA    BYTE      ins
      01004B29H   LINE      CODE     ---       #44
      01004B29H   LINE      CODE     ---       #45
      01004B29H   LINE      CODE     ---       #46
LX51 LINKER/LOCATER V3.51                                                             01/11/2013  15:44:20  PAGE 30


      01004B30H   LINE      CODE     ---       #50
      01004B4BH   LINE      CODE     ---       #51
      01004B4BH   LINE      CODE     ---       #52
      01004B50H   LINE      CODE     ---       #53
      01004B53H   LINE      CODE     ---       #54
      01004B56H   LINE      CODE     ---       #55
      01004B56H   LINE      CODE     ---       #56
      01004B59H   LINE      CODE     ---       #57
      01004B59H   LINE      CODE     ---       #59
      01004B61H   LINE      CODE     ---       #60
      01004B6BH   LINE      CODE     ---       #61
      01004B73H   LINE      CODE     ---       #62
      01004B79H   LINE      CODE     ---       #63
      01004B7FH   LINE      CODE     ---       #64
      01004B87H   LINE      CODE     ---       #66
      01004B90H   LINE      CODE     ---       #68
      01004B98H   LINE      CODE     ---       #70
      01004BAEH   LINE      CODE     ---       #71
      01004BC0H   LINE      CODE     ---       #72
      01004BCCH   LINE      CODE     ---       #74
      01004BCCH   LINE      CODE     ---       #77
      01004BD2H   LINE      CODE     ---       #78
      01004BD3H   LINE      CODE     ---       #79
      01004BD3H   LINE      CODE     ---       #81
      01004BD3H   LINE      CODE     ---       #82
      01004BD3H   LINE      CODE     ---       #83
      01004BDBH   LINE      CODE     ---       #84
      01004BE1H   LINE      CODE     ---       #85
      01004BE2H   LINE      CODE     ---       #86
      01004BE2H   LINE      CODE     ---       #88
      01004BE2H   LINE      CODE     ---       #89
      01004BE2H   LINE      CODE     ---       #90
      01004BE9H   LINE      CODE     ---       #91
      01004BE9H   LINE      CODE     ---       #92
      01004BF0H   LINE      CODE     ---       #93
      01004BF2H   LINE      CODE     ---       #94
      01004BF2H   LINE      CODE     ---       #95
      01004BFBH   LINE      CODE     ---       #96
      01004C03H   LINE      CODE     ---       #97
      01004C14H   LINE      CODE     ---       #98
      01004C1DH   LINE      CODE     ---       #99
      01004C3FH   LINE      CODE     ---       #102
      01004C3FH   LINE      CODE     ---       #103
      01004C3FH   LINE      CODE     ---       #104
      01004C45H   LINE      CODE     ---       #105
      01004C45H   LINE      CODE     ---       #106
      01004C45H   LINE      CODE     ---       #107
      01004C45H   LINE      CODE     ---       #108
      01004C45H   LINE      CODE     ---       #129
      ---         BLOCKEND  ---      ---       LVL=0

      01006914H   BLOCK     CODE     ---       LVL=0
      01006914H   LINE      CODE     ---       #133
      01006914H   LINE      CODE     ---       #134
      01006914H   LINE      CODE     ---       #135
      ---         BLOCKEND  ---      ---       LVL=0

      01005957H   BLOCK     CODE     ---       LVL=0
      01005957H   LINE      CODE     ---       #140
      01005957H   LINE      CODE     ---       #141
      01005957H   LINE      CODE     ---       #142
      0100595FH   LINE      CODE     ---       #143
      01005962H   LINE      CODE     ---       #144
      01005962H   LINE      CODE     ---       #145
      01005968H   LINE      CODE     ---       #146
LX51 LINKER/LOCATER V3.51                                                             01/11/2013  15:44:20  PAGE 31


      0100596EH   LINE      CODE     ---       #147
      01005974H   LINE      CODE     ---       #148
      01005982H   LINE      CODE     ---       #149
      01005982H   LINE      CODE     ---       #150
      01005985H   LINE      CODE     ---       #151
      0100598BH   LINE      CODE     ---       #152
      0100598BH   LINE      CODE     ---       #153
      0100598DH   LINE      CODE     ---       #154
      01005993H   LINE      CODE     ---       #155
      01005993H   LINE      CODE     ---       #156
      01005999H   LINE      CODE     ---       #157
      0100599FH   LINE      CODE     ---       #158
      010059A5H   LINE      CODE     ---       #159
      010059ABH   LINE      CODE     ---       #161
      010059D0H   LINE      CODE     ---       #162
      010059D0H   LINE      CODE     ---       #163
      010059D8H   LINE      CODE     ---       #164
      010059E2H   LINE      CODE     ---       #165
      010059E2H   LINE      CODE     ---       #166
      010059E5H   LINE      CODE     ---       #167
      010059E5H   LINE      CODE     ---       #168
      010059E7H   LINE      CODE     ---       #169
      ---         BLOCKEND  ---      ---       LVL=0

      0100680AH   BLOCK     CODE     ---       LVL=0
      00000082H   SYMBOL    DATA     ---       buffer
      0100680AH   LINE      CODE     ---       #175
      0100680EH   LINE      CODE     ---       #176
      01006813H   LINE      CODE     ---       #179
      01006813H   LINE      CODE     ---       #180
      0100681AH   LINE      CODE     ---       #181
      0100681AH   LINE      CODE     ---       #182
      0100681EH   LINE      CODE     ---       #183
      0100681EH   LINE      CODE     ---       #184
      ---         BLOCKEND  ---      ---       LVL=0

      0100695CH   BLOCK     CODE     ---       LVL=0
      00000082H   SYMBOL    DATA     ---       buffer
      0100695CH   LINE      CODE     ---       #186
      01006960H   LINE      CODE     ---       #187
      01006960H   LINE      CODE     ---       #195
      01006960H   LINE      CODE     ---       #196
      01006964H   LINE      CODE     ---       #197
      01006964H   LINE      CODE     ---       #198
      ---         BLOCKEND  ---      ---       LVL=0

      010067B1H   BLOCK     CODE     ---       LVL=0
      00000006H   SYMBOL    DATA     ---       buffer
      010067B1H   LINE      CODE     ---       #200
      010067B1H   LINE      CODE     ---       #201
      010067BBH   LINE      CODE     ---       #202
      010067BBH   LINE      CODE     ---       #203
      010067BEH   LINE      CODE     ---       #204
      010067C3H   LINE      CODE     ---       #205
      010067C3H   LINE      CODE     ---       #206
      010067C7H   LINE      CODE     ---       #207
      010067C7H   LINE      CODE     ---       #208
      ---         BLOCKEND  ---      ---       LVL=0

      01006999H   BLOCK     CODE     ---       LVL=0
      01006999H   LINE      CODE     ---       #210
      01006999H   LINE      CODE     ---       #211
      01006999H   LINE      CODE     ---       #237
      ---         BLOCKEND  ---      ---       LVL=0

LX51 LINKER/LOCATER V3.51                                                             01/11/2013  15:44:20  PAGE 32


      0100685CH   BLOCK     CODE     ---       LVL=0
      00000007H   SYMBOL    DATA     BYTE      ptr
      0100685CH   LINE      CODE     ---       #241
      0100685CH   LINE      CODE     ---       #242
      0100685CH   LINE      CODE     ---       #243
      ---         BLOCKEND  ---      ---       LVL=0

      ---         MODULE    ---      ---       ISO7816_API
      01007306H   PUBLIC    CONST    ---       VectorTable
      01006201H   PUBLIC    CODE     ---       ReturnToBL
      0100665FH   PUBLIC    CODE     ---       _Random_Number_Generator
      0200069FH   PUBLIC    XDATA    BYTE      ?_DES_Operation?BYTE
      01001BF5H   PUBLIC    CODE     ---       _DES_Operation
      01003291H   PUBLIC    CODE     ---       _UpdateFlash
      01005E53H   PUBLIC    CODE     ---       _ReadFlash
      01006051H   PUBLIC    CODE     ---       _Erase_Pages
      02000687H   PUBLIC    XDATA    BYTE      ?_CalCRC?BYTE
      010062A1H   PUBLIC    CODE     ---       _CalCRC
      010067F4H   PUBLIC    CODE     ---       _SetBase
      010065FAH   PUBLIC    CODE     ---       _ISO_AutoTxNULL
      010067DEH   PUBLIC    CODE     ---       Sleep_Mode
      010068CFH   PUBLIC    CODE     ---       _Tx_Status
      010065C5H   PUBLIC    CODE     ---       _Tx_n_Bytes
      0100693AH   PUBLIC    CODE     ---       _send_byte
      010066BCH   PUBLIC    CODE     ---       _Rx_n_Bytes
      01006946H   PUBLIC    CODE     ---       receive_byte
      01006159H   PUBLIC    CODE     ---       _Set_PPS
      010063CBH   PUBLIC    CODE     ---       PPS
      01006921H   PUBLIC    CODE     ---       PPS_ACK
      010067C8H   PUBLIC    CODE     ---       _IoInit
      000000A8H   SFRSYM    DATA     BYTE      IE
      000000C0H.3 SFRSYM    DATA     BIT       DES_END
      000000C0H.5 SFRSYM    DATA     BIT       DES_DATEN
      000000DAH   SFRSYM    DATA     BYTE      UBRC
      000000C2H   SFRSYM    DATA     BYTE      CRCDAT
      000000D9H   SFRSYM    DATA     BYTE      UBUF
      00000088H   SFRSYM    DATA     BYTE      TCON
      000000C3H   SFRSYM    DATA     BYTE      MMU_SEL
      000000D8H   SFRSYM    DATA     BIT       USR_TBE
      00000086H   SFRSYM    DATA     BYTE      CLKCON
      000000C0H   SFRSYM    DATA     BYTE      DESCTL
      000000E2H   SFRSYM    DATA     BYTE      RNGDAT
      000000E1H   SFRSYM    DATA     BYTE      RNGCTL
      000000C0H   SFRSYM    DATA     BIT       DES_START
      000000F8H   SFRSYM    DATA     BYTE      DESD0
      000000F9H   SFRSYM    DATA     BYTE      DESD1
      000000FAH   SFRSYM    DATA     BYTE      DESD2
      000000FBH   SFRSYM    DATA     BYTE      DESD3
      000000FCH   SFRSYM    DATA     BYTE      DESD4
      000000FDH   SFRSYM    DATA     BYTE      DESD5
      000000FEH   SFRSYM    DATA     BYTE      DESD6
      000000FFH   SFRSYM    DATA     BYTE      DESD7
      000000C0H.1 SFRSYM    DATA     BIT       DES_MODE
      000000DFH   SFRSYM    DATA     BYTE      UCR
      000000E3H   SFRSYM    DATA     BYTE      FDCON
      000000C0H.6 SFRSYM    DATA     BIT       DES_KEY1EN
      000000C0H.7 SFRSYM    DATA     BIT       DES_KEY2EN
      000000E8H   SFRSYM    DATA     BYTE      FL_STS
      000000C0H.2 SFRSYM    DATA     BIT       DES_TDES
      000000B0H   SFRSYM    DATA     BYTE      rP3
      000000D8H   SFRSYM    DATA     BYTE      USR
      00000097H   SFRSYM    DATA     BYTE      SLEEP
      000000DBH   SFRSYM    DATA     BYTE      VDCON

      010067C8H   BLOCK     CODE     ---       LVL=0
LX51 LINKER/LOCATER V3.51                                                             01/11/2013  15:44:20  PAGE 33


      00000007H   SYMBOL    DATA     BYTE      FIDI
      010067C8H   LINE      CODE     ---       #16
      010067C8H   LINE      CODE     ---       #17
      010067C8H   LINE      CODE     ---       #18
      010067D7H   LINE      CODE     ---       #19
      010067D7H   LINE      CODE     ---       #20
      010067DAH   LINE      CODE     ---       #21
      010067DAH   LINE      CODE     ---       #22
      010067DDH   LINE      CODE     ---       #23
      ---         BLOCKEND  ---      ---       LVL=0

      01006921H   BLOCK     CODE     ---       LVL=0
      01006921H   LINE      CODE     ---       #29
      01006921H   LINE      CODE     ---       #30
      01006921H   LINE      CODE     ---       #31
      ---         BLOCKEND  ---      ---       LVL=0

      010063CBH   BLOCK     CODE     ---       LVL=0
      00000006H   SYMBOL    DATA     WORD      P12
      010063CBH   LINE      CODE     ---       #36
      010063CBH   LINE      CODE     ---       #37
      010063CBH   LINE      CODE     ---       #40
      010063DAH   LINE      CODE     ---       #41
      010063F4H   LINE      CODE     ---       #42
      010063F4H   LINE      CODE     ---       #43
      010063FBH   LINE      CODE     ---       #44
      01006402H   LINE      CODE     ---       #45
      01006409H   LINE      CODE     ---       #46
      01006411H   LINE      CODE     ---       #47
      01006411H   LINE      CODE     ---       #48
      01006411H   LINE      CODE     ---       #49
      ---         BLOCKEND  ---      ---       LVL=0

      01006159H   BLOCK     CODE     ---       LVL=0
      00000004H   SYMBOL    DATA     ---       buffer
      00000006H   SYMBOL    DATA     WORD      P12
      01006159H   LINE      CODE     ---       #53
      0100615DH   LINE      CODE     ---       #54
      0100615DH   LINE      CODE     ---       #56
      01006175H   LINE      CODE     ---       #57
      0100618FH   LINE      CODE     ---       #58
      0100618FH   LINE      CODE     ---       #59
      01006196H   LINE      CODE     ---       #60
      0100619DH   LINE      CODE     ---       #61
      010061A4H   LINE      CODE     ---       #62
      010061ACH   LINE      CODE     ---       #63
      010061ACH   LINE      CODE     ---       #64
      010061ACH   LINE      CODE     ---       #65
      ---         BLOCKEND  ---      ---       LVL=0

      01006946H   BLOCK     CODE     ---       LVL=0
      01006946H   LINE      CODE     ---       #69
      01006946H   LINE      CODE     ---       #70
      01006946H   LINE      CODE     ---       #71
      01006949H   LINE      CODE     ---       #72
      0100694EH   LINE      CODE     ---       #73
      0100694EH   LINE      CODE     ---       #74
      01006950H   LINE      CODE     ---       #75
      ---         BLOCKEND  ---      ---       LVL=0

      010066BCH   BLOCK     CODE     ---       LVL=0
      00000004H   SYMBOL    DATA     INT       n
      00000002H   SYMBOL    DATA     INT       i
      010066BCH   LINE      CODE     ---       #79
      010066C0H   LINE      CODE     ---       #80
LX51 LINKER/LOCATER V3.51                                                             01/11/2013  15:44:20  PAGE 34


      010066C0H   LINE      CODE     ---       #81
      010066C3H   LINE      CODE     ---       #83
      010066D0H   LINE      CODE     ---       #84
      010066E6H   LINE      CODE     ---       #85
      ---         BLOCKEND  ---      ---       LVL=0

      0100693AH   BLOCK     CODE     ---       LVL=0
      00000007H   SYMBOL    DATA     CHAR      c
      0100693AH   LINE      CODE     ---       #89
      0100693AH   LINE      CODE     ---       #90
      0100693AH   LINE      CODE     ---       #91
      0100693DH   LINE      CODE     ---       #92
      0100693FH   LINE      CODE     ---       #93
      01006942H   LINE      CODE     ---       #94
      01006942H   LINE      CODE     ---       #95
      01006945H   LINE      CODE     ---       #96
      ---         BLOCKEND  ---      ---       LVL=0

      010065C5H   BLOCK     CODE     ---       LVL=0
      020004DEH   SYMBOL    XDATA    WORD      n
      020004E0H   SYMBOL    XDATA    ---       databuf
      00000004H   SYMBOL    DATA     WORD      i
      010065C5H   LINE      CODE     ---       #100
      010065D1H   LINE      CODE     ---       #101
      010065D1H   LINE      CODE     ---       #104
      010065E1H   LINE      CODE     ---       #105
      010065F9H   LINE      CODE     ---       #106
      ---         BLOCKEND  ---      ---       LVL=0

      010068CFH   BLOCK     CODE     ---       LVL=0
      00000004H   SYMBOL    DATA     WORD      sw
      010068CFH   LINE      CODE     ---       #110
      010068D3H   LINE      CODE     ---       #111
      010068D3H   LINE      CODE     ---       #115
      010068D8H   LINE      CODE     ---       #116
      ---         BLOCKEND  ---      ---       LVL=0

      010067DEH   BLOCK     CODE     ---       LVL=0
      00000007H   SYMBOL    DATA     BYTE      backupVDCON
      00000006H   SYMBOL    DATA     BYTE      backupFDCON
      010067DEH   LINE      CODE     ---       #121
      010067DEH   LINE      CODE     ---       #122
      010067DEH   LINE      CODE     ---       #123
      010067E0H   LINE      CODE     ---       #124
      010067E2H   LINE      CODE     ---       #126
      010067E5H   LINE      CODE     ---       #127
      010067E7H   LINE      CODE     ---       #129
      010067EAH   LINE      CODE     ---       #131
      010067EBH   LINE      CODE     ---       #132
      010067ECH   LINE      CODE     ---       #133
      010067EDH   LINE      CODE     ---       #136
      010067EFH   LINE      CODE     ---       #137
      010067F3H   LINE      CODE     ---       #138
      ---         BLOCKEND  ---      ---       LVL=0

      010065FAH   BLOCK     CODE     ---       LVL=0
      00000007H   SYMBOL    DATA     BYTE      mode
      00000004H   SYMBOL    DATA     WORD      ETUcount
      010065FAH   LINE      CODE     ---       #142
      010065FAH   LINE      CODE     ---       #143
      010065FAH   LINE      CODE     ---       #144
      010065FFH   LINE      CODE     ---       #145
      010065FFH   LINE      CODE     ---       #146
      0100660AH   LINE      CODE     ---       #147
      01006613H   LINE      CODE     ---       #148
LX51 LINKER/LOCATER V3.51                                                             01/11/2013  15:44:20  PAGE 35


      0100661AH   LINE      CODE     ---       #149
      01006621H   LINE      CODE     ---       #150
      01006625H   LINE      CODE     ---       #151
      01006626H   LINE      CODE     ---       #153
      01006626H   LINE      CODE     ---       #154
      0100662DH   LINE      CODE     ---       #155
      0100662DH   LINE      CODE     ---       #156
      ---         BLOCKEND  ---      ---       LVL=0

      010067F4H   BLOCK     CODE     ---       LVL=0
      00000007H   SYMBOL    DATA     BYTE      BankNum
      010067F4H   LINE      CODE     ---       #160
      010067F4H   LINE      CODE     ---       #161
      010067F4H   LINE      CODE     ---       #162
      010067FAH   LINE      CODE     ---       #163
      010067FAH   LINE      CODE     ---       #164
      010067FDH   LINE      CODE     ---       #165
      010067FFH   LINE      CODE     ---       #166
      01006800H   LINE      CODE     ---       #168
      01006800H   LINE      CODE     ---       #169
      01006803H   LINE      CODE     ---       #170
      01006809H   LINE      CODE     ---       #171
      01006809H   LINE      CODE     ---       #172
      ---         BLOCKEND  ---      ---       LVL=0

      010062A1H   BLOCK     CODE     ---       LVL=0
      02000687H   SYMBOL    XDATA    ---       DstAddr
      0200068AH   SYMBOL    XDATA    ---       SrcAddr
      0200068DH   SYMBOL    XDATA    WORD      length
      010062A1H   LINE      CODE     ---       #176
      010062A7H   LINE      CODE     ---       #177
      010062A7H   LINE      CODE     ---       #178
      010062B1H   LINE      CODE     ---       #179
      010062B1H   LINE      CODE     ---       #180
      010062BEH   LINE      CODE     ---       #181
      010062C8H   LINE      CODE     ---       #182
      010062D2H   LINE      CODE     ---       #183
      010062D4H   LINE      CODE     ---       #185
      010062DFH   LINE      CODE     ---       #186
      ---         BLOCKEND  ---      ---       LVL=0

      01006051H   BLOCK     CODE     ---       LVL=0
      020006B4H   SYMBOL    XDATA    WORD      FlashAddr
      020006B6H   SYMBOL    XDATA    WORD      PageNum
      020006B8H   SYMBOL    XDATA    WORD      i
      01006051H   LINE      CODE     ---       #191
      0100605FH   LINE      CODE     ---       #192
      0100605FH   LINE      CODE     ---       #195
      01006079H   LINE      CODE     ---       #196
      01006079H   LINE      CODE     ---       #197
      01006089H   LINE      CODE     ---       #199
      01006094H   LINE      CODE     ---       #200
      01006097H   LINE      CODE     ---       #201
      01006097H   LINE      CODE     ---       #202
      0100609DH   LINE      CODE     ---       #203
      0100609DH   LINE      CODE     ---       #204
      010060A9H   LINE      CODE     ---       #205
      ---         BLOCKEND  ---      ---       LVL=0

      01005E53H   BLOCK     CODE     ---       LVL=0
      0200050FH   SYMBOL    XDATA    ---       ramAddr
      02000511H   SYMBOL    XDATA    WORD      FlashAddr
      02000513H   SYMBOL    XDATA    WORD      length
      01005E53H   LINE      CODE     ---       #209
      01005E67H   LINE      CODE     ---       #210
LX51 LINKER/LOCATER V3.51                                                             01/11/2013  15:44:20  PAGE 36


      01005E67H   LINE      CODE     ---       #211
      01005E6AH   LINE      CODE     ---       #212
      01005E72H   LINE      CODE     ---       #214
      01005E8EH   LINE      CODE     ---       #215
      01005EC1H   LINE      CODE     ---       #216
      ---         BLOCKEND  ---      ---       LVL=0

      01003291H   BLOCK     CODE     ---       LVL=0
      0200050FH   SYMBOL    XDATA    WORD      foffset
      02000511H   SYMBOL    XDATA    ---       RAMbuf
      02000513H   SYMBOL    XDATA    BYTE      length
      02000514H   SYMBOL    XDATA    WORD      FlashAddr
      00000004H   SYMBOL    DATA     WORD      FlashAddrEnd
      02000516H   SYMBOL    XDATA    WORD      dataleft
      02000518H   SYMBOL    XDATA    WORD      toUpdate
      01003291H   LINE      CODE     ---       #220
      010032A3H   LINE      CODE     ---       #221
      010032A3H   LINE      CODE     ---       #223
      010032AEH   LINE      CODE     ---       #225
      010032BEH   LINE      CODE     ---       #226
      010032D0H   LINE      CODE     ---       #230
      010032DFH   LINE      CODE     ---       #231
      010032DFH   LINE      CODE     ---       #232
      0100330BH   LINE      CODE     ---       #234
      0100330BH   LINE      CODE     ---       #238
      01003320H   LINE      CODE     ---       #239
      01003320H   LINE      CODE     ---       #242
      0100332AH   LINE      CODE     ---       #243
      01003334H   LINE      CODE     ---       #245
      0100334FH   LINE      CODE     ---       #246
      0100334FH   LINE      CODE     ---       #247
      01003371H   LINE      CODE     ---       #249
      01003393H   LINE      CODE     ---       #251
      010033CBH   LINE      CODE     ---       #253
      010033DBH   LINE      CODE     ---       #254
      010033DBH   LINE      CODE     ---       #255
      010033DDH   LINE      CODE     ---       #257
      010033DDH   LINE      CODE     ---       #258
      010033F5H   LINE      CODE     ---       #259
      010033F5H   LINE      CODE     ---       #260
      010033FCH   LINE      CODE     ---       #262
      010033FCH   LINE      CODE     ---       #264
      01003429H   LINE      CODE     ---       #265
      01003429H   LINE      CODE     ---       #266
      01003430H   LINE      CODE     ---       #268
      01003430H   LINE      CODE     ---       #270
      01003443H   LINE      CODE     ---       #271
      0100344EH   LINE      CODE     ---       #272
      01003466H   LINE      CODE     ---       #273
      01003466H   LINE      CODE     ---       #275
      01003466H   LINE      CODE     ---       #276
      0100346CH   LINE      CODE     ---       #277
      0100346CH   LINE      CODE     ---       #278
      ---         BLOCKEND  ---      ---       LVL=0

      01001BF5H   BLOCK     CODE     ---       LVL=0
      00000007H   SYMBOL    DATA     BYTE      mode
      00000006H   SYMBOL    DATA     BYTE      oper
      020006A1H   SYMBOL    XDATA    ---       desdata
      020006A4H   SYMBOL    XDATA    WORD      len
      01001BF5H   LINE      CODE     ---       #285
      01001BFDH   LINE      CODE     ---       #286
      01001BFDH   LINE      CODE     ---       #288
      01001C08H   LINE      CODE     ---       #289
      01001C0BH   LINE      CODE     ---       #290
LX51 LINKER/LOCATER V3.51                                                             01/11/2013  15:44:20  PAGE 37


      01001C13H   LINE      CODE     ---       #291
      01001C13H   LINE      CODE     ---       #292
      01001C16H   LINE      CODE     ---       #293
      01001C18H   LINE      CODE     ---       #294
      01001C34H   LINE      CODE     ---       #295
      01001C4AH   LINE      CODE     ---       #296
      01001C60H   LINE      CODE     ---       #297
      01001C76H   LINE      CODE     ---       #298
      01001C8CH   LINE      CODE     ---       #299
      01001CA2H   LINE      CODE     ---       #300
      01001CB8H   LINE      CODE     ---       #301
      01001CCEH   LINE      CODE     ---       #302
      01001CD0H   LINE      CODE     ---       #304
      01001CD8H   LINE      CODE     ---       #305
      01001CD8H   LINE      CODE     ---       #306
      01001CDAH   LINE      CODE     ---       #307
      01001CF6H   LINE      CODE     ---       #308
      01001D0CH   LINE      CODE     ---       #309
      01001D22H   LINE      CODE     ---       #310
      01001D38H   LINE      CODE     ---       #311
      01001D4EH   LINE      CODE     ---       #312
      01001D64H   LINE      CODE     ---       #313
      01001D7AH   LINE      CODE     ---       #314
      01001D90H   LINE      CODE     ---       #315
      01001D92H   LINE      CODE     ---       #317
      01001D94H   LINE      CODE     ---       #318
      01001DAAH   LINE      CODE     ---       #319
      01001DC0H   LINE      CODE     ---       #320
      01001DD6H   LINE      CODE     ---       #321
      01001DECH   LINE      CODE     ---       #322
      01001E02H   LINE      CODE     ---       #323
      01001E18H   LINE      CODE     ---       #324
      01001E2EH   LINE      CODE     ---       #325
      01001E44H   LINE      CODE     ---       #326
      01001E46H   LINE      CODE     ---       #328
      01001E49H   LINE      CODE     ---       #329
      01001E4BH   LINE      CODE     ---       #330
      01001E4FH   LINE      CODE     ---       #331
      01001E51H   LINE      CODE     ---       #332
      01001E53H   LINE      CODE     ---       #333
      01001E56H   LINE      CODE     ---       #335
      01001E56H   LINE      CODE     ---       #336
      01001E59H   LINE      CODE     ---       #337
      01001E75H   LINE      CODE     ---       #338
      01001E8BH   LINE      CODE     ---       #339
      01001EA1H   LINE      CODE     ---       #340
      01001EB7H   LINE      CODE     ---       #341
      01001ECDH   LINE      CODE     ---       #342
      01001EE3H   LINE      CODE     ---       #343
      01001EF9H   LINE      CODE     ---       #344
      01001F0FH   LINE      CODE     ---       #345
      01001F12H   LINE      CODE     ---       #347
      01001F15H   LINE      CODE     ---       #348
      01001F17H   LINE      CODE     ---       #349
      01001F1BH   LINE      CODE     ---       #350
      01001F1DH   LINE      CODE     ---       #351
      01001F1FH   LINE      CODE     ---       #352
      01001F1FH   LINE      CODE     ---       #353
      01001F21H   LINE      CODE     ---       #354
      01001F24H   LINE      CODE     ---       #355
      01001F24H   LINE      CODE     ---       #356
      01001F24H   LINE      CODE     ---       #357
      01001F27H   LINE      CODE     ---       #358
      01001F27H   LINE      CODE     ---       #360
      01001F27H   LINE      CODE     ---       #361
LX51 LINKER/LOCATER V3.51                                                             01/11/2013  15:44:20  PAGE 38


      01001F2AH   LINE      CODE     ---       #362
      01001F46H   LINE      CODE     ---       #363
      01001F55H   LINE      CODE     ---       #364
      01001F6BH   LINE      CODE     ---       #365
      01001F7AH   LINE      CODE     ---       #366
      01001F90H   LINE      CODE     ---       #367
      01001F9FH   LINE      CODE     ---       #368
      01001FB5H   LINE      CODE     ---       #369
      01001FC4H   LINE      CODE     ---       #370
      01001FC6H   LINE      CODE     ---       #371
      01001FC9H   LINE      CODE     ---       #372
      01001FCBH   LINE      CODE     ---       #373
      01001FCBH   LINE      CODE     ---       #374
      ---         BLOCKEND  ---      ---       LVL=0

      0100665FH   BLOCK     CODE     ---       LVL=0
      00000001H   SYMBOL    DATA     ---       RNGBuf
      00000005H   SYMBOL    DATA     BYTE      length
      00000007H   SYMBOL    DATA     BYTE      WaitTime
      0100665FH   LINE      CODE     ---       #378
      0100665FH   LINE      CODE     ---       #379
      0100665FH   LINE      CODE     ---       #382
      01006662H   LINE      CODE     ---       #384
      01006668H   LINE      CODE     ---       #385
      01006668H   LINE      CODE     ---       #386
      0100666AH   LINE      CODE     ---       #387
      01006670H   LINE      CODE     ---       #388
      01006670H   LINE      CODE     ---       #389
      01006671H   LINE      CODE     ---       #390
      01006672H   LINE      CODE     ---       #391
      01006673H   LINE      CODE     ---       #392
      01006674H   LINE      CODE     ---       #393
      01006675H   LINE      CODE     ---       #395
      01006676H   LINE      CODE     ---       #396
      01006677H   LINE      CODE     ---       #397
      01006678H   LINE      CODE     ---       #398
      01006679H   LINE      CODE     ---       #399
      0100667AH   LINE      CODE     ---       #400
      0100667CH   LINE      CODE     ---       #401
      01006681H   LINE      CODE     ---       #402
      01006688H   LINE      CODE     ---       #403
      01006689H   LINE      CODE     ---       #404
      0100668BH   LINE      CODE     ---       #406
      0100668EH   LINE      CODE     ---       #407
      ---         BLOCKEND  ---      ---       LVL=0

      01006201H   BLOCK     CODE     ---       LVL=0
      01006201H   LINE      CODE     ---       #411
      01006201H   LINE      CODE     ---       #412
      01006201H   LINE      CODE     ---       #413
      01006204H   LINE      CODE     ---       #414
      01006207H   LINE      CODE     ---       #415
      0100620AH   LINE      CODE     ---       #416
      01006213H   LINE      CODE     ---       #417
      01006217H   LINE      CODE     ---       #418
      0100621AH   LINE      CODE     ---       #419
      01006225H   LINE      CODE     ---       #420
      01006243H   LINE      CODE     ---       #421
      ---         BLOCKEND  ---      ---       LVL=0

      ---         MODULE    ---      ---       ISO7816_INTERRUPT
      0100668FH   PUBLIC    CODE     ---       WDT_ISR
      01006990H   PUBLIC    CODE     ---       INT5_ISR
      0100698DH   PUBLIC    CODE     ---       FLASH_ISR
      0100698AH   PUBLIC    CODE     ---       INT3_ISR
LX51 LINKER/LOCATER V3.51                                                             01/11/2013  15:44:20  PAGE 39


      01005551H   PUBLIC    CODE     ---       UART_ISR
      01006987H   PUBLIC    CODE     ---       TMR0_ISR
      01006984H   PUBLIC    CODE     ---       DES_ISR
      000000A8H.3 SFRSYM    DATA     BIT       IE_INT3
      000000A8H   SFRSYM    DATA     BYTE      IE
      000000A8H.5 SFRSYM    DATA     BIT       IE_INT5
      000000A8H.1 SFRSYM    DATA     BIT       IE_TMR0
      000000A8H.2 SFRSYM    DATA     BIT       IE_UART
      000000D9H   SFRSYM    DATA     BYTE      UBUF
      00000088H   SFRSYM    DATA     BYTE      TCON
      000000C0H   SFRSYM    DATA     BYTE      DESCTL
      000000A8H   SFRSYM    DATA     BIT       IE_DES
      000000A8H.4 SFRSYM    DATA     BIT       IE_FLASH
      000000A8H.6 SFRSYM    DATA     BIT       IE_WDT
      000000E8H   SFRSYM    DATA     BYTE      FL_STS
      000000D8H   SFRSYM    DATA     BYTE      USR
      020006F4H   SYMBOL    XDATA    WORD      rcv_index

      01006984H   BLOCK     CODE     ---       LVL=0
      01006984H   LINE      CODE     ---       #8
      01006984H   LINE      CODE     ---       #10
      01006986H   LINE      CODE     ---       #12
      ---         BLOCKEND  ---      ---       LVL=0

      01006987H   BLOCK     CODE     ---       LVL=0
      01006987H   LINE      CODE     ---       #16
      01006987H   LINE      CODE     ---       #18
      01006989H   LINE      CODE     ---       #20
      ---         BLOCKEND  ---      ---       LVL=0

      01005551H   BLOCK     CODE     ---       LVL=0
      01005551H   LINE      CODE     ---       #28
      0100556EH   LINE      CODE     ---       #30
      01005570H   LINE      CODE     ---       #31
      0100557CH   LINE      CODE     ---       #32
      0100557CH   LINE      CODE     ---       #33
      01005595H   LINE      CODE     ---       #34
      010055A1H   LINE      CODE     ---       #35
      010055ADH   LINE      CODE     ---       #36
      010055AFH   LINE      CODE     ---       #37
      010055AFH   LINE      CODE     ---       #38
      010055B1H   LINE      CODE     ---       #39
      010055B3H   LINE      CODE     ---       #40
      010055B3H   LINE      CODE     ---       #41
      010055B3H   LINE      CODE     ---       #42
      010055B3H   LINE      CODE     ---       #43
      010055B5H   LINE      CODE     ---       #44
      010055B5H   LINE      CODE     ---       #45
      010055CEH   LINE      CODE     ---       #46
      010055DFH   LINE      CODE     ---       #47
      010055E5H   LINE      CODE     ---       #48
      010055ECH   LINE      CODE     ---       #49
      010055ECH   LINE      CODE     ---       #50
      010055ECH   LINE      CODE     ---       #51
      010055ECH   LINE      CODE     ---       #52
      010055EEH   LINE      CODE     ---       #54
      ---         BLOCKEND  ---      ---       LVL=0

      0100698AH   BLOCK     CODE     ---       LVL=0
      0100698AH   LINE      CODE     ---       #58
      0100698AH   LINE      CODE     ---       #60
      0100698CH   LINE      CODE     ---       #62
      ---         BLOCKEND  ---      ---       LVL=0

      0100698DH   BLOCK     CODE     ---       LVL=0
LX51 LINKER/LOCATER V3.51                                                             01/11/2013  15:44:20  PAGE 40


      0100698DH   LINE      CODE     ---       #66
      0100698DH   LINE      CODE     ---       #68
      0100698FH   LINE      CODE     ---       #70
      ---         BLOCKEND  ---      ---       LVL=0

      01006990H   BLOCK     CODE     ---       LVL=0
      01006990H   LINE      CODE     ---       #74
      01006990H   LINE      CODE     ---       #76
      01006992H   LINE      CODE     ---       #78
      ---         BLOCKEND  ---      ---       LVL=0

      0100668FH   BLOCK     CODE     ---       LVL=0
      0100668FH   LINE      CODE     ---       #82
      010066A0H   LINE      CODE     ---       #84
      010066A2H   LINE      CODE     ---       #85
      010066ABH   LINE      CODE     ---       #86
      010066ADH   LINE      CODE     ---       #88
      ---         BLOCKEND  ---      ---       LVL=0

      ---         MODULE    ---      ---       NORFLASH
      01005C05H   PUBLIC    CODE     ---       _Write_Bytes
      0100662EH   PUBLIC    CODE     ---       _Erase_Page
      000000E9H   SFRSYM    DATA     BYTE      FL_SDP1
      000000EAH   SFRSYM    DATA     BYTE      FL_SDP2
      000000A8H   SFRSYM    DATA     BYTE      IE
      000000E8H.2 SFRSYM    DATA     BIT       FL_STS_F_CHKFF_ERR
      000000E8H   SFRSYM    DATA     BIT       FL_STS_F_OVER
      00000088H   SFRSYM    DATA     BYTE      TCON
      000000C0H   SFRSYM    DATA     BYTE      DESCTL
      000000EBH   SFRSYM    DATA     BYTE      FL_CON
      000000E8H.1 SFRSYM    DATA     BIT       FL_STS_F_OP_ERR
      000000E8H   SFRSYM    DATA     BYTE      FL_STS
      000000D8H   SFRSYM    DATA     BYTE      USR

      0100662EH   BLOCK     CODE     ---       LVL=0
      00000082H   SYMBOL    DATA     ---       pDest
      00000007H   SYMBOL    DATA     BYTE      counter
      0100662EH   LINE      CODE     ---       #9
      01006632H   LINE      CODE     ---       #10
      01006632H   LINE      CODE     ---       #11
      01006634H   LINE      CODE     ---       #13
      01006637H   LINE      CODE     ---       #15
      01006637H   LINE      CODE     ---       #16
      0100663AH   LINE      CODE     ---       #17
      0100663DH   LINE      CODE     ---       #19
      01006640H   LINE      CODE     ---       #21
      01006643H   LINE      CODE     ---       #23
      01006645H   LINE      CODE     ---       #24
      01006648H   LINE      CODE     ---       #25
      01006648H   LINE      CODE     ---       #26
      0100664AH   LINE      CODE     ---       #27
      0100664DH   LINE      CODE     ---       #28
      0100664DH   LINE      CODE     ---       #29
      01006650H   LINE      CODE     ---       #30
      01006650H   LINE      CODE     ---       #31
      01006652H   LINE      CODE     ---       #33
      01006656H   LINE      CODE     ---       #34
      01006659H   LINE      CODE     ---       #36
      0100665AH   LINE      CODE     ---       #37
      0100665CH   LINE      CODE     ---       #38
      0100665CH   LINE      CODE     ---       #39
      0100665EH   LINE      CODE     ---       #40
      ---         BLOCKEND  ---      ---       LVL=0

      01005C05H   BLOCK     CODE     ---       LVL=0
LX51 LINKER/LOCATER V3.51                                                             01/11/2013  15:44:20  PAGE 41


      0200051AH   SYMBOL    XDATA    ---       pDest
      0200051CH   SYMBOL    XDATA    ---       pSrc
      0200051EH   SYMBOL    XDATA    WORD      len
      02000520H   SYMBOL    XDATA    WORD      i
      01005C05H   LINE      CODE     ---       #44
      01005C19H   LINE      CODE     ---       #45
      01005C19H   LINE      CODE     ---       #48
      01005C33H   LINE      CODE     ---       #49
      01005C33H   LINE      CODE     ---       #50
      01005C36H   LINE      CODE     ---       #51
      01005C39H   LINE      CODE     ---       #52
      01005C3CH   LINE      CODE     ---       #54
      01005C61H   LINE      CODE     ---       #56
      01005C64H   LINE      CODE     ---       #58
      01005C66H   LINE      CODE     ---       #59
      01005C69H   LINE      CODE     ---       #60
      01005C69H   LINE      CODE     ---       #61
      01005C6BH   LINE      CODE     ---       #62
      01005C6EH   LINE      CODE     ---       #63
      01005C6EH   LINE      CODE     ---       #64
      01005C7AH   LINE      CODE     ---       #65
      01005C7CH   LINE      CODE     ---       #66
      ---         BLOCKEND  ---      ---       LVL=0

      ---         MODULE    ---      ---       FILE
      020006C4H   PUBLIC    XDATA    WORD      _cur_ptr
      020006C2H   PUBLIC    XDATA    WORD      _cur_dir
      020006C0H   PUBLIC    XDATA    WORD      _cur_rec
      01005FF7H   PUBLIC    CODE     ---       _rehabilitate
      010060AAH   PUBLIC    CODE     ---       _invalidate
      01005496H   PUBLIC    CODE     ---       __remove
      020004E8H   PUBLIC    XDATA    BYTE      ?__createdirectory?BYTE
      01004E52H   PUBLIC    CODE     ---       __createdirectory
      020004E8H   PUBLIC    XDATA    BYTE      ?__createfilecyclic?BYTE
      010044E1H   PUBLIC    CODE     ---       __createfilecyclic
      020004E8H   PUBLIC    XDATA    BYTE      ?__createfilerec?BYTE
      01004632H   PUBLIC    CODE     ---       __createfilerec
      020004E8H   PUBLIC    XDATA    BYTE      ?__createfilebin?BYTE
      010048C9H   PUBLIC    CODE     ---       __createfilebin
      010068A0H   PUBLIC    CODE     ---       __writerec_prev
      0100688FH   PUBLIC    CODE     ---       __writerec_next
      020004E8H   PUBLIC    XDATA    BYTE      ?__writerec?BYTE
      0100289DH   PUBLIC    CODE     ---       __writerec
      010068C0H   PUBLIC    CODE     ---       __write_new_rec
      020004E8H   PUBLIC    XDATA    BYTE      ?__writebin?BYTE
      0100576AH   PUBLIC    CODE     ---       __writebin
      0100687EH   PUBLIC    CODE     ---       __readrec_prev
      0100686DH   PUBLIC    CODE     ---       __readrec_next
      020004E8H   PUBLIC    XDATA    BYTE      ?__readrec?BYTE
      01004A0FH   PUBLIC    CODE     ---       __readrec
      020004E8H   PUBLIC    XDATA    BYTE      ?__readbin?BYTE
      010056BBH   PUBLIC    CODE     ---       __readbin
      01004782H   PUBLIC    CODE     ---       __select
      01005215H   PUBLIC    CODE     ---       _file_check_status
      010059E8H   PUBLIC    CODE     ---       _file_find_entry
      01004D56H   PUBLIC    CODE     ---       _file_remove_entry
      01005141H   PUBLIC    CODE     ---       _file_add_entry
      0100677CH   PUBLIC    CODE     ---       file_get_current_header
      01006464H   PUBLIC    CODE     ---       _file_get_efheader
      01006396H   PUBLIC    CODE     ---       _file_get_dfheader
      010064A4H   PUBLIC    CODE     ---       _file_get_header
      000000A8H   SFRSYM    DATA     BYTE      IE
      00000088H   SFRSYM    DATA     BYTE      TCON
      000000C0H   SFRSYM    DATA     BYTE      DESCTL
      000000E8H   SFRSYM    DATA     BYTE      FL_STS
LX51 LINKER/LOCATER V3.51                                                             01/11/2013  15:44:20  PAGE 42


      000000D8H   SFRSYM    DATA     BYTE      USR

      01006499H   BLOCK     CODE     ---       LVL=0
      ---         BLOCKEND  ---      ---       LVL=0

      010064A4H   BLOCK     CODE     ---       LVL=0
      02000508H   SYMBOL    XDATA    WORD      address
      0200050AH   SYMBOL    XDATA    ---       newfile
      010064A4H   LINE      CODE     ---       #33
      010064ACH   LINE      CODE     ---       #35
      010064ACH   LINE      CODE     ---       #37
      010064BFH   LINE      CODE     ---       #38
      010064D2H   LINE      CODE     ---       #39
      010064D8H   LINE      CODE     ---       #40
      ---         BLOCKEND  ---      ---       LVL=0

      01006383H   BLOCK     CODE     ---       LVL=0
      ---         BLOCKEND  ---      ---       LVL=0

      01006396H   BLOCK     CODE     ---       LVL=0
      020004FEH   SYMBOL    XDATA    WORD      address
      02000500H   SYMBOL    XDATA    ---       newfile
      01006396H   LINE      CODE     ---       #45
      0100639EH   LINE      CODE     ---       #47
      0100639EH   LINE      CODE     ---       #49
      010063B1H   LINE      CODE     ---       #50
      010063C4H   LINE      CODE     ---       #51
      010063CAH   LINE      CODE     ---       #52
      ---         BLOCKEND  ---      ---       LVL=0

      01006456H   BLOCK     CODE     ---       LVL=0
      ---         BLOCKEND  ---      ---       LVL=0

      01006464H   BLOCK     CODE     ---       LVL=0
      020004F7H   SYMBOL    XDATA    WORD      address
      020004F9H   SYMBOL    XDATA    ---       newfile
      01006464H   LINE      CODE     ---       #57
      0100646CH   LINE      CODE     ---       #59
      0100646CH   LINE      CODE     ---       #61
      0100647FH   LINE      CODE     ---       #62
      01006492H   LINE      CODE     ---       #63
      01006498H   LINE      CODE     ---       #64
      ---         BLOCKEND  ---      ---       LVL=0

      0100677CH   BLOCK     CODE     ---       LVL=0
      0100677CH   LINE      CODE     ---       #66
      0100677CH   LINE      CODE     ---       #67
      01006791H   LINE      CODE     ---       #68
      01006794H   LINE      CODE     ---       #69
      01006794H   LINE      CODE     ---       #70
      01006797H   LINE      CODE     ---       #71
      ---         BLOCKEND  ---      ---       LVL=0

      0100513CH   BLOCK     CODE     ---       LVL=0
      ---         BLOCKEND  ---      ---       LVL=0

      01005141H   BLOCK     CODE     ---       LVL=0
      020004FEH   SYMBOL    XDATA    WORD      address
      02000500H   SYMBOL    XDATA    WORD      ptr
      02000502H   SYMBOL    XDATA    ---       head
      02000505H   SYMBOL    XDATA    ---       temp
      01005141H   LINE      CODE     ---       #77
      01005149H   LINE      CODE     ---       #82
      0100514FH   LINE      CODE     ---       #83
      01005158H   LINE      CODE     ---       #84
LX51 LINKER/LOCATER V3.51                                                             01/11/2013  15:44:20  PAGE 43


      01005162H   LINE      CODE     ---       #86
      01005179H   LINE      CODE     ---       #87
      0100517CH   LINE      CODE     ---       #88
      0100517CH   LINE      CODE     ---       #89
      0100517EH   LINE      CODE     ---       #91
      0100517EH   LINE      CODE     ---       #92
      01005189H   LINE      CODE     ---       #93
      01005193H   LINE      CODE     ---       #94
      010051A0H   LINE      CODE     ---       #95
      010051ACH   LINE      CODE     ---       #96
      010051B6H   LINE      CODE     ---       #98
      010051CDH   LINE      CODE     ---       #99
      010051E0H   LINE      CODE     ---       #100
      010051E0H   LINE      CODE     ---       #101
      010051E2H   LINE      CODE     ---       #103
      010051E2H   LINE      CODE     ---       #104
      010051F8H   LINE      CODE     ---       #105
      010051FAH   LINE      CODE     ---       #106
      01005207H   LINE      CODE     ---       #107
      01005214H   LINE      CODE     ---       #109
      ---         BLOCKEND  ---      ---       LVL=0

      01004D56H   BLOCK     CODE     ---       LVL=0
      020004F4H   SYMBOL    XDATA    WORD      address
      020004F6H   SYMBOL    XDATA    WORD      ptr
      020004F8H   SYMBOL    XDATA    ---       head
      020004FBH   SYMBOL    XDATA    ---       temp
      01004D56H   LINE      CODE     ---       #116
      01004D5EH   LINE      CODE     ---       #121
      01004D64H   LINE      CODE     ---       #122
      01004D6DH   LINE      CODE     ---       #123
      01004D81H   LINE      CODE     ---       #124
      01004D9EH   LINE      CODE     ---       #125
      01004DA1H   LINE      CODE     ---       #126
      01004DA1H   LINE      CODE     ---       #127
      01004DA3H   LINE      CODE     ---       #129
      01004DA3H   LINE      CODE     ---       #130
      01004DAFH   LINE      CODE     ---       #131
      01004DBCH   LINE      CODE     ---       #132
      01004DC9H   LINE      CODE     ---       #133
      01004DD5H   LINE      CODE     ---       #134
      01004DE9H   LINE      CODE     ---       #135
      01004E06H   LINE      CODE     ---       #136
      01004E19H   LINE      CODE     ---       #137
      01004E26H   LINE      CODE     ---       #138
      01004E2BH   LINE      CODE     ---       #140
      01004E2BH   LINE      CODE     ---       #141
      01004E41H   LINE      CODE     ---       #142
      01004E44H   LINE      CODE     ---       #143
      01004E51H   LINE      CODE     ---       #145
      ---         BLOCKEND  ---      ---       LVL=0

      010059E8H   BLOCK     CODE     ---       LVL=0
      020004F4H   SYMBOL    XDATA    WORD      fid
      020004F6H   SYMBOL    XDATA    WORD      ptr
      020004F8H   SYMBOL    XDATA    ---       head
      010059E8H   LINE      CODE     ---       #151
      010059F0H   LINE      CODE     ---       #155
      010059F9H   LINE      CODE     ---       #156
      010059FEH   LINE      CODE     ---       #157
      01005A08H   LINE      CODE     ---       #158
      01005A15H   LINE      CODE     ---       #159
      01005A21H   LINE      CODE     ---       #160
      01005A34H   LINE      CODE     ---       #161
      01005A41H   LINE      CODE     ---       #162
LX51 LINKER/LOCATER V3.51                                                             01/11/2013  15:44:20  PAGE 44


      01005A4AH   LINE      CODE     ---       #163
      01005A4AH   LINE      CODE     ---       #164
      01005A60H   LINE      CODE     ---       #165
      01005A62H   LINE      CODE     ---       #166
      01005A6FH   LINE      CODE     ---       #167
      01005A72H   LINE      CODE     ---       #168
      ---         BLOCKEND  ---      ---       LVL=0

      01005215H   BLOCK     CODE     ---       LVL=0
      00000001H   SYMBOL    DATA     ---       head
      00000005H   SYMBOL    DATA     BYTE      op
      020004F5H   SYMBOL    XDATA    BYTE      chv_no
      01005215H   LINE      CODE     ---       #170
      01005215H   LINE      CODE     ---       #172
      01005224H   LINE      CODE     ---       #173
      0100523CH   LINE      CODE     ---       #174
      0100523CH   LINE      CODE     ---       #175
      01005249H   LINE      CODE     ---       #176
      01005254H   LINE      CODE     ---       #177
      01005254H   LINE      CODE     ---       #178
      01005254H   LINE      CODE     ---       #179
      01005260H   LINE      CODE     ---       #180
      0100526AH   LINE      CODE     ---       #181
      0100526AH   LINE      CODE     ---       #182
      0100526AH   LINE      CODE     ---       #183
      01005276H   LINE      CODE     ---       #184
      01005283H   LINE      CODE     ---       #185
      0100528DH   LINE      CODE     ---       #186
      0100528DH   LINE      CODE     ---       #187
      0100528DH   LINE      CODE     ---       #188
      01005297H   LINE      CODE     ---       #189
      010052A3H   LINE      CODE     ---       #190
      010052A5H   LINE      CODE     ---       #191
      010052A5H   LINE      CODE     ---       #192
      010052B2H   LINE      CODE     ---       #193
      010052BDH   LINE      CODE     ---       #194
      010052BDH   LINE      CODE     ---       #195
      010052BDH   LINE      CODE     ---       #196
      010052CAH   LINE      CODE     ---       #197
      010052CAH   LINE      CODE     ---       #198
      010052CCH   LINE      CODE     ---       #199
      010052CCH   LINE      CODE     ---       #200
      010052CCH   LINE      CODE     ---       #201
      010052CCH   LINE      CODE     ---       #202
      010052CCH   LINE      CODE     ---       #203
      010052CCH   LINE      CODE     ---       #204
      010052CCH   LINE      CODE     ---       #205
      010052E0H   LINE      CODE     ---       #206
      010052E3H   LINE      CODE     ---       #207
      010052E3H   LINE      CODE     ---       #208
      010052E8H   LINE      CODE     ---       #209
      010052E8H   LINE      CODE     ---       #210
      010052ECH   LINE      CODE     ---       #211
      ---         BLOCKEND  ---      ---       LVL=0

      01004782H   BLOCK     CODE     ---       LVL=0
      020004E8H   SYMBOL    XDATA    WORD      fid
      020004EAH   SYMBOL    XDATA    ---       head
      020004EDH   SYMBOL    XDATA    WORD      ptr
      01004782H   LINE      CODE     ---       #213
      0100478AH   LINE      CODE     ---       #220
      01004791H   LINE      CODE     ---       #221
      0100479BH   LINE      CODE     ---       #222
      010047A5H   LINE      CODE     ---       #223
      010047A8H   LINE      CODE     ---       #224
LX51 LINKER/LOCATER V3.51                                                             01/11/2013  15:44:20  PAGE 45


      010047A8H   LINE      CODE     ---       #225
      010047B1H   LINE      CODE     ---       #226
      010047C7H   LINE      CODE     ---       #227
      010047DDH   LINE      CODE     ---       #228
      010047E6H   LINE      CODE     ---       #229
      010047EFH   LINE      CODE     ---       #230
      01004816H   LINE      CODE     ---       #231
      01004816H   LINE      CODE     ---       #233
      01004823H   LINE      CODE     ---       #234
      01004830H   LINE      CODE     ---       #235
      0100483CH   LINE      CODE     ---       #236
      01004850H   LINE      CODE     ---       #238
      01004860H   LINE      CODE     ---       #239
      01004878H   LINE      CODE     ---       #240
      01004878H   LINE      CODE     ---       #241
      01004878H   LINE      CODE     ---       #242
      01004880H   LINE      CODE     ---       #243
      01004887H   LINE      CODE     ---       #244
      0100488CH   LINE      CODE     ---       #245
      0100488CH   LINE      CODE     ---       #246
      01004899H   LINE      CODE     ---       #247
      0100489EH   LINE      CODE     ---       #248
      0100489EH   LINE      CODE     ---       #249
      0100489EH   LINE      CODE     ---       #250
      0100489EH   LINE      CODE     ---       #253
      0100489EH   LINE      CODE     ---       #254
      0100489EH   LINE      CODE     ---       #255
      010048B4H   LINE      CODE     ---       #256
      010048B7H   LINE      CODE     ---       #257
      010048C4H   LINE      CODE     ---       #258
      010048C8H   LINE      CODE     ---       #259
      ---         BLOCKEND  ---      ---       LVL=0

      010056BBH   BLOCK     CODE     ---       LVL=0
      020004E8H   SYMBOL    XDATA    WORD      offset
      020004EAH   SYMBOL    XDATA    ---       buffer
      020004EDH   SYMBOL    XDATA    WORD      size
      020004EFH   SYMBOL    XDATA    WORD      status
      020004F1H   SYMBOL    XDATA    ---       head
      010056BBH   LINE      CODE     ---       #261
      010056C7H   LINE      CODE     ---       #262
      010056CAH   LINE      CODE     ---       #264
      010056D3H   LINE      CODE     ---       #265
      010056E0H   LINE      CODE     ---       #266
      010056EAH   LINE      CODE     ---       #267
      01005725H   LINE      CODE     ---       #268
      01005754H   LINE      CODE     ---       #269
      01005761H   LINE      CODE     ---       #270
      01005769H   LINE      CODE     ---       #271
      ---         BLOCKEND  ---      ---       LVL=0

      01004A09H   BLOCK     CODE     ---       LVL=0
      ---         BLOCKEND  ---      ---       LVL=0

      01004A0FH   BLOCK     CODE     ---       LVL=0
      020004E8H   SYMBOL    XDATA    WORD      rec_no
      020004EAH   SYMBOL    XDATA    ---       buffer
      020004EDH   SYMBOL    XDATA    BYTE      size
      020004EEH   SYMBOL    XDATA    WORD      status
      020004F0H   SYMBOL    XDATA    WORD      total_rec
      020004F2H   SYMBOL    XDATA    ---       head
      01004A0FH   LINE      CODE     ---       #273
      01004A1BH   LINE      CODE     ---       #274
      01004A1EH   LINE      CODE     ---       #277
      01004A27H   LINE      CODE     ---       #278
LX51 LINKER/LOCATER V3.51                                                             01/11/2013  15:44:20  PAGE 46


      01004A34H   LINE      CODE     ---       #279
      01004A3EH   LINE      CODE     ---       #280
      01004A66H   LINE      CODE     ---       #281
      01004A89H   LINE      CODE     ---       #282
      01004A9AH   LINE      CODE     ---       #283
      01004AECH   LINE      CODE     ---       #284
      01004AFBH   LINE      CODE     ---       #285
      01004B08H   LINE      CODE     ---       #286
      01004B11H   LINE      CODE     ---       #287
      01004B11H   LINE      CODE     ---       #288
      01004B1BH   LINE      CODE     ---       #289
      01004B25H   LINE      CODE     ---       #290
      01004B28H   LINE      CODE     ---       #291
      ---         BLOCKEND  ---      ---       LVL=0

      0100686DH   BLOCK     CODE     ---       LVL=0
      00000001H   SYMBOL    DATA     ---       buffer
      00000005H   SYMBOL    DATA     BYTE      size
      00000006H   SYMBOL    DATA     WORD      rec_no
      0100686DH   LINE      CODE     ---       #293
      0100686DH   LINE      CODE     ---       #294
      0100687AH   LINE      CODE     ---       #295
      0100687DH   LINE      CODE     ---       #296
      ---         BLOCKEND  ---      ---       LVL=0

      0100687EH   BLOCK     CODE     ---       LVL=0
      00000001H   SYMBOL    DATA     ---       buffer
      00000005H   SYMBOL    DATA     BYTE      size
      00000006H   SYMBOL    DATA     WORD      rec_no
      0100687EH   LINE      CODE     ---       #298
      0100687EH   LINE      CODE     ---       #299
      0100688BH   LINE      CODE     ---       #300
      0100688EH   LINE      CODE     ---       #301
      ---         BLOCKEND  ---      ---       LVL=0

      0100576AH   BLOCK     CODE     ---       LVL=0
      020004E8H   SYMBOL    XDATA    WORD      offset
      020004EAH   SYMBOL    XDATA    ---       buffer
      020004EDH   SYMBOL    XDATA    WORD      size
      020004EFH   SYMBOL    XDATA    WORD      status
      020004F1H   SYMBOL    XDATA    ---       head
      0100576AH   LINE      CODE     ---       #303
      01005776H   LINE      CODE     ---       #304
      01005779H   LINE      CODE     ---       #306
      01005782H   LINE      CODE     ---       #307
      0100578FH   LINE      CODE     ---       #308
      01005799H   LINE      CODE     ---       #309
      010057D4H   LINE      CODE     ---       #310
      01005803H   LINE      CODE     ---       #311
      01005810H   LINE      CODE     ---       #312
      01005818H   LINE      CODE     ---       #313
      ---         BLOCKEND  ---      ---       LVL=0

      010068C0H   BLOCK     CODE     ---       LVL=0
      020006BAH   SYMBOL    XDATA    WORD      rec_no
      020006BCH   SYMBOL    XDATA    BYTE      size
      020006BDH   SYMBOL    XDATA    ---       buffer
      010068C0H   LINE      CODE     ---       #315
      ---         BLOCKEND  ---      ---       LVL=0

      01002897H   BLOCK     CODE     ---       LVL=0
      ---         BLOCKEND  ---      ---       LVL=0

      0100289DH   BLOCK     CODE     ---       LVL=0
      020004E8H   SYMBOL    XDATA    WORD      rec_no
LX51 LINKER/LOCATER V3.51                                                             01/11/2013  15:44:20  PAGE 47


      020004EAH   SYMBOL    XDATA    ---       buffer
      020004EDH   SYMBOL    XDATA    BYTE      size
      020004EEH   SYMBOL    XDATA    WORD      status
      020004F0H   SYMBOL    XDATA    WORD      total_rec
      020004F2H   SYMBOL    XDATA    ---       head
      0100289DH   LINE      CODE     ---       #319
      010028A9H   LINE      CODE     ---       #320
      010028ACH   LINE      CODE     ---       #323
      010028B5H   LINE      CODE     ---       #324
      010028C2H   LINE      CODE     ---       #325
      010028CCH   LINE      CODE     ---       #326
      010028ECH   LINE      CODE     ---       #327
      01002906H   LINE      CODE     ---       #328
      01002906H   LINE      CODE     ---       #329
      01002923H   LINE      CODE     ---       #330
      01002934H   LINE      CODE     ---       #331
      01002969H   LINE      CODE     ---       #332
      01002978H   LINE      CODE     ---       #333
      01002978H   LINE      CODE     ---       #334
      0100297BH   LINE      CODE     ---       #335
      0100297BH   LINE      CODE     ---       #336
      01002985H   LINE      CODE     ---       #337
      0100298EH   LINE      CODE     ---       #338
      01002991H   LINE      CODE     ---       #339
      01002991H   LINE      CODE     ---       #340
      010029B6H   LINE      CODE     ---       #341
      010029C9H   LINE      CODE     ---       #342
      010029FFH   LINE      CODE     ---       #343
      01002A3CH   LINE      CODE     ---       #344
      01002A53H   LINE      CODE     ---       #345
      01002A5BH   LINE      CODE     ---       #346
      01002A6EH   LINE      CODE     ---       #347
      01002A7BH   LINE      CODE     ---       #348
      01002A84H   LINE      CODE     ---       #349
      01002A84H   LINE      CODE     ---       #350
      01002A8EH   LINE      CODE     ---       #351
      01002A97H   LINE      CODE     ---       #352
      01002A9BH   LINE      CODE     ---       #353
      01002A9BH   LINE      CODE     ---       #354
      01002AA8H   LINE      CODE     ---       #355
      01002AB2H   LINE      CODE     ---       #356
      01002AB5H   LINE      CODE     ---       #357
      01002AB5H   LINE      CODE     ---       #358
      01002AB5H   LINE      CODE     ---       #359
      01002AB5H   LINE      CODE     ---       #360
      01002AB5H   LINE      CODE     ---       #361
      ---         BLOCKEND  ---      ---       LVL=0

      0100688FH   BLOCK     CODE     ---       LVL=0
      00000001H   SYMBOL    DATA     ---       buffer
      00000005H   SYMBOL    DATA     BYTE      size
      00000006H   SYMBOL    DATA     WORD      rec_no
      0100688FH   LINE      CODE     ---       #363
      0100688FH   LINE      CODE     ---       #364
      0100689CH   LINE      CODE     ---       #365
      0100689FH   LINE      CODE     ---       #366
      ---         BLOCKEND  ---      ---       LVL=0

      010068A0H   BLOCK     CODE     ---       LVL=0
      00000001H   SYMBOL    DATA     ---       buffer
      00000005H   SYMBOL    DATA     BYTE      size
      00000006H   SYMBOL    DATA     WORD      rec_no
      010068A0H   LINE      CODE     ---       #368
      010068A0H   LINE      CODE     ---       #369
      010068ADH   LINE      CODE     ---       #370
LX51 LINKER/LOCATER V3.51                                                             01/11/2013  15:44:20  PAGE 48


      010068B0H   LINE      CODE     ---       #371
      ---         BLOCKEND  ---      ---       LVL=0

      010048C9H   BLOCK     CODE     ---       LVL=0
      020004E8H   SYMBOL    XDATA    WORD      fid
      020004EAH   SYMBOL    XDATA    BYTE      ACC_READ
      020004EBH   SYMBOL    XDATA    BYTE      ACC_WRT
      020004ECH   SYMBOL    XDATA    BYTE      ACC_INC
      020004EDH   SYMBOL    XDATA    BYTE      ACC_INV
      020004EEH   SYMBOL    XDATA    BYTE      ACC_RHB
      020004EFH   SYMBOL    XDATA    ---       buffer
      020004F2H   SYMBOL    XDATA    WORD      size
      020004F4H   SYMBOL    XDATA    ---       head
      020004F7H   SYMBOL    XDATA    ---       dir
      020004FAH   SYMBOL    XDATA    DWORD     address
      010048C9H   LINE      CODE     ---       #373
      010048CCH   LINE      CODE     ---       #381
      010048D5H   LINE      CODE     ---       #382
      010048EFH   LINE      CODE     ---       #383
      01004902H   LINE      CODE     ---       #384
      01004916H   LINE      CODE     ---       #385
      01004925H   LINE      CODE     ---       #386
      0100492EH   LINE      CODE     ---       #387
      0100493EH   LINE      CODE     ---       #388
      01004946H   LINE      CODE     ---       #389
      01004956H   LINE      CODE     ---       #390
      0100495DH   LINE      CODE     ---       #391
      01004965H   LINE      CODE     ---       #392
      01004978H   LINE      CODE     ---       #393
      01004985H   LINE      CODE     ---       #394
      0100499AH   LINE      CODE     ---       #395
      010049A2H   LINE      CODE     ---       #396
      010049A9H   LINE      CODE     ---       #397
      010049B0H   LINE      CODE     ---       #398
      010049C3H   LINE      CODE     ---       #399
      010049D1H   LINE      CODE     ---       #400
      010049E4H   LINE      CODE     ---       #401
      010049F1H   LINE      CODE     ---       #402
      010049F7H   LINE      CODE     ---       #403
      01004A04H   LINE      CODE     ---       #404
      01004A08H   LINE      CODE     ---       #405
      ---         BLOCKEND  ---      ---       LVL=0

      01004632H   BLOCK     CODE     ---       LVL=0
      020004E8H   SYMBOL    XDATA    WORD      fid
      020004EAH   SYMBOL    XDATA    BYTE      ACC_READ
      020004EBH   SYMBOL    XDATA    BYTE      ACC_WRT
      020004ECH   SYMBOL    XDATA    BYTE      ACC_INC
      020004EDH   SYMBOL    XDATA    BYTE      ACC_INV
      020004EEH   SYMBOL    XDATA    BYTE      ACC_RHB
      020004EFH   SYMBOL    XDATA    BYTE      total_rec
      020004F0H   SYMBOL    XDATA    BYTE      rec_size
      020004F1H   SYMBOL    XDATA    ---       head
      020004F4H   SYMBOL    XDATA    ---       dir
      020004F7H   SYMBOL    XDATA    DWORD     address
      01004632H   LINE      CODE     ---       #407
      01004635H   LINE      CODE     ---       #415
      0100463EH   LINE      CODE     ---       #416
      0100465DH   LINE      CODE     ---       #417
      01004670H   LINE      CODE     ---       #418
      01004684H   LINE      CODE     ---       #419
      01004693H   LINE      CODE     ---       #420
      0100469CH   LINE      CODE     ---       #421
      010046ACH   LINE      CODE     ---       #422
      010046B4H   LINE      CODE     ---       #423
LX51 LINKER/LOCATER V3.51                                                             01/11/2013  15:44:20  PAGE 49


      010046CBH   LINE      CODE     ---       #424
      010046D2H   LINE      CODE     ---       #425
      010046DAH   LINE      CODE     ---       #426
      010046EDH   LINE      CODE     ---       #427
      010046FAH   LINE      CODE     ---       #428
      0100470FH   LINE      CODE     ---       #429
      01004717H   LINE      CODE     ---       #430
      0100471FH   LINE      CODE     ---       #431
      01004729H   LINE      CODE     ---       #432
      0100473CH   LINE      CODE     ---       #433
      0100474AH   LINE      CODE     ---       #434
      0100475DH   LINE      CODE     ---       #435
      01004763H   LINE      CODE     ---       #436
      01004770H   LINE      CODE     ---       #437
      0100477DH   LINE      CODE     ---       #438
      01004781H   LINE      CODE     ---       #439
      ---         BLOCKEND  ---      ---       LVL=0

      010044E1H   BLOCK     CODE     ---       LVL=0
      020004E8H   SYMBOL    XDATA    WORD      fid
      020004EAH   SYMBOL    XDATA    BYTE      ACC_READ
      020004EBH   SYMBOL    XDATA    BYTE      ACC_WRT
      020004ECH   SYMBOL    XDATA    BYTE      ACC_INC
      020004EDH   SYMBOL    XDATA    BYTE      ACC_INV
      020004EEH   SYMBOL    XDATA    BYTE      ACC_RHB
      020004EFH   SYMBOL    XDATA    BYTE      total_rec
      020004F0H   SYMBOL    XDATA    BYTE      rec_size
      020004F1H   SYMBOL    XDATA    ---       head
      020004F4H   SYMBOL    XDATA    ---       dir
      020004F7H   SYMBOL    XDATA    DWORD     address
      010044E1H   LINE      CODE     ---       #441
      010044E4H   LINE      CODE     ---       #449
      010044EDH   LINE      CODE     ---       #450
      0100450CH   LINE      CODE     ---       #451
      0100451FH   LINE      CODE     ---       #452
      01004533H   LINE      CODE     ---       #453
      01004542H   LINE      CODE     ---       #454
      0100454BH   LINE      CODE     ---       #455
      0100455BH   LINE      CODE     ---       #456
      01004563H   LINE      CODE     ---       #457
      0100457AH   LINE      CODE     ---       #458
      01004582H   LINE      CODE     ---       #459
      0100458AH   LINE      CODE     ---       #460
      0100459DH   LINE      CODE     ---       #461
      010045AAH   LINE      CODE     ---       #462
      010045BFH   LINE      CODE     ---       #463
      010045C7H   LINE      CODE     ---       #464
      010045CFH   LINE      CODE     ---       #465
      010045D9H   LINE      CODE     ---       #466
      010045ECH   LINE      CODE     ---       #467
      010045FAH   LINE      CODE     ---       #468
      0100460DH   LINE      CODE     ---       #469
      01004613H   LINE      CODE     ---       #470
      01004620H   LINE      CODE     ---       #471
      0100462DH   LINE      CODE     ---       #472
      01004631H   LINE      CODE     ---       #473
      ---         BLOCKEND  ---      ---       LVL=0

      01004E52H   BLOCK     CODE     ---       LVL=0
      020004E8H   SYMBOL    XDATA    WORD      fid
      020004EAH   SYMBOL    XDATA    ---       dirname
      020004EDH   SYMBOL    XDATA    BYTE      len_name
      020004EEH   SYMBOL    XDATA    ---       head
      020004F1H   SYMBOL    XDATA    ---       dir
      020004F4H   SYMBOL    XDATA    DWORD     address
LX51 LINKER/LOCATER V3.51                                                             01/11/2013  15:44:20  PAGE 50


      01004E52H   LINE      CODE     ---       #475
      01004E5EH   LINE      CODE     ---       #483
      01004E67H   LINE      CODE     ---       #484
      01004E77H   LINE      CODE     ---       #485
      01004E8AH   LINE      CODE     ---       #486
      01004E9EH   LINE      CODE     ---       #487
      01004EADH   LINE      CODE     ---       #488
      01004EB6H   LINE      CODE     ---       #489
      01004EC6H   LINE      CODE     ---       #490
      01004ECEH   LINE      CODE     ---       #491
      01004ED6H   LINE      CODE     ---       #492
      01004EDEH   LINE      CODE     ---       #493
      01004EE5H   LINE      CODE     ---       #494
      01004EECH   LINE      CODE     ---       #495
      01004EF4H   LINE      CODE     ---       #496
      01004F07H   LINE      CODE     ---       #497
      01004F15H   LINE      CODE     ---       #498
      01004F28H   LINE      CODE     ---       #499
      01004F2EH   LINE      CODE     ---       #500
      01004F3BH   LINE      CODE     ---       #501
      01004F48H   LINE      CODE     ---       #502
      01004F4CH   LINE      CODE     ---       #503
      ---         BLOCKEND  ---      ---       LVL=0

      01005496H   BLOCK     CODE     ---       LVL=0
      020004E8H   SYMBOL    XDATA    WORD      file_id
      020004EAH   SYMBOL    XDATA    ---       head
      020004EDH   SYMBOL    XDATA    ---       dir
      020004F0H   SYMBOL    XDATA    DWORD     address
      01005496H   LINE      CODE     ---       #505
      0100549CH   LINE      CODE     ---       #513
      010054A5H   LINE      CODE     ---       #514
      010054B9H   LINE      CODE     ---       #515
      010054B9H   LINE      CODE     ---       #516
      010054C2H   LINE      CODE     ---       #517
      010054C4H   LINE      CODE     ---       #518
      010054C4H   LINE      CODE     ---       #519
      010054D2H   LINE      CODE     ---       #520
      010054D2H   LINE      CODE     ---       #521
      010054D2H   LINE      CODE     ---       #522
      010054D2H   LINE      CODE     ---       #523
      010054D2H   LINE      CODE     ---       #524
      010054E6H   LINE      CODE     ---       #525
      010054F2H   LINE      CODE     ---       #526
      01005503H   LINE      CODE     ---       #527
      0100551CH   LINE      CODE     ---       #528
      01005527H   LINE      CODE     ---       #529
      01005532H   LINE      CODE     ---       #530
      0100553FH   LINE      CODE     ---       #531
      0100554CH   LINE      CODE     ---       #532
      01005550H   LINE      CODE     ---       #533
      ---         BLOCKEND  ---      ---       LVL=0

      010060AAH   BLOCK     CODE     ---       LVL=0
      020004E8H   SYMBOL    XDATA    WORD      status
      020004EAH   SYMBOL    XDATA    ---       head
      010060AAH   LINE      CODE     ---       #535
      010060AAH   LINE      CODE     ---       #536
      010060ADH   LINE      CODE     ---       #538
      010060B6H   LINE      CODE     ---       #539
      010060C3H   LINE      CODE     ---       #540
      010060CDH   LINE      CODE     ---       #541
      010060DAH   LINE      CODE     ---       #542
      010060EDH   LINE      CODE     ---       #543
      010060FAH   LINE      CODE     ---       #544
LX51 LINKER/LOCATER V3.51                                                             01/11/2013  15:44:20  PAGE 51


      01006102H   LINE      CODE     ---       #545
      ---         BLOCKEND  ---      ---       LVL=0

      01005FF7H   BLOCK     CODE     ---       LVL=0
      020004E8H   SYMBOL    XDATA    WORD      status
      020004EAH   SYMBOL    XDATA    ---       head
      01005FF7H   LINE      CODE     ---       #547
      01005FF7H   LINE      CODE     ---       #548
      01005FFAH   LINE      CODE     ---       #550
      01006003H   LINE      CODE     ---       #551
      01006010H   LINE      CODE     ---       #552
      0100601AH   LINE      CODE     ---       #553
      01006028H   LINE      CODE     ---       #554
      0100603BH   LINE      CODE     ---       #555
      01006048H   LINE      CODE     ---       #556
      01006050H   LINE      CODE     ---       #557
      ---         BLOCKEND  ---      ---       LVL=0

      ---         MODULE    ---      ---       FS
      0100408AH   PUBLIC    CODE     ---       _fs_dealloc
      01002331H   PUBLIC    CODE     ---       _fs_alloc
      0100346DH   PUBLIC    CODE     ---       _fs_format
      01005A73H   PUBLIC    CODE     ---       fs_init
      000000A8H   SFRSYM    DATA     BYTE      IE
      00000088H   SFRSYM    DATA     BYTE      TCON
      000000C0H   SFRSYM    DATA     BYTE      DESCTL
      000000E8H   SFRSYM    DATA     BYTE      FL_STS
      000000D8H   SFRSYM    DATA     BYTE      USR
      020006C6H   SYMBOL    XDATA    ---       _chunkroot

      01005A73H   BLOCK     CODE     ---       LVL=0
      020004E8H   SYMBOL    XDATA    ---       table
      01005A73H   LINE      CODE     ---       #23
      01005A73H   LINE      CODE     ---       #25
      01005A86H   LINE      CODE     ---       #26
      01005A94H   LINE      CODE     ---       #27
      01005AB5H   LINE      CODE     ---       #29
      01005AB5H   LINE      CODE     ---       #30
      01005ACBH   LINE      CODE     ---       #31
      01005ADAH   LINE      CODE     ---       #32
      01005AE7H   LINE      CODE     ---       #33
      01005AECH   LINE      CODE     ---       #34
      01005AECH   LINE      CODE     ---       #35
      01005AF9H   LINE      CODE     ---       #36
      01005AFDH   LINE      CODE     ---       #37
      ---         BLOCKEND  ---      ---       LVL=0

      0100346DH   BLOCK     CODE     ---       LVL=0
      020004E8H   SYMBOL    XDATA    DWORD     size
      020004ECH   SYMBOL    XDATA    ---       table
      020004EFH   SYMBOL    XDATA    ---       head
      020004F2H   SYMBOL    XDATA    WORD      address
      0100346DH   LINE      CODE     ---       #39
      01003473H   LINE      CODE     ---       #47
      01003486H   LINE      CODE     ---       #48
      01003491H   LINE      CODE     ---       #49
      0100349FH   LINE      CODE     ---       #50
      010034A7H   LINE      CODE     ---       #51
      010034AFH   LINE      CODE     ---       #52
      010034B7H   LINE      CODE     ---       #53
      010034BFH   LINE      CODE     ---       #54
      010034CBH   LINE      CODE     ---       #55
      010034D9H   LINE      CODE     ---       #56
      010034E0H   LINE      CODE     ---       #57
      010034E6H   LINE      CODE     ---       #58
LX51 LINKER/LOCATER V3.51                                                             01/11/2013  15:44:20  PAGE 52


      010034EDH   LINE      CODE     ---       #59
      010034F7H   LINE      CODE     ---       #60
      01003505H   LINE      CODE     ---       #61
      0100350CH   LINE      CODE     ---       #62
      01003512H   LINE      CODE     ---       #63
      01003521H   LINE      CODE     ---       #64
      01003530H   LINE      CODE     ---       #65
      0100353AH   LINE      CODE     ---       #66
      0100354DH   LINE      CODE     ---       #67
      01003559H   LINE      CODE     ---       #68
      01003568H   LINE      CODE     ---       #69
      01003571H   LINE      CODE     ---       #70
      0100357CH   LINE      CODE     ---       #71
      01003584H   LINE      CODE     ---       #72
      0100358CH   LINE      CODE     ---       #73
      01003594H   LINE      CODE     ---       #74
      0100359BH   LINE      CODE     ---       #75
      010035A2H   LINE      CODE     ---       #76
      010035AAH   LINE      CODE     ---       #77
      010035BDH   LINE      CODE     ---       #78
      010035CAH   LINE      CODE     ---       #79
      010035D7H   LINE      CODE     ---       #81
      010035F6H   LINE      CODE     ---       #82
      01003615H   LINE      CODE     ---       #83
      0100362EH   LINE      CODE     ---       #84
      ---         BLOCKEND  ---      ---       LVL=0

      01002331H   BLOCK     CODE     ---       LVL=0
      020004FEH   SYMBOL    XDATA    WORD      size
      02000500H   SYMBOL    XDATA    WORD      alloc_pos
      02000502H   SYMBOL    XDATA    WORD      alloc_pos_temp
      02000504H   SYMBOL    XDATA    WORD      candidate_pos
      02000506H   SYMBOL    XDATA    ---       alloc_ptr
      02000509H   SYMBOL    XDATA    ---       alloc_ptr_temp
      0200050CH   SYMBOL    XDATA    ---       candidate
      01002331H   LINE      CODE     ---       #94
      01002339H   LINE      CODE     ---       #99
      0100234CH   LINE      CODE     ---       #100
      0100235FH   LINE      CODE     ---       #101
      01002372H   LINE      CODE     ---       #102
      0100237BH   LINE      CODE     ---       #104
      0100239BH   LINE      CODE     ---       #110
      010023B2H   LINE      CODE     ---       #111
      010023B2H   LINE      CODE     ---       #112
      010023C2H   LINE      CODE     ---       #115
      010023D9H   LINE      CODE     ---       #116
      010023F0H   LINE      CODE     ---       #119
      01002407H   LINE      CODE     ---       #121
      01002415H   LINE      CODE     ---       #122
      0100242CH   LINE      CODE     ---       #123
      01002432H   LINE      CODE     ---       #124
      01002441H   LINE      CODE     ---       #125
      0100244CH   LINE      CODE     ---       #126
      01002465H   LINE      CODE     ---       #140
      01002472H   LINE      CODE     ---       #141
      0100247FH   LINE      CODE     ---       #142
      0100248CH   LINE      CODE     ---       #143
      01002499H   LINE      CODE     ---       #144
      01002499H   LINE      CODE     ---       #147
      010024A6H   LINE      CODE     ---       #148
      010024C8H   LINE      CODE     ---       #150
      010024DCH   LINE      CODE     ---       #151
      010024E7H   LINE      CODE     ---       #152
      0100252EH   LINE      CODE     ---       #159
      01002554H   LINE      CODE     ---       #164
LX51 LINKER/LOCATER V3.51                                                             01/11/2013  15:44:20  PAGE 53


      01002574H   LINE      CODE     ---       #165
      01002588H   LINE      CODE     ---       #166
      0100259FH   LINE      CODE     ---       #167
      010025ACH   LINE      CODE     ---       #168
      010025C1H   LINE      CODE     ---       #169
      010025D2H   LINE      CODE     ---       #170
      010025EBH   LINE      CODE     ---       #171
      01002604H   LINE      CODE     ---       #186
      01002611H   LINE      CODE     ---       #187
      0100261EH   LINE      CODE     ---       #188
      0100262BH   LINE      CODE     ---       #189
      01002639H   LINE      CODE     ---       #190
      01002639H   LINE      CODE     ---       #191
      01002639H   LINE      CODE     ---       #192
      ---         BLOCKEND  ---      ---       LVL=0

      0100408AH   BLOCK     CODE     ---       LVL=0
      020004F4H   SYMBOL    XDATA    WORD      address
      020004F6H   SYMBOL    XDATA    WORD      alloc_pos
      020004F8H   SYMBOL    XDATA    WORD      alloc_prev_pos
      020004FAH   SYMBOL    XDATA    WORD      alloc_next_pos
      020004FCH   SYMBOL    XDATA    ---       alloc_ptr
      020004FFH   SYMBOL    XDATA    ---       alloc_prev
      02000502H   SYMBOL    XDATA    ---       alloc_next
      0100408AH   LINE      CODE     ---       #200
      01004092H   LINE      CODE     ---       #210
      010040A5H   LINE      CODE     ---       #211
      010040B8H   LINE      CODE     ---       #212
      010040CBH   LINE      CODE     ---       #214
      010040E0H   LINE      CODE     ---       #215
      010040F1H   LINE      CODE     ---       #217
      01004108H   LINE      CODE     ---       #218
      01004119H   LINE      CODE     ---       #220
      0100412DH   LINE      CODE     ---       #221
      0100413EH   LINE      CODE     ---       #223
      0100414BH   LINE      CODE     ---       #224
      01004158H   LINE      CODE     ---       #225
      0100416BH   LINE      CODE     ---       #226
      0100416BH   LINE      CODE     ---       #228
      0100416BH   LINE      CODE     ---       #239
      01004177H   LINE      CODE     ---       #245
      01004177H   LINE      CODE     ---       #246
      0100418EH   LINE      CODE     ---       #247
      010041A2H   LINE      CODE     ---       #254
      010041A2H   LINE      CODE     ---       #255
      010041AEH   LINE      CODE     ---       #256
      010041BDH   LINE      CODE     ---       #257
      010041C6H   LINE      CODE     ---       #258
      010041D9H   LINE      CODE     ---       #259
      010041F2H   LINE      CODE     ---       #260
      0100420BH   LINE      CODE     ---       #265
      ---         BLOCKEND  ---      ---       LVL=0

      ---         MODULE    ---      ---       SECURITY
      020005F5H   PUBLIC    XDATA    ---       _chv_status
      020005EDH   PUBLIC    XDATA    ---       chv_padding
      010068EBH   PUBLIC    CODE     ---       _chv_get_status
      020004E8H   PUBLIC    XDATA    BYTE      ?_chv_change?BYTE
      01002EBDH   PUBLIC    CODE     ---       _chv_change
      020004E8H   PUBLIC    XDATA    BYTE      ?_chv_unblock?BYTE
      01003EFFH   PUBLIC    CODE     ---       _chv_unblock
      010039DAH   PUBLIC    CODE     ---       _chv_disable
      01003816H   PUBLIC    CODE     ---       _chv_enable
      01003D4FH   PUBLIC    CODE     ---       _chv_verify
      020004F4H   PUBLIC    XDATA    BYTE      ?_chv_create?BYTE
LX51 LINKER/LOCATER V3.51                                                             01/11/2013  15:44:20  PAGE 54


      0100420CH   PUBLIC    CODE     ---       _chv_create
      01005AFEH   PUBLIC    CODE     ---       chv_init
      000000A8H   SFRSYM    DATA     BYTE      IE
      00000088H   SFRSYM    DATA     BYTE      TCON
      000000C0H   SFRSYM    DATA     BYTE      DESCTL
      000000E8H   SFRSYM    DATA     BYTE      FL_STS
      000000D8H   SFRSYM    DATA     BYTE      USR

      01005AFEH   BLOCK     CODE     ---       LVL=0
      020006E7H   SYMBOL    XDATA    BYTE      i
      020006E8H   SYMBOL    XDATA    ---       chv
      01005AFEH   LINE      CODE     ---       #16
      01005AFEH   LINE      CODE     ---       #19
      01005B11H   LINE      CODE     ---       #20
      01005B20H   LINE      CODE     ---       #21
      01005B3CH   LINE      CODE     ---       #22
      01005B48H   LINE      CODE     ---       #23
      01005B5EH   LINE      CODE     ---       #24
      01005B60H   LINE      CODE     ---       #25
      01005B70H   LINE      CODE     ---       #26
      01005B70H   LINE      CODE     ---       #27
      01005B78H   LINE      CODE     ---       #28
      ---         BLOCKEND  ---      ---       LVL=0

      0100420CH   BLOCK     CODE     ---       LVL=0
      020004F4H   SYMBOL    XDATA    BYTE      chv_no
      020004F5H   SYMBOL    XDATA    ---       pin
      020004F8H   SYMBOL    XDATA    ---       puk
      020004FBH   SYMBOL    XDATA    BYTE      pin_max_retry
      020004FCH   SYMBOL    XDATA    BYTE      puk_max_retry
      020004FDH   SYMBOL    XDATA    ---       chv
      0100420CH   LINE      CODE     ---       #31
      01004215H   LINE      CODE     ---       #33
      0100421BH   LINE      CODE     ---       #34
      0100422EH   LINE      CODE     ---       #35
      01004239H   LINE      CODE     ---       #36
      01004246H   LINE      CODE     ---       #37
      01004275H   LINE      CODE     ---       #38
      010042B5H   LINE      CODE     ---       #39
      010042EAH   LINE      CODE     ---       #40
      0100432AH   LINE      CODE     ---       #41
      01004337H   LINE      CODE     ---       #42
      01004341H   LINE      CODE     ---       #43
      01004348H   LINE      CODE     ---       #44
      01004352H   LINE      CODE     ---       #45
      0100436DH   LINE      CODE     ---       #46
      ---         BLOCKEND  ---      ---       LVL=0

      01003D4FH   BLOCK     CODE     ---       LVL=0
      020004E8H   SYMBOL    XDATA    BYTE      chv_no
      020004E9H   SYMBOL    XDATA    ---       pin
      020004ECH   SYMBOL    XDATA    ---       chv
      01003D4FH   LINE      CODE     ---       #49
      01003D58H   LINE      CODE     ---       #51
      01003D5EH   LINE      CODE     ---       #52
      01003D6EH   LINE      CODE     ---       #53
      01003D73H   LINE      CODE     ---       #55
      01003D86H   LINE      CODE     ---       #56
      01003DA1H   LINE      CODE     ---       #57
      01003DB8H   LINE      CODE     ---       #58
      01003DD2H   LINE      CODE     ---       #59
      01003E0CH   LINE      CODE     ---       #60
      01003E19H   LINE      CODE     ---       #61
      01003E34H   LINE      CODE     ---       #62
      01003E43H   LINE      CODE     ---       #63
LX51 LINKER/LOCATER V3.51                                                             01/11/2013  15:44:20  PAGE 55


      01003E46H   LINE      CODE     ---       #64
      01003E54H   LINE      CODE     ---       #65
      01003E65H   LINE      CODE     ---       #66
      01003E7AH   LINE      CODE     ---       #67
      01003E97H   LINE      CODE     ---       #68
      01003EAFH   LINE      CODE     ---       #69
      01003EAFH   LINE      CODE     ---       #70
      01003EB1H   LINE      CODE     ---       #71
      01003EB1H   LINE      CODE     ---       #72
      01003ED2H   LINE      CODE     ---       #73
      01003EDFH   LINE      CODE     ---       #74
      01003EE2H   LINE      CODE     ---       #75
      01003EE2H   LINE      CODE     ---       #76
      01003EEFH   LINE      CODE     ---       #77
      01003EFEH   LINE      CODE     ---       #78
      ---         BLOCKEND  ---      ---       LVL=0

      01003816H   BLOCK     CODE     ---       LVL=0
      020004E8H   SYMBOL    XDATA    BYTE      chv_no
      020004E9H   SYMBOL    XDATA    ---       pin
      020004ECH   SYMBOL    XDATA    ---       chv
      01003816H   LINE      CODE     ---       #80
      0100381FH   LINE      CODE     ---       #82
      01003825H   LINE      CODE     ---       #83
      01003835H   LINE      CODE     ---       #84
      0100383AH   LINE      CODE     ---       #86
      0100384DH   LINE      CODE     ---       #87
      01003868H   LINE      CODE     ---       #88
      0100387FH   LINE      CODE     ---       #89
      01003899H   LINE      CODE     ---       #90
      010038D3H   LINE      CODE     ---       #91
      010038E0H   LINE      CODE     ---       #92
      010038F2H   LINE      CODE     ---       #93
      01003903H   LINE      CODE     ---       #94
      0100391EH   LINE      CODE     ---       #95
      01003921H   LINE      CODE     ---       #96
      0100392FH   LINE      CODE     ---       #97
      01003940H   LINE      CODE     ---       #98
      01003955H   LINE      CODE     ---       #99
      01003972H   LINE      CODE     ---       #100
      0100398AH   LINE      CODE     ---       #101
      0100398AH   LINE      CODE     ---       #102
      0100398CH   LINE      CODE     ---       #103
      0100398CH   LINE      CODE     ---       #104
      010039ADH   LINE      CODE     ---       #105
      010039BAH   LINE      CODE     ---       #106
      010039BDH   LINE      CODE     ---       #107
      010039BDH   LINE      CODE     ---       #108
      010039CAH   LINE      CODE     ---       #109
      010039D9H   LINE      CODE     ---       #110
      ---         BLOCKEND  ---      ---       LVL=0

      010039DAH   BLOCK     CODE     ---       LVL=0
      020004E8H   SYMBOL    XDATA    BYTE      chv_no
      020004E9H   SYMBOL    XDATA    ---       pin
      020004ECH   SYMBOL    XDATA    ---       chv
      010039DAH   LINE      CODE     ---       #112
      010039E3H   LINE      CODE     ---       #114
      010039E9H   LINE      CODE     ---       #115
      010039F9H   LINE      CODE     ---       #116
      010039FEH   LINE      CODE     ---       #118
      01003A11H   LINE      CODE     ---       #119
      01003A2CH   LINE      CODE     ---       #120
      01003A43H   LINE      CODE     ---       #121
      01003A5DH   LINE      CODE     ---       #122
LX51 LINKER/LOCATER V3.51                                                             01/11/2013  15:44:20  PAGE 56


      01003A97H   LINE      CODE     ---       #123
      01003AA4H   LINE      CODE     ---       #124
      01003AB6H   LINE      CODE     ---       #125
      01003AC7H   LINE      CODE     ---       #126
      01003AE2H   LINE      CODE     ---       #127
      01003AE5H   LINE      CODE     ---       #128
      01003AF3H   LINE      CODE     ---       #129
      01003B04H   LINE      CODE     ---       #130
      01003B19H   LINE      CODE     ---       #131
      01003B36H   LINE      CODE     ---       #132
      01003B4EH   LINE      CODE     ---       #133
      01003B4EH   LINE      CODE     ---       #134
      01003B50H   LINE      CODE     ---       #135
      01003B50H   LINE      CODE     ---       #136
      01003B71H   LINE      CODE     ---       #137
      01003B7EH   LINE      CODE     ---       #138
      01003B81H   LINE      CODE     ---       #139
      01003B81H   LINE      CODE     ---       #140
      01003B8EH   LINE      CODE     ---       #141
      01003B9DH   LINE      CODE     ---       #142
      ---         BLOCKEND  ---      ---       LVL=0

      01003EFFH   BLOCK     CODE     ---       LVL=0
      020004E8H   SYMBOL    XDATA    BYTE      chv_no
      020004E9H   SYMBOL    XDATA    ---       pin
      020004ECH   SYMBOL    XDATA    ---       puk
      020004EFH   SYMBOL    XDATA    ---       chv
      01003EFFH   LINE      CODE     ---       #144
      01003F08H   LINE      CODE     ---       #146
      01003F0EH   LINE      CODE     ---       #147
      01003F1EH   LINE      CODE     ---       #148
      01003F23H   LINE      CODE     ---       #150
      01003F36H   LINE      CODE     ---       #151
      01003F51H   LINE      CODE     ---       #152
      01003F68H   LINE      CODE     ---       #153
      01003F7CH   LINE      CODE     ---       #154
      01003F96H   LINE      CODE     ---       #155
      01003FD3H   LINE      CODE     ---       #156
      01003FDDH   LINE      CODE     ---       #157
      01003FEFH   LINE      CODE     ---       #158
      01004000H   LINE      CODE     ---       #159
      0100402FH   LINE      CODE     ---       #160
      01004045H   LINE      CODE     ---       #161
      01004047H   LINE      CODE     ---       #162
      01004052H   LINE      CODE     ---       #163
      0100406DH   LINE      CODE     ---       #164
      0100406DH   LINE      CODE     ---       #165
      0100407AH   LINE      CODE     ---       #166
      01004089H   LINE      CODE     ---       #167
      ---         BLOCKEND  ---      ---       LVL=0

      01002EBDH   BLOCK     CODE     ---       LVL=0
      020004E8H   SYMBOL    XDATA    BYTE      chv_no
      020004E9H   SYMBOL    XDATA    ---       old
      020004ECH   SYMBOL    XDATA    ---       new
      020004EFH   SYMBOL    XDATA    ---       chv
      01002EBDH   LINE      CODE     ---       #169
      01002EC6H   LINE      CODE     ---       #171
      01002ECCH   LINE      CODE     ---       #172
      01002EDCH   LINE      CODE     ---       #173
      01002EE1H   LINE      CODE     ---       #175
      01002EF4H   LINE      CODE     ---       #176
      01002F0FH   LINE      CODE     ---       #177
      01002F26H   LINE      CODE     ---       #178
      01002F40H   LINE      CODE     ---       #179
LX51 LINKER/LOCATER V3.51                                                             01/11/2013  15:44:20  PAGE 57


      01002F7AH   LINE      CODE     ---       #180
      01002F87H   LINE      CODE     ---       #181
      01002F9BH   LINE      CODE     ---       #182
      01002FCAH   LINE      CODE     ---       #183
      01002FEBH   LINE      CODE     ---       #184
      01002FEEH   LINE      CODE     ---       #185
      01002FFCH   LINE      CODE     ---       #186
      0100300DH   LINE      CODE     ---       #187
      01003022H   LINE      CODE     ---       #188
      0100303FH   LINE      CODE     ---       #189
      01003057H   LINE      CODE     ---       #190
      01003057H   LINE      CODE     ---       #191
      01003059H   LINE      CODE     ---       #192
      01003059H   LINE      CODE     ---       #193
      0100307AH   LINE      CODE     ---       #194
      01003087H   LINE      CODE     ---       #195
      0100308AH   LINE      CODE     ---       #196
      0100308AH   LINE      CODE     ---       #197
      01003097H   LINE      CODE     ---       #198
      010030A6H   LINE      CODE     ---       #199
      ---         BLOCKEND  ---      ---       LVL=0

      010068EBH   BLOCK     CODE     ---       LVL=0
      00000007H   SYMBOL    DATA     BYTE      chv_no
      010068EBH   LINE      CODE     ---       #201
      010068EBH   LINE      CODE     ---       #202
      010068ECH   LINE      CODE     ---       #203
      010068F8H   LINE      CODE     ---       #204
      ---         BLOCKEND  ---      ---       LVL=0

      ---         MODULE    ---      ---       MIDGARD
      02000319H   PUBLIC    XDATA    ---       alloc_buffer
      02000317H   PUBLIC    XDATA    ---       alloc_ptr_temp
      02000315H   PUBLIC    XDATA    ---       alloc_ptr
      02000313H   PUBLIC    XDATA    ---       _chunkroot
      02000311H   PUBLIC    XDATA    WORD      heap_end
      0200030FH   PUBLIC    XDATA    WORD      heap_start
      0200030DH   PUBLIC    XDATA    ---       alloc_prev
      0200030BH   PUBLIC    XDATA    ---       candidate
      01005609H   PUBLIC    CODE     ---       m_mem_dump
      01006798H   PUBLIC    CODE     ---       m_used_heap
      010058B8H   PUBLIC    CODE     ---       m_heap_space
      010053C2H   PUBLIC    CODE     ---       m_gc
      01005C7DH   PUBLIC    CODE     ---       _m_free_nd
      01003647H   PUBLIC    CODE     ---       _m_alloc_nd
      01005D6DH   PUBLIC    CODE     ---       _m_free
      01002AB6H   PUBLIC    CODE     ---       _m_alloc
      01006558H   PUBLIC    CODE     ---       m_init_alloc
      000000A8H   SFRSYM    DATA     BYTE      IE
      00000088H   SFRSYM    DATA     BYTE      TCON
      000000C0H   SFRSYM    DATA     BYTE      DESCTL
      000000E8H   SFRSYM    DATA     BYTE      FL_STS
      000000D8H   SFRSYM    DATA     BYTE      USR
      01006412H   SYMBOL    CODE     ---       _m_shift

      01006558H   BLOCK     CODE     ---       LVL=0
      01006558H   LINE      CODE     ---       #14
      01006558H   LINE      CODE     ---       #15
      01006558H   LINE      CODE     ---       #16
      01006562H   LINE      CODE     ---       #17
      01006576H   LINE      CODE     ---       #18
      ---         BLOCKEND  ---      ---       LVL=0

      01002AB6H   BLOCK     CODE     ---       LVL=0
      0200050FH   SYMBOL    XDATA    WORD      size
LX51 LINKER/LOCATER V3.51                                                             01/11/2013  15:44:20  PAGE 58


      01002AB6H   LINE      CODE     ---       #31
      01002ABEH   LINE      CODE     ---       #33
      01002ACBH   LINE      CODE     ---       #34
      01002AD0H   LINE      CODE     ---       #36
      01002AD0H   LINE      CODE     ---       #37
      01002AE6H   LINE      CODE     ---       #41
      01002B03H   LINE      CODE     ---       #42
      01002B1AH   LINE      CODE     ---       #45
      01002B5BH   LINE      CODE     ---       #46
      01002B5FH   LINE      CODE     ---       #47
      01002B5FH   LINE      CODE     ---       #48
      01002B7DH   LINE      CODE     ---       #49
      01002B8EH   LINE      CODE     ---       #50
      01002BABH   LINE      CODE     ---       #51
      01002BB7H   LINE      CODE     ---       #56
      01002BC8H   LINE      CODE     ---       #57
      01002BD2H   LINE      CODE     ---       #58
      01002BD2H   LINE      CODE     ---       #60
      01002BE2H   LINE      CODE     ---       #61
      01002BF5H   LINE      CODE     ---       #62
      01002C23H   LINE      CODE     ---       #64
      01002C49H   LINE      CODE     ---       #68
      01002C65H   LINE      CODE     ---       #69
      01002C7AH   LINE      CODE     ---       #70
      01002C91H   LINE      CODE     ---       #71
      01002CA4H   LINE      CODE     ---       #72
      01002CBBH   LINE      CODE     ---       #76
      01002CC2H   LINE      CODE     ---       #77
      01002CC2H   LINE      CODE     ---       #78
      01002CC2H   LINE      CODE     ---       #79
      ---         BLOCKEND  ---      ---       LVL=0

      01005D6DH   BLOCK     CODE     ---       LVL=0
      00000006H   SYMBOL    DATA     ---       ptr
      01005D6DH   LINE      CODE     ---       #81
      01005D6DH   LINE      CODE     ---       #82
      01005D7BH   LINE      CODE     ---       #83
      01005D97H   LINE      CODE     ---       #89
      01005DA7H   LINE      CODE     ---       #90
      01005DA8H   LINE      CODE     ---       #91
      01005DA8H   LINE      CODE     ---       #95
      01005DAAH   LINE      CODE     ---       #96
      01005DC7H   LINE      CODE     ---       #97
      01005DE0H   LINE      CODE     ---       #103
      01005DE0H   LINE      CODE     ---       #104
      ---         BLOCKEND  ---      ---       LVL=0

      01003647H   BLOCK     CODE     ---       LVL=0
      0200063CH   SYMBOL    XDATA    WORD      size
      0200063EH   SYMBOL    XDATA    ---       alloc_ptr
      02000641H   SYMBOL    XDATA    ---       alloc_ptr_temp
      02000644H   SYMBOL    XDATA    ---       candidate
      01003647H   LINE      CODE     ---       #106
      0100364FH   LINE      CODE     ---       #112
      01003661H   LINE      CODE     ---       #113
      0100366CH   LINE      CODE     ---       #115
      0100366CH   LINE      CODE     ---       #116
      0100367DH   LINE      CODE     ---       #117
      01003692H   LINE      CODE     ---       #118
      010036B1H   LINE      CODE     ---       #121
      010036C9H   LINE      CODE     ---       #122
      010036D8H   LINE      CODE     ---       #123
      010036F0H   LINE      CODE     ---       #124
      01003705H   LINE      CODE     ---       #125
      0100370BH   LINE      CODE     ---       #126
LX51 LINKER/LOCATER V3.51                                                             01/11/2013  15:44:20  PAGE 59


      0100370BH   LINE      CODE     ---       #128
      01003717H   LINE      CODE     ---       #129
      01003726H   LINE      CODE     ---       #130
      01003772H   LINE      CODE     ---       #132
      01003794H   LINE      CODE     ---       #133
      010037A4H   LINE      CODE     ---       #134
      010037B9H   LINE      CODE     ---       #135
      010037D4H   LINE      CODE     ---       #136
      010037E9H   LINE      CODE     ---       #137
      01003804H   LINE      CODE     ---       #138
      01003815H   LINE      CODE     ---       #139
      01003815H   LINE      CODE     ---       #140
      01003815H   LINE      CODE     ---       #141
      ---         BLOCKEND  ---      ---       LVL=0

      01005C7DH   BLOCK     CODE     ---       LVL=0
      00000001H   SYMBOL    DATA     ---       ptr
      020006CCH   SYMBOL    XDATA    ---       alloc_ptr
      020006CFH   SYMBOL    XDATA    ---       alloc_prev
      01005C7DH   LINE      CODE     ---       #143
      01005C7DH   LINE      CODE     ---       #148
      01005C8FH   LINE      CODE     ---       #149
      01005C9BH   LINE      CODE     ---       #151
      01005CC1H   LINE      CODE     ---       #152
      01005CC1H   LINE      CODE     ---       #153
      01005CC1H   LINE      CODE     ---       #154
      01005CC1H   LINE      CODE     ---       #155
      01005CD9H   LINE      CODE     ---       #156
      01005CF4H   LINE      CODE     ---       #159
      01005CF4H   LINE      CODE     ---       #160
      ---         BLOCKEND  ---      ---       LVL=0

      01006412H   BLOCK     CODE     ---       LVL=0
      020006A6H   SYMBOL    XDATA    ---       dst
      020006A9H   SYMBOL    XDATA    ---       src
      020006ACH   SYMBOL    XDATA    BYTE      size
      00000007H   SYMBOL    DATA     BYTE      i
      01006412H   LINE      CODE     ---       #162
      01006418H   LINE      CODE     ---       #163
      01006418H   LINE      CODE     ---       #164
      0100641AH   LINE      CODE     ---       #168
      01006424H   LINE      CODE     ---       #169
      01006445H   LINE      CODE     ---       #170
      01006447H   LINE      CODE     ---       #171
      01006455H   LINE      CODE     ---       #172
      ---         BLOCKEND  ---      ---       LVL=0

      010053C2H   BLOCK     CODE     ---       LVL=0
      020006D2H   SYMBOL    XDATA    ---       alloc_ptr
      020006D5H   SYMBOL    XDATA    ---       alloc_ptr_temp
      00000006H   SYMBOL    DATA     WORD      offset
      010053C2H   LINE      CODE     ---       #174
      010053C2H   LINE      CODE     ---       #179
      010053D4H   LINE      CODE     ---       #180
      010053DCH   LINE      CODE     ---       #187
      010053DFH   LINE      CODE     ---       #188
      010053EAH   LINE      CODE     ---       #189
      01005404H   LINE      CODE     ---       #190
      01005412H   LINE      CODE     ---       #192
      0100545AH   LINE      CODE     ---       #193
      01005469H   LINE      CODE     ---       #196
      01005469H   LINE      CODE     ---       #197
      01005469H   LINE      CODE     ---       #198
      01005477H   LINE      CODE     ---       #200
      01005477H   LINE      CODE     ---       #202
LX51 LINKER/LOCATER V3.51                                                             01/11/2013  15:44:20  PAGE 60


      01005483H   LINE      CODE     ---       #203
      01005492H   LINE      CODE     ---       #204
      01005495H   LINE      CODE     ---       #205
      ---         BLOCKEND  ---      ---       LVL=0

      010058B8H   BLOCK     CODE     ---       LVL=0
      0200068FH   SYMBOL    XDATA    ---       alloc_ptr
      02000692H   SYMBOL    XDATA    ---       alloc_ptr_temp
      00000006H   SYMBOL    DATA     WORD      offset
      02000695H   SYMBOL    XDATA    WORD      heap_space
      010058B8H   LINE      CODE     ---       #207
      010058B8H   LINE      CODE     ---       #211
      010058BFH   LINE      CODE     ---       #212
      010058D1H   LINE      CODE     ---       #213
      010058D9H   LINE      CODE     ---       #220
      010058DBH   LINE      CODE     ---       #221
      010058E6H   LINE      CODE     ---       #222
      01005900H   LINE      CODE     ---       #223
      01005912H   LINE      CODE     ---       #227
      01005920H   LINE      CODE     ---       #230
      01005920H   LINE      CODE     ---       #231
      01005920H   LINE      CODE     ---       #232
      0100592EH   LINE      CODE     ---       #233
      0100593AH   LINE      CODE     ---       #234
      0100593AH   LINE      CODE     ---       #236
      01005946H   LINE      CODE     ---       #237
      01005955H   LINE      CODE     ---       #238
      ---         BLOCKEND  ---      ---       LVL=0

      01006798H   BLOCK     CODE     ---       LVL=0
      01006798H   LINE      CODE     ---       #241
      01006798H   LINE      CODE     ---       #242
      010067B0H   LINE      CODE     ---       #243
      ---         BLOCKEND  ---      ---       LVL=0

      01005609H   BLOCK     CODE     ---       LVL=0
      020006D8H   SYMBOL    XDATA    ---       alloc_ptr
      020006DBH   SYMBOL    XDATA    BYTE      i
      020006DCH   SYMBOL    XDATA    BYTE      j
      01005609H   LINE      CODE     ---       #245
      01005609H   LINE      CODE     ---       #246
      01005609H   LINE      CODE     ---       #248
      0100560EH   LINE      CODE     ---       #250
      01005620H   LINE      CODE     ---       #251
      01005629H   LINE      CODE     ---       #252
      0100562EH   LINE      CODE     ---       #254
      0100562EH   LINE      CODE     ---       #255
      0100563CH   LINE      CODE     ---       #256
      01005645H   LINE      CODE     ---       #258
      01005645H   LINE      CODE     ---       #259
      01005672H   LINE      CODE     ---       #260
      01005678H   LINE      CODE     ---       #261
      0100567DH   LINE      CODE     ---       #262
      01005686H   LINE      CODE     ---       #263
      0100568BH   LINE      CODE     ---       #264
      01005694H   LINE      CODE     ---       #265
      010056A0H   LINE      CODE     ---       #266
      010056A9H   LINE      CODE     ---       #267
      010056A9H   LINE      CODE     ---       #269
      010056A9H   LINE      CODE     ---       #270
      010056B8H   LINE      CODE     ---       #271
      ---         BLOCKEND  ---      ---       LVL=0

      ---         MODULE    ---      ---       A3A8
      020004E8H   PUBLIC    XDATA    BYTE      ?_auth_A3A8?BYTE
LX51 LINKER/LOCATER V3.51                                                             01/11/2013  15:44:20  PAGE 61


      010016CBH   PUBLIC    CODE     ---       _auth_A3A8
      000000A8H   SFRSYM    DATA     BYTE      IE
      00000088H   SFRSYM    DATA     BYTE      TCON
      000000C0H   SFRSYM    DATA     BYTE      DESCTL
      000000E8H   SFRSYM    DATA     BYTE      FL_STS
      000000D8H   SFRSYM    DATA     BYTE      USR
      01006D7CH   SYMBOL    CONST    ---       table
      0100699CH   SYMBOL    CONST    ---       table_0
      01006B9CH   SYMBOL    CONST    ---       table_1
      01006C9CH   SYMBOL    CONST    ---       table_2
      01006D1CH   SYMBOL    CONST    ---       table_3
      01006D5CH   SYMBOL    CONST    ---       table_4

      010016CBH   BLOCK     CODE     ---       LVL=0
      020004E8H   SYMBOL    XDATA    ---       rand
      020004EBH   SYMBOL    XDATA    ---       key
      020004EEH   SYMBOL    XDATA    ---       simoutput
      02000439H   SYMBOL    XDATA    ---       x
      02000459H   SYMBOL    XDATA    ---       bt
      020004F1H   SYMBOL    XDATA    WORD      i
      020004F3H   SYMBOL    XDATA    WORD      j
      020004F5H   SYMBOL    XDATA    WORD      k
      020004F7H   SYMBOL    XDATA    WORD      l
      020004F9H   SYMBOL    XDATA    WORD      m
      020004FBH   SYMBOL    XDATA    WORD      n
      020004FDH   SYMBOL    XDATA    WORD      y
      00000004H   SYMBOL    DATA     WORD      z
      020004FFH   SYMBOL    XDATA    WORD      next_bt
      010016CBH   LINE      CODE     ---       #155
      010016D1H   LINE      CODE     ---       #156
      010016D1H   LINE      CODE     ---       #162
      010016EAH   LINE      CODE     ---       #163
      01001719H   LINE      CODE     ---       #166
      01001721H   LINE      CODE     ---       #168
      01001738H   LINE      CODE     ---       #169
      01001761H   LINE      CODE     ---       #171
      01001768H   LINE      CODE     ---       #172
      01001795H   LINE      CODE     ---       #173
      010017C7H   LINE      CODE     ---       #174
      010017FFH   LINE      CODE     ---       #175
      01001822H   LINE      CODE     ---       #176
      01001874H   LINE      CODE     ---       #177
      010018C1H   LINE      CODE     ---       #178
      0100190CH   LINE      CODE     ---       #179
      0100193AH   LINE      CODE     ---       #180
      0100196DH   LINE      CODE     ---       #182
      01001974H   LINE      CODE     ---       #183
      0100197BH   LINE      CODE     ---       #184
      010019E8H   LINE      CODE     ---       #186
      010019FAH   LINE      CODE     ---       #187
      01001A01H   LINE      CODE     ---       #188
      01001A10H   LINE      CODE     ---       #189
      01001A26H   LINE      CODE     ---       #190
      01001A4EH   LINE      CODE     ---       #191
      01001A89H   LINE      CODE     ---       #192
      01001A95H   LINE      CODE     ---       #193
      01001AAEH   LINE      CODE     ---       #194
      01001AC7H   LINE      CODE     ---       #205
      01001ADEH   LINE      CODE     ---       #206
      01001B22H   LINE      CODE     ---       #207
      01001B39H   LINE      CODE     ---       #208
      01001BA7H   LINE      CODE     ---       #210
      01001BC9H   LINE      CODE     ---       #211
      01001BD0H   LINE      CODE     ---       #213
      01001BF2H   LINE      CODE     ---       #215
LX51 LINKER/LOCATER V3.51                                                             01/11/2013  15:44:20  PAGE 62


      01001BF4H   LINE      CODE     ---       #216
      ---         BLOCKEND  ---      ---       LVL=0

      ---         MODULE    ---      ---       DES
      010070CEH   PUBLIC    CONST    ---       map8to7
      0100708EH   PUBLIC    CONST    ---       FinalPermuteMap
      0100706EH   PUBLIC    CONST    ---       PBox
      01006E6EH   PUBLIC    CONST    ---       SBox
      01006E3EH   PUBLIC    CONST    ---       DataExpansion
      01006E0EH   PUBLIC    CONST    ---       KeyCompression
      01006DFEH   PUBLIC    CONST    ---       KeyRotation
      01006DC6H   PUBLIC    CONST    ---       KeyPermuteMap
      01006D86H   PUBLIC    CONST    ---       InitialPermuteMap
      02000665H   PUBLIC    XDATA    BYTE      ?_decrypt_3DES?BYTE
      01006338H   PUBLIC    CODE     ---       _decrypt_3DES
      0200065CH   PUBLIC    XDATA    BYTE      ?_auth_3DES?BYTE
      010062EDH   PUBLIC    CODE     ---       _auth_3DES
      02000585H   PUBLIC    XDATA    BYTE      ?_decrypt_DEShash?BYTE
      01002CD2H   PUBLIC    CODE     ---       _decrypt_DEShash
      02000555H   PUBLIC    XDATA    BYTE      ?_auth_DEShash?BYTE
      010030B6H   PUBLIC    CODE     ---       _auth_DEShash
      02000617H   PUBLIC    XDATA    BYTE      ?_auth_DESkey8to7?BYTE
      01005CF5H   PUBLIC    CODE     ---       _auth_DESkey8to7
      01005048H   PUBLIC    CODE     ---       _KeyShift
      000000A8H   SFRSYM    DATA     BYTE      IE
      00000088H   SFRSYM    DATA     BYTE      TCON
      000000C0H   SFRSYM    DATA     BYTE      DESCTL
      000000E8H   SFRSYM    DATA     BYTE      FL_STS
      000000D8H   SFRSYM    DATA     BYTE      USR
      01003B9EH   SYMBOL    CODE     ---       _sbox
      01006252H   SYMBOL    CODE     ---       _xor
      01004C46H   SYMBOL    CODE     ---       _Permute

      01004C46H   BLOCK     CODE     ---       LVL=0
      020005FBH   SYMBOL    XDATA    ---       dst
      020005FEH   SYMBOL    XDATA    ---       src
      02000601H   SYMBOL    XDATA    ---       map
      02000603H   SYMBOL    XDATA    INT       mapsize
      02000605H   SYMBOL    XDATA    INT       bitcount
      02000607H   SYMBOL    XDATA    INT       i
      01004C46H   LINE      CODE     ---       #365
      01004C4CH   LINE      CODE     ---       #397
      01004C4CH   LINE      CODE     ---       #403
      01004C6FH   LINE      CODE     ---       #404
      01004C89H   LINE      CODE     ---       #407
      01004C9CH   LINE      CODE     ---       #408
      01004CBEH   LINE      CODE     ---       #409
      01004CBEH   LINE      CODE     ---       #410
      01004CFAH   LINE      CODE     ---       #411
      01004D48H   LINE      CODE     ---       #412
      01004D55H   LINE      CODE     ---       #413
      ---         BLOCKEND  ---      ---       LVL=0

      01005048H   BLOCK     CODE     ---       LVL=0
      02000697H   SYMBOL    XDATA    ---       key
      0200069AH   SYMBOL    XDATA    INT       numbits
      0200069CH   SYMBOL    XDATA    INT       i
      00000006H   SYMBOL    DATA     INT       j
      0200069EH   SYMBOL    XDATA    BYTE      keep
      01005048H   LINE      CODE     ---       #416
      01005056H   LINE      CODE     ---       #429
      01005056H   LINE      CODE     ---       #431
      0100505DH   LINE      CODE     ---       #435
      01005082H   LINE      CODE     ---       #436
      01005082H   LINE      CODE     ---       #441
LX51 LINKER/LOCATER V3.51                                                             01/11/2013  15:44:20  PAGE 63


      01005085H   LINE      CODE     ---       #442
      01005085H   LINE      CODE     ---       #443
      01005099H   LINE      CODE     ---       #444
      010050B5H   LINE      CODE     ---       #445
      010050C9H   LINE      CODE     ---       #446
      010050D4H   LINE      CODE     ---       #453
      010050E6H   LINE      CODE     ---       #454
      010050E6H   LINE      CODE     ---       #455
      010050F5H   LINE      CODE     ---       #456
      0100510AH   LINE      CODE     ---       #457
      0100510AH   LINE      CODE     ---       #462
      01005112H   LINE      CODE     ---       #463
      01005127H   LINE      CODE     ---       #468
      0100512EH   LINE      CODE     ---       #469
      0100513BH   LINE      CODE     ---       #470
      ---         BLOCKEND  ---      ---       LVL=0

      01003B9EH   BLOCK     CODE     ---       LVL=0
      02000609H   SYMBOL    XDATA    ---       dst
      0200060CH   SYMBOL    XDATA    ---       src
      0200060FH   SYMBOL    XDATA    INT       i
      01003BF3H   BLOCK     CODE     NEAR LAB  LVL=1
      02000611H   SYMBOL    XDATA    INT       j
      02000613H   SYMBOL    XDATA    INT       Snum
      02000615H   SYMBOL    XDATA    INT       bitnum
      ---         BLOCKEND  ---      ---       LVL=1
      01003B9EH   LINE      CODE     ---       #473
      01003BA4H   LINE      CODE     ---       #515
      01003BA4H   LINE      CODE     ---       #520
      01003BBDH   LINE      CODE     ---       #521
      01003BD7H   LINE      CODE     ---       #525
      01003BF3H   LINE      CODE     ---       #526
      01003BF3H   LINE      CODE     ---       #534
      01003C19H   LINE      CODE     ---       #535
      01003C19H   LINE      CODE     ---       #536
      01003C26H   LINE      CODE     ---       #537
      01003C6DH   LINE      CODE     ---       #538
      01003C83H   LINE      CODE     ---       #544
      01003C99H   LINE      CODE     ---       #545
      01003CEBH   LINE      CODE     ---       #547
      01003D41H   LINE      CODE     ---       #548
      01003D4EH   LINE      CODE     ---       #549
      ---         BLOCKEND  ---      ---       LVL=0

      01006252H   BLOCK     CODE     ---       LVL=0
      02000647H   SYMBOL    XDATA    ---       dst
      0200064AH   SYMBOL    XDATA    ---       a
      0200064DH   SYMBOL    XDATA    ---       b
      02000650H   SYMBOL    XDATA    INT       count
      00000006H   SYMBOL    DATA     INT       i
      01006252H   LINE      CODE     ---       #552
      01006258H   LINE      CODE     ---       #573
      01006258H   LINE      CODE     ---       #576
      0100626EH   LINE      CODE     ---       #577
      010062A0H   LINE      CODE     ---       #578
      ---         BLOCKEND  ---      ---       LVL=0

      01005CF5H   BLOCK     CODE     ---       LVL=0
      02000617H   SYMBOL    XDATA    ---       dst
      0200061AH   SYMBOL    XDATA    ---       key
      00000006H   SYMBOL    DATA     INT       i
      0200061DH   SYMBOL    XDATA    ---       tmp
      01005CF5H   LINE      CODE     ---       #585
      01005CFBH   LINE      CODE     ---       #616
      01005D11H   LINE      CODE     ---       #617
LX51 LINKER/LOCATER V3.51                                                             01/11/2013  15:44:20  PAGE 64


      01005D18H   LINE      CODE     ---       #619
      01005D3EH   LINE      CODE     ---       #620
      01005D41H   LINE      CODE     ---       #621
      01005D66H   LINE      CODE     ---       #623
      01005D6CH   LINE      CODE     ---       #624
      ---         BLOCKEND  ---      ---       LVL=0

      010030A7H   BLOCK     CODE     ---       LVL=0
      ---         BLOCKEND  ---      ---       LVL=0

      010030B6H   BLOCK     CODE     ---       LVL=0
      02000555H   SYMBOL    XDATA    ---       dst
      02000558H   SYMBOL    XDATA    ---       key
      0200055BH   SYMBOL    XDATA    ---       src
      0200055EH   SYMBOL    XDATA    INT       i
      02000560H   SYMBOL    XDATA    ---       K
      02000567H   SYMBOL    XDATA    ---       D
      00000006H   SYMBOL    DATA     INT       j
      0200056FH   SYMBOL    XDATA    ---       L
      02000572H   SYMBOL    XDATA    ---       R
      02000575H   SYMBOL    XDATA    ---       Rexp
      0200057BH   SYMBOL    XDATA    ---       Rn
      0200057FH   SYMBOL    XDATA    ---       SubK
      010030B6H   LINE      CODE     ---       #627
      010030BCH   LINE      CODE     ---       #671
      010030C8H   LINE      CODE     ---       #672
      010030D2H   LINE      CODE     ---       #679
      010030F8H   LINE      CODE     ---       #680
      0100311EH   LINE      CODE     ---       #685
      01003125H   LINE      CODE     ---       #686
      01003125H   LINE      CODE     ---       #691
      01003139H   LINE      CODE     ---       #692
      0100315DH   LINE      CODE     ---       #697
      01003183H   LINE      CODE     ---       #698
      010031A9H   LINE      CODE     ---       #706
      010031BCH   LINE      CODE     ---       #707
      010031E0H   LINE      CODE     ---       #708
      01003208H   LINE      CODE     ---       #713
      0100320BH   LINE      CODE     ---       #714
      0100320BH   LINE      CODE     ---       #715
      01003227H   LINE      CODE     ---       #716
      01003241H   LINE      CODE     ---       #717
      0100324CH   LINE      CODE     ---       #718
      0100326AH   LINE      CODE     ---       #728
      01003290H   LINE      CODE     ---       #730
      ---         BLOCKEND  ---      ---       LVL=0

      01002CC3H   BLOCK     CODE     ---       LVL=0
      ---         BLOCKEND  ---      ---       LVL=0

      01002CD2H   BLOCK     CODE     ---       LVL=0
      02000585H   SYMBOL    XDATA    ---       dst
      02000588H   SYMBOL    XDATA    ---       key
      0200058BH   SYMBOL    XDATA    ---       src
      0200058EH   SYMBOL    XDATA    INT       i
      02000590H   SYMBOL    XDATA    ---       K
      02000597H   SYMBOL    XDATA    ---       D
      00000006H   SYMBOL    DATA     INT       j
      0200059FH   SYMBOL    XDATA    ---       L
      020005A2H   SYMBOL    XDATA    ---       R
      020005A5H   SYMBOL    XDATA    ---       Rexp
      020005ABH   SYMBOL    XDATA    ---       Rn
      020005AFH   SYMBOL    XDATA    ---       SubK
      01002CD2H   LINE      CODE     ---       #736
      01002CD8H   LINE      CODE     ---       #780
LX51 LINKER/LOCATER V3.51                                                             01/11/2013  15:44:20  PAGE 65


      01002CE4H   LINE      CODE     ---       #781
      01002CEEH   LINE      CODE     ---       #788
      01002D14H   LINE      CODE     ---       #789
      01002D3AH   LINE      CODE     ---       #794
      01002D56H   LINE      CODE     ---       #795
      01002D56H   LINE      CODE     ---       #800
      01002D76H   LINE      CODE     ---       #801
      01002D9AH   LINE      CODE     ---       #806
      01002DC0H   LINE      CODE     ---       #807
      01002DE6H   LINE      CODE     ---       #815
      01002DF9H   LINE      CODE     ---       #816
      01002E1DH   LINE      CODE     ---       #817
      01002E45H   LINE      CODE     ---       #822
      01002E48H   LINE      CODE     ---       #823
      01002E48H   LINE      CODE     ---       #824
      01002E64H   LINE      CODE     ---       #825
      01002E7EH   LINE      CODE     ---       #826
      01002E89H   LINE      CODE     ---       #827
      01002E96H   LINE      CODE     ---       #837
      01002EBCH   LINE      CODE     ---       #839
      ---         BLOCKEND  ---      ---       LVL=0

      010062EDH   BLOCK     CODE     ---       LVL=0
      0200065CH   SYMBOL    XDATA    ---       dst
      0200065FH   SYMBOL    XDATA    ---       key
      02000662H   SYMBOL    XDATA    ---       src
      010062EDH   LINE      CODE     ---       #843
      010062F3H   LINE      CODE     ---       #844
      010062F3H   LINE      CODE     ---       #845
      01006305H   LINE      CODE     ---       #846
      01006317H   LINE      CODE     ---       #847
      ---         BLOCKEND  ---      ---       LVL=0

      01006338H   BLOCK     CODE     ---       LVL=0
      02000665H   SYMBOL    XDATA    ---       dst
      02000668H   SYMBOL    XDATA    ---       key
      0200066BH   SYMBOL    XDATA    ---       src
      01006338H   LINE      CODE     ---       #851
      0100633EH   LINE      CODE     ---       #852
      0100633EH   LINE      CODE     ---       #853
      01006350H   LINE      CODE     ---       #854
      01006362H   LINE      CODE     ---       #855
      ---         BLOCKEND  ---      ---       LVL=0

      ---         MODULE    ---      ---       BARRENKALAHEAPCALC
      000000A8H   SFRSYM    DATA     BYTE      IE
      00000088H   SFRSYM    DATA     BYTE      TCON
      000000C0H   SFRSYM    DATA     BYTE      DESCTL
      000000E8H   SFRSYM    DATA     BYTE      FL_STS
      000000D8H   SFRSYM    DATA     BYTE      USR

      ---         MODULE    ---      ---       HEXSTRING
      01006103H   PUBLIC    CODE     ---       _fromhex
      0100699AH   PUBLIC    CODE     ---       _gethexvalue
      01006993H   PUBLIC    CODE     ---       gethex
      000000A8H   SFRSYM    DATA     BYTE      IE
      00000088H   SFRSYM    DATA     BYTE      TCON
      000000C0H   SFRSYM    DATA     BYTE      DESCTL
      000000E8H   SFRSYM    DATA     BYTE      FL_STS
      000000D8H   SFRSYM    DATA     BYTE      USR

      01006993H   BLOCK     CODE     ---       LVL=0
      01006993H   LINE      CODE     ---       #5
      01006993H   LINE      CODE     ---       #6
      01006993H   LINE      CODE     ---       #108
LX51 LINKER/LOCATER V3.51                                                             01/11/2013  15:44:20  PAGE 66


      01006995H   LINE      CODE     ---       #109
      ---         BLOCKEND  ---      ---       LVL=0

      0100699AH   BLOCK     CODE     ---       LVL=0
      00000007H   SYMBOL    DATA     CHAR      c
      0100699AH   LINE      CODE     ---       #111
      0100699AH   LINE      CODE     ---       #112
      0100699AH   LINE      CODE     ---       #210
      0100699AH   LINE      CODE     ---       #211
      ---         BLOCKEND  ---      ---       LVL=0

      01006103H   BLOCK     CODE     ---       LVL=0
      020004E8H   SYMBOL    XDATA    ---       buf
      020004EBH   SYMBOL    XDATA    BYTE      size
      020004ECH   SYMBOL    XDATA    WORD      temp
      020004EEH   SYMBOL    XDATA    BYTE      i
      01006103H   LINE      CODE     ---       #213
      0100610EH   LINE      CODE     ---       #214
      0100610EH   LINE      CODE     ---       #215
      01006113H   LINE      CODE     ---       #217
      01006123H   LINE      CODE     ---       #218
      01006123H   LINE      CODE     ---       #219
      01006131H   LINE      CODE     ---       #220
      0100614AH   LINE      CODE     ---       #221
      01006150H   LINE      CODE     ---       #222
      01006158H   LINE      CODE     ---       #223
      ---         BLOCKEND  ---      ---       LVL=0

      ---         MODULE    ---      ---       MEM
      02000630H   PUBLIC    XDATA    BYTE      ?_memcat?BYTE
      01005DE1H   PUBLIC    CODE     ---       _memcat
      020006DDH   PUBLIC    XDATA    BYTE      ?_mempadding?BYTE
      0100658FH   PUBLIC    CODE     ---       _mempadding
      020004F2H   PUBLIC    XDATA    BYTE      ?_memcompare?BYTE
      010061ADH   PUBLIC    CODE     ---       _memcompare
      02000624H   PUBLIC    XDATA    BYTE      ?_memadd?BYTE
      01005F91H   PUBLIC    CODE     ---       _memadd
      01006734H   PUBLIC    CODE     ---       _memclear
      0200050FH   PUBLIC    XDATA    BYTE      ?_memcopy?BYTE
      01005F2BH   PUBLIC    CODE     ---       _memcopy
      000000A8H   SFRSYM    DATA     BYTE      IE
      00000088H   SFRSYM    DATA     BYTE      TCON
      000000C0H   SFRSYM    DATA     BYTE      DESCTL
      000000E8H   SFRSYM    DATA     BYTE      FL_STS
      000000D8H   SFRSYM    DATA     BYTE      USR

      01005F2BH   BLOCK     CODE     ---       LVL=0
      0200050FH   SYMBOL    XDATA    ---       pdest
      02000512H   SYMBOL    XDATA    ---       psrc
      02000515H   SYMBOL    XDATA    WORD      offset
      02000517H   SYMBOL    XDATA    WORD      size
      02000519H   SYMBOL    XDATA    WORD      wrote
      01005F2BH   LINE      CODE     ---       #5
      01005F31H   LINE      CODE     ---       #6
      01005F31H   LINE      CODE     ---       #7
      01005F38H   LINE      CODE     ---       #8
      01005F4CH   LINE      CODE     ---       #9
      01005F72H   LINE      CODE     ---       #10
      01005F7CH   LINE      CODE     ---       #11
      01005F86H   LINE      CODE     ---       #12
      01005F88H   LINE      CODE     ---       #13
      01005F90H   LINE      CODE     ---       #14
      ---         BLOCKEND  ---      ---       LVL=0

      01006734H   BLOCK     CODE     ---       LVL=0
LX51 LINKER/LOCATER V3.51                                                             01/11/2013  15:44:20  PAGE 67


      00000001H   SYMBOL    DATA     ---       buffer
      00000004H   SYMBOL    DATA     WORD      size
      00000006H   SYMBOL    DATA     WORD      sz
      020004E8H   SYMBOL    XDATA    ---       bx
      01006734H   LINE      CODE     ---       #16
      01006734H   LINE      CODE     ---       #17
      01006738H   LINE      CODE     ---       #18
      0100673EH   LINE      CODE     ---       #19
      01006742H   LINE      CODE     ---       #20
      01006756H   LINE      CODE     ---       #21
      01006758H   LINE      CODE     ---       #22
      ---         BLOCKEND  ---      ---       LVL=0

      01005F91H   BLOCK     CODE     ---       LVL=0
      02000624H   SYMBOL    XDATA    ---       pdest
      02000627H   SYMBOL    XDATA    ---       psrc
      0200062AH   SYMBOL    XDATA    WORD      offset
      0200062CH   SYMBOL    XDATA    WORD      size
      0200062EH   SYMBOL    XDATA    WORD      wrote
      01005F91H   LINE      CODE     ---       #23
      01005F97H   LINE      CODE     ---       #24
      01005F97H   LINE      CODE     ---       #25
      01005F9EH   LINE      CODE     ---       #26
      01005FB2H   LINE      CODE     ---       #27
      01005FD8H   LINE      CODE     ---       #28
      01005FE2H   LINE      CODE     ---       #29
      01005FECH   LINE      CODE     ---       #30
      01005FEEH   LINE      CODE     ---       #31
      01005FF6H   LINE      CODE     ---       #32
      ---         BLOCKEND  ---      ---       LVL=0

      010061ADH   BLOCK     CODE     ---       LVL=0
      020004F2H   SYMBOL    XDATA    ---       pdest
      020004F5H   SYMBOL    XDATA    ---       psrc
      020004F8H   SYMBOL    XDATA    WORD      offset
      020004FAH   SYMBOL    XDATA    WORD      size
      010061ADH   LINE      CODE     ---       #34
      010061B3H   LINE      CODE     ---       #35
      010061B3H   LINE      CODE     ---       #36
      010061C7H   LINE      CODE     ---       #37
      010061F2H   LINE      CODE     ---       #38
      010061FCH   LINE      CODE     ---       #39
      010061FEH   LINE      CODE     ---       #40
      01006200H   LINE      CODE     ---       #41
      ---         BLOCKEND  ---      ---       LVL=0

      0100658FH   BLOCK     CODE     ---       LVL=0
      020006DDH   SYMBOL    XDATA    ---       buffer
      020006E0H   SYMBOL    XDATA    CHAR      pad_char
      020006E1H   SYMBOL    XDATA    BYTE      size
      00000006H   SYMBOL    DATA     BYTE      len_buf
      0100658FH   LINE      CODE     ---       #50
      0100659AH   LINE      CODE     ---       #51
      0100659AH   LINE      CODE     ---       #52
      0100659FH   LINE      CODE     ---       #53
      010065A8H   LINE      CODE     ---       #54
      010065C2H   LINE      CODE     ---       #55
      010065C4H   LINE      CODE     ---       #56
      010065C4H   LINE      CODE     ---       #57
      ---         BLOCKEND  ---      ---       LVL=0

      01005DE1H   BLOCK     CODE     ---       LVL=0
      02000630H   SYMBOL    XDATA    ---       pdest
      02000633H   SYMBOL    XDATA    ---       psrc
      02000636H   SYMBOL    XDATA    WORD      offset
LX51 LINKER/LOCATER V3.51                                                             01/11/2013  15:44:20  PAGE 68


      02000638H   SYMBOL    XDATA    WORD      size
      0200063AH   SYMBOL    XDATA    WORD      start_offset
      01005DE1H   LINE      CODE     ---       #59
      01005DE7H   LINE      CODE     ---       #60
      01005DE7H   LINE      CODE     ---       #61
      01005DF6H   LINE      CODE     ---       #62
      01005E00H   LINE      CODE     ---       #63
      01005E3EH   LINE      CODE     ---       #64
      01005E48H   LINE      CODE     ---       #65
      01005E4AH   LINE      CODE     ---       #66
      01005E52H   LINE      CODE     ---       #67
      ---         BLOCKEND  ---      ---       LVL=0

      ---         MODULE    ---      ---       IOMAN
      020006E4H   PUBLIC    XDATA    ---       iobuf
      020006E2H   PUBLIC    XDATA    WORD      data_pointer
      01006977H   PUBLIC    CODE     ---       _ioman_receive
      020006ADH   PUBLIC    XDATA    BYTE      ?_ioman_transmit?BYTE
      01006519H   PUBLIC    CODE     ---       _ioman_transmit
      0100670EH   PUBLIC    CODE     ---       ioman_send_atr
      0100699BH   PUBLIC    CODE     ---       ioman_close
      0100697EH   PUBLIC    CODE     ---       _ioman_write
      0100696EH   PUBLIC    CODE     ---       _ioman_seek
      010068F9H   PUBLIC    CODE     ---       _ioman_write_pos
      01004F4DH   PUBLIC    CODE     ---       _ioman_write_buffer
      01006951H   PUBLIC    CODE     ---       ioman_read
      01006849H   PUBLIC    CODE     ---       _ioman_read_pos
      010052EDH   PUBLIC    CODE     ---       _ioman_read_buffer
      01006965H   PUBLIC    CODE     ---       ioman_init
      000000A8H   SFRSYM    DATA     BYTE      IE
      00000088H   SFRSYM    DATA     BYTE      TCON
      000000C3H   SFRSYM    DATA     BYTE      MMU_SEL
      000000C0H   SFRSYM    DATA     BYTE      DESCTL
      000000E8H   SFRSYM    DATA     BYTE      FL_STS
      00000090H   SFRSYM    DATA     BYTE      rP1
      000000B0H   SFRSYM    DATA     BYTE      rP3
      000000D8H   SFRSYM    DATA     BYTE      USR
      0100737DH   SYMBOL    CONST    ---       _?ix1000

      01006965H   BLOCK     CODE     ---       LVL=0
      01006965H   LINE      CODE     ---       #33
      01006965H   LINE      CODE     ---       #34
      01006965H   LINE      CODE     ---       #41
      0100696DH   LINE      CODE     ---       #42
      ---         BLOCKEND  ---      ---       LVL=0

      010052EDH   BLOCK     CODE     ---       LVL=0
      0200066EH   SYMBOL    XDATA    WORD      pos
      02000670H   SYMBOL    XDATA    ---       bytes
      02000672H   SYMBOL    XDATA    WORD      length
      02000674H   SYMBOL    XDATA    WORD      ptr
      02000676H   SYMBOL    XDATA    BYTE      i
      010052EDH   LINE      CODE     ---       #44
      01005305H   LINE      CODE     ---       #45
      0100531DH   LINE      CODE     ---       #48
      0100532BH   LINE      CODE     ---       #53
      01005343H   LINE      CODE     ---       #54
      01005345H   LINE      CODE     ---       #55
      01005348H   LINE      CODE     ---       #56
      0100534BH   LINE      CODE     ---       #57
      0100534EH   LINE      CODE     ---       #58
      01005366H   LINE      CODE     ---       #60
      01005366H   LINE      CODE     ---       #67
      0100537DH   LINE      CODE     ---       #68
      010053BEH   LINE      CODE     ---       #69
LX51 LINKER/LOCATER V3.51                                                             01/11/2013  15:44:20  PAGE 69


      010053C1H   LINE      CODE     ---       #71
      ---         BLOCKEND  ---      ---       LVL=0

      01006849H   BLOCK     CODE     ---       LVL=0
      020006EBH   SYMBOL    XDATA    WORD      pos
      020006EDH   SYMBOL    XDATA    CHAR      byte
      01006849H   LINE      CODE     ---       #73
      01006851H   LINE      CODE     ---       #74
      01006851H   LINE      CODE     ---       #75
      01006856H   LINE      CODE     ---       #80
      0100685BH   LINE      CODE     ---       #81
      ---         BLOCKEND  ---      ---       LVL=0

      01006951H   BLOCK     CODE     ---       LVL=0
      020006F9H   SYMBOL    XDATA    CHAR      byte
      01006951H   LINE      CODE     ---       #83
      01006951H   LINE      CODE     ---       #84
      01006951H   LINE      CODE     ---       #85
      01006956H   LINE      CODE     ---       #92
      0100695BH   LINE      CODE     ---       #93
      ---         BLOCKEND  ---      ---       LVL=0

      01004F4DH   BLOCK     CODE     ---       LVL=0
      02000652H   SYMBOL    XDATA    WORD      pos
      02000654H   SYMBOL    XDATA    ---       bytes
      02000656H   SYMBOL    XDATA    WORD      length
      02000658H   SYMBOL    XDATA    WORD      i
      0200065AH   SYMBOL    XDATA    WORD      ptr
      01004F4DH   LINE      CODE     ---       #95
      01004F65H   LINE      CODE     ---       #97
      01004F7DH   LINE      CODE     ---       #99
      01004F8BH   LINE      CODE     ---       #104
      01004FA3H   LINE      CODE     ---       #105
      01004FA5H   LINE      CODE     ---       #106
      01004FA8H   LINE      CODE     ---       #107
      01004FABH   LINE      CODE     ---       #108
      01004FAEH   LINE      CODE     ---       #109
      01004FC6H   LINE      CODE     ---       #111
      01004FC6H   LINE      CODE     ---       #114
      01004FDEH   LINE      CODE     ---       #115
      01004FFCH   LINE      CODE     ---       #116
      01005040H   LINE      CODE     ---       #118
      01005043H   LINE      CODE     ---       #119
      01005044H   LINE      CODE     ---       #120
      01005047H   LINE      CODE     ---       #121
      01005047H   LINE      CODE     ---       #126
      ---         BLOCKEND  ---      ---       LVL=0

      010068F9H   BLOCK     CODE     ---       LVL=0
      020006EEH   SYMBOL    XDATA    WORD      pos
      020006F0H   SYMBOL    XDATA    CHAR      byte
      010068F9H   LINE      CODE     ---       #128
      01006906H   LINE      CODE     ---       #129
      01006906H   LINE      CODE     ---       #135
      ---         BLOCKEND  ---      ---       LVL=0

      0100696EH   BLOCK     CODE     ---       LVL=0
      020006F6H   SYMBOL    XDATA    WORD      pos
      0100696EH   LINE      CODE     ---       #137
      01006976H   LINE      CODE     ---       #138
      01006976H   LINE      CODE     ---       #145
      ---         BLOCKEND  ---      ---       LVL=0

      0100697EH   BLOCK     CODE     ---       LVL=0
      020006FAH   SYMBOL    XDATA    CHAR      byte
LX51 LINKER/LOCATER V3.51                                                             01/11/2013  15:44:20  PAGE 70


      0100697EH   LINE      CODE     ---       #147
      01006983H   LINE      CODE     ---       #148
      01006983H   LINE      CODE     ---       #155
      ---         BLOCKEND  ---      ---       LVL=0

      0100699BH   BLOCK     CODE     ---       LVL=0
      0100699BH   LINE      CODE     ---       #157
      0100699BH   LINE      CODE     ---       #158
      0100699BH   LINE      CODE     ---       #162
      ---         BLOCKEND  ---      ---       LVL=0

      0100670EH   BLOCK     CODE     ---       LVL=0
      020005DDH   SYMBOL    XDATA    ---       buffer
      0100670EH   LINE      CODE     ---       #164
      0100670EH   LINE      CODE     ---       #165
      0100670EH   LINE      CODE     ---       #166
      01006733H   LINE      CODE     ---       #167
      ---         BLOCKEND  ---      ---       LVL=0

      01006519H   BLOCK     CODE     ---       LVL=0
      020006ADH   SYMBOL    XDATA    BYTE      size
      020006AEH   SYMBOL    XDATA    BYTE      ins
      020006AFH   SYMBOL    XDATA    ---       buffer
      020006B2H   SYMBOL    XDATA    WORD      status
      01006519H   LINE      CODE     ---       #171
      01006529H   LINE      CODE     ---       #172
      01006529H   LINE      CODE     ---       #182
      01006534H   LINE      CODE     ---       #183
      0100653CH   LINE      CODE     ---       #184
      0100654CH   LINE      CODE     ---       #185
      0100654CH   LINE      CODE     ---       #186
      01006557H   LINE      CODE     ---       #187
      ---         BLOCKEND  ---      ---       LVL=0

      01006977H   BLOCK     CODE     ---       LVL=0
      020006F1H   SYMBOL    XDATA    ---       buffer
      01006977H   LINE      CODE     ---       #189
      0100697DH   LINE      CODE     ---       #190
      0100697DH   LINE      CODE     ---       #214
      ---         BLOCKEND  ---      ---       LVL=0

      ---         MODULE    ---      ---       YGGDRASIL
      02000554H   PUBLIC    XDATA    BYTE      get_resp_length
      02000544H   PUBLIC    XDATA    ---       v_chv_status
      02000542H   PUBLIC    XDATA    WORD      free_space
      01007206H   PUBLIC    CONST    ---       yggdrasil_class_case
      01007106H   PUBLIC    CONST    ---       gsm_class_case
      010000CDH   PUBLIC    CODE     ---       _Yggdrasil_Decode
      0100681FH   PUBLIC    CODE     ---       Initialize_Operating_System
      01006996H   PUBLIC    CODE     ---       Initialize_Hardware
      000000A8H   SFRSYM    DATA     BYTE      IE
      00000088H   SFRSYM    DATA     BYTE      TCON
      000000C0H   SFRSYM    DATA     BYTE      DESCTL
      000000E8H   SFRSYM    DATA     BYTE      FL_STS
      000000D8H   SFRSYM    DATA     BYTE      USR
      0100263AH   SYMBOL    CODE     ---       Send_Status

      01006996H   BLOCK     CODE     ---       LVL=0
      01006996H   LINE      CODE     ---       #72
      01006996H   LINE      CODE     ---       #73
      01006996H   LINE      CODE     ---       #80
      ---         BLOCKEND  ---      ---       LVL=0

      0100681FH   BLOCK     CODE     ---       LVL=0
      020004DEH   SYMBOL    XDATA    WORD      sw
LX51 LINKER/LOCATER V3.51                                                             01/11/2013  15:44:20  PAGE 71


      0100681FH   LINE      CODE     ---       #83
      0100681FH   LINE      CODE     ---       #84
      0100681FH   LINE      CODE     ---       #88
      01006822H   LINE      CODE     ---       #98
      0100682BH   LINE      CODE     ---       #99
      0100682BH   LINE      CODE     ---       #100
      01006833H   LINE      CODE     ---       #120
      01006833H   LINE      CODE     ---       #122
      01006833H   LINE      CODE     ---       #124
      01006833H   LINE      CODE     ---       #150
      ---         BLOCKEND  ---      ---       LVL=0

      0100263AH   BLOCK     CODE     ---       LVL=0
      020004E8H   SYMBOL    XDATA    ---       curfile
      020004EBH   SYMBOL    XDATA    ---       curdir
      020004EEH   SYMBOL    XDATA    ---       df_res
      020004F1H   SYMBOL    XDATA    ---       ef_res
      020004F4H   SYMBOL    XDATA    ---       cf
      0100263AH   LINE      CODE     ---       #160
      0100263AH   LINE      CODE     ---       #161
      01002643H   LINE      CODE     ---       #162
      01002649H   LINE      CODE     ---       #164
      01002655H   LINE      CODE     ---       #165
      0100265BH   LINE      CODE     ---       #167
      0100266EH   LINE      CODE     ---       #168
      0100266EH   LINE      CODE     ---       #169
      0100267AH   LINE      CODE     ---       #170
      01002697H   LINE      CODE     ---       #171
      010026B4H   LINE      CODE     ---       #173
      010026CEH   LINE      CODE     ---       #174
      010026DEH   LINE      CODE     ---       #175
      010026E1H   LINE      CODE     ---       #176
      010026E3H   LINE      CODE     ---       #177
      010026F8H   LINE      CODE     ---       #178
      01002700H   LINE      CODE     ---       #179
      01002702H   LINE      CODE     ---       #180
      0100270CH   LINE      CODE     ---       #181
      0100270CH   LINE      CODE     ---       #182
      0100270CH   LINE      CODE     ---       #183
      01002726H   LINE      CODE     ---       #184
      01002740H   LINE      CODE     ---       #185
      0100275AH   LINE      CODE     ---       #186
      01002774H   LINE      CODE     ---       #187
      0100277CH   LINE      CODE     ---       #188
      01002796H   LINE      CODE     ---       #189
      010027B0H   LINE      CODE     ---       #190
      010027BDH   LINE      CODE     ---       #194
      010027C0H   LINE      CODE     ---       #195
      010027C0H   LINE      CODE     ---       #196
      010027CCH   LINE      CODE     ---       #198
      010027DBH   LINE      CODE     ---       #199
      010027F8H   LINE      CODE     ---       #201
      01002812H   LINE      CODE     ---       #202
      01002819H   LINE      CODE     ---       #203
      01002820H   LINE      CODE     ---       #204
      01002827H   LINE      CODE     ---       #205
      0100282EH   LINE      CODE     ---       #206
      01002835H   LINE      CODE     ---       #207
      0100283DH   LINE      CODE     ---       #221
      01002857H   LINE      CODE     ---       #222
      01002871H   LINE      CODE     ---       #223
      01002879H   LINE      CODE     ---       #224
      01002880H   LINE      CODE     ---       #254
      01002887H   LINE      CODE     ---       #255
      01002894H   LINE      CODE     ---       #259
LX51 LINKER/LOCATER V3.51                                                             01/11/2013  15:44:20  PAGE 72


      01002896H   LINE      CODE     ---       #260
      01002896H   LINE      CODE     ---       #261
      ---         BLOCKEND  ---      ---       LVL=0

      010000CDH   BLOCK     CODE     ---       LVL=0
      020004DEH   SYMBOL    XDATA    ---       command
      020004E1H   SYMBOL    XDATA    WORD      status
      020004E3H   SYMBOL    XDATA    BYTE      res
      020004E4H   SYMBOL    XDATA    BYTE      lst
      02000522H   SYMBOL    XDATA    ---       buf
      02000532H   SYMBOL    XDATA    ---       buf2
      020004E5H   SYMBOL    XDATA    BYTE      len
      020004E6H   SYMBOL    XDATA    WORD      offset
      010000CDH   LINE      CODE     ---       #264
      010000D3H   LINE      CODE     ---       #265
      010000D3H   LINE      CODE     ---       #275
      010000E4H   LINE      CODE     ---       #276
      010000E4H   LINE      CODE     ---       #278
      010000E4H   LINE      CODE     ---       #279
      01000130H   LINE      CODE     ---       #280
      01000130H   LINE      CODE     ---       #281
      01000130H   LINE      CODE     ---       #282
      01000136H   LINE      CODE     ---       #283
      01000140H   LINE      CODE     ---       #284
      01000150H   LINE      CODE     ---       #285
      01000159H   LINE      CODE     ---       #286
      01000159H   LINE      CODE     ---       #287
      0100015CH   LINE      CODE     ---       #288
      0100015CH   LINE      CODE     ---       #289
      01000187H   LINE      CODE     ---       #290
      010001A0H   LINE      CODE     ---       #291
      010001A5H   LINE      CODE     ---       #292
      010001A8H   LINE      CODE     ---       #293
      010001ABH   LINE      CODE     ---       #294
      010001ABH   LINE      CODE     ---       #300
      010001ABH   LINE      CODE     ---       #301
      010001ABH   LINE      CODE     ---       #302
      010001B1H   LINE      CODE     ---       #303
      010001C1H   LINE      CODE     ---       #304
      010001D4H   LINE      CODE     ---       #305
      010001DCH   LINE      CODE     ---       #306
      010001E5H   LINE      CODE     ---       #307
      010001F2H   LINE      CODE     ---       #308
      010001FBH   LINE      CODE     ---       #309
      010001FBH   LINE      CODE     ---       #310
      01000203H   LINE      CODE     ---       #311
      0100020CH   LINE      CODE     ---       #312
      0100020FH   LINE      CODE     ---       #315
      0100020FH   LINE      CODE     ---       #317
      0100020FH   LINE      CODE     ---       #318
      0100020FH   LINE      CODE     ---       #319
      01000215H   LINE      CODE     ---       #320
      01000225H   LINE      CODE     ---       #321
      0100023DH   LINE      CODE     ---       #323
      0100025BH   LINE      CODE     ---       #324
      01000264H   LINE      CODE     ---       #325
      0100026CH   LINE      CODE     ---       #326
      01000277H   LINE      CODE     ---       #327
      01000277H   LINE      CODE     ---       #328
      0100027AH   LINE      CODE     ---       #329
      0100027AH   LINE      CODE     ---       #330
      0100027AH   LINE      CODE     ---       #331
      01000280H   LINE      CODE     ---       #332
      01000290H   LINE      CODE     ---       #333
      010002A1H   LINE      CODE     ---       #334
LX51 LINKER/LOCATER V3.51                                                             01/11/2013  15:44:20  PAGE 73


      010002A1H   LINE      CODE     ---       #335
      010002AFH   LINE      CODE     ---       #336
      010002B1H   LINE      CODE     ---       #337
      010002B1H   LINE      CODE     ---       #338
      010002BFH   LINE      CODE     ---       #339
      010002C1H   LINE      CODE     ---       #340
      010002C1H   LINE      CODE     ---       #343
      010002EDH   LINE      CODE     ---       #344
      010002EFH   LINE      CODE     ---       #345
      010002EFH   LINE      CODE     ---       #346
      010002EFH   LINE      CODE     ---       #347
      010002F2H   LINE      CODE     ---       #348
      010002F2H   LINE      CODE     ---       #349
      010002F2H   LINE      CODE     ---       #350
      010002FBH   LINE      CODE     ---       #351
      01000309H   LINE      CODE     ---       #352
      01000316H   LINE      CODE     ---       #353
      01000316H   LINE      CODE     ---       #354
      01000319H   LINE      CODE     ---       #355
      01000319H   LINE      CODE     ---       #356
      01000319H   LINE      CODE     ---       #357
      0100031FH   LINE      CODE     ---       #358
      0100032FH   LINE      CODE     ---       #359
      01000347H   LINE      CODE     ---       #360
      0100036CH   LINE      CODE     ---       #361
      01000371H   LINE      CODE     ---       #362
      01000379H   LINE      CODE     ---       #363
      01000389H   LINE      CODE     ---       #364
      01000389H   LINE      CODE     ---       #365
      0100038CH   LINE      CODE     ---       #366
      0100038CH   LINE      CODE     ---       #367
      0100038CH   LINE      CODE     ---       #368
      01000392H   LINE      CODE     ---       #369
      010003A2H   LINE      CODE     ---       #370
      010003B3H   LINE      CODE     ---       #371
      010003B3H   LINE      CODE     ---       #372
      010003C8H   LINE      CODE     ---       #373
      010003CAH   LINE      CODE     ---       #374
      010003CAH   LINE      CODE     ---       #375
      010003DFH   LINE      CODE     ---       #376
      010003E1H   LINE      CODE     ---       #377
      010003E1H   LINE      CODE     ---       #380
      01000414H   LINE      CODE     ---       #381
      01000416H   LINE      CODE     ---       #382
      01000416H   LINE      CODE     ---       #383
      01000416H   LINE      CODE     ---       #384
      01000419H   LINE      CODE     ---       #385
      01000419H   LINE      CODE     ---       #386
      01000419H   LINE      CODE     ---       #387
      0100041DH   LINE      CODE     ---       #388
      01000420H   LINE      CODE     ---       #389
      01000420H   LINE      CODE     ---       #390
      01000420H   LINE      CODE     ---       #391
      01000430H   LINE      CODE     ---       #392
      0100044AH   LINE      CODE     ---       #393
      0100044AH   LINE      CODE     ---       #394
      0100045AH   LINE      CODE     ---       #395
      01000462H   LINE      CODE     ---       #396
      01000468H   LINE      CODE     ---       #401
      0100046EH   LINE      CODE     ---       #402
      01000471H   LINE      CODE     ---       #403
      01000471H   LINE      CODE     ---       #404
      01000471H   LINE      CODE     ---       #405
      0100049AH   LINE      CODE     ---       #406
      010004A3H   LINE      CODE     ---       #407
LX51 LINKER/LOCATER V3.51                                                             01/11/2013  15:44:20  PAGE 74


      010004A9H   LINE      CODE     ---       #408
      010004AFH   LINE      CODE     ---       #409
      010004B1H   LINE      CODE     ---       #410
      010004B1H   LINE      CODE     ---       #411
      010004B4H   LINE      CODE     ---       #412
      010004B4H   LINE      CODE     ---       #413
      010004B4H   LINE      CODE     ---       #414
      010004DDH   LINE      CODE     ---       #415
      010004E6H   LINE      CODE     ---       #416
      010004ECH   LINE      CODE     ---       #417
      010004F2H   LINE      CODE     ---       #418
      010004F4H   LINE      CODE     ---       #419
      010004F4H   LINE      CODE     ---       #420
      010004F7H   LINE      CODE     ---       #421
      010004F7H   LINE      CODE     ---       #422
      010004F7H   LINE      CODE     ---       #423
      010004FDH   LINE      CODE     ---       #424
      010004FDH   LINE      CODE     ---       #425
      010004FDH   LINE      CODE     ---       #426
      010004FFH   LINE      CODE     ---       #427
      010004FFH   LINE      CODE     ---       #430
      010004FFH   LINE      CODE     ---       #431
      010004FFH   LINE      CODE     ---       #432
      010004FFH   LINE      CODE     ---       #433
      01000505H   LINE      CODE     ---       #434
      0100050AH   LINE      CODE     ---       #435
      0100050EH   LINE      CODE     ---       #436
      0100050EH   LINE      CODE     ---       #437
      0100050EH   LINE      CODE     ---       #438
      01000511H   LINE      CODE     ---       #439
      01000511H   LINE      CODE     ---       #440
      01000511H   LINE      CODE     ---       #441
      01000517H   LINE      CODE     ---       #442
      0100051CH   LINE      CODE     ---       #443
      0100052FH   LINE      CODE     ---       #444
      01000537H   LINE      CODE     ---       #445
      01000544H   LINE      CODE     ---       #446
      01000544H   LINE      CODE     ---       #447
      0100055AH   LINE      CODE     ---       #448
      0100055EH   LINE      CODE     ---       #449
      01000561H   LINE      CODE     ---       #450
      01000561H   LINE      CODE     ---       #451
      0100056BH   LINE      CODE     ---       #452
      0100056EH   LINE      CODE     ---       #453
      0100056EH   LINE      CODE     ---       #455
      0100056EH   LINE      CODE     ---       #456
      0100056EH   LINE      CODE     ---       #457
      0100056EH   LINE      CODE     ---       #458
      0100058AH   LINE      CODE     ---       #459
      0100058EH   LINE      CODE     ---       #460
      01000591H   LINE      CODE     ---       #461
      01000591H   LINE      CODE     ---       #462
      0100059BH   LINE      CODE     ---       #463
      0100059EH   LINE      CODE     ---       #464
      0100059EH   LINE      CODE     ---       #465
      010005A1H   LINE      CODE     ---       #466
      010005A1H   LINE      CODE     ---       #467
      010005A1H   LINE      CODE     ---       #484
      010005A1H   LINE      CODE     ---       #485
      010005A4H   LINE      CODE     ---       #486
      010005A4H   LINE      CODE     ---       #487
      010005A4H   LINE      CODE     ---       #488
      010005A4H   LINE      CODE     ---       #489
      010005A7H   LINE      CODE     ---       #490
      010005A7H   LINE      CODE     ---       #491
LX51 LINKER/LOCATER V3.51                                                             01/11/2013  15:44:20  PAGE 75


      010005A7H   LINE      CODE     ---       #493
      010005A7H   LINE      CODE     ---       #494
      010005A7H   LINE      CODE     ---       #495
      010005A7H   LINE      CODE     ---       #496
      010005ADH   LINE      CODE     ---       #497
      010005B2H   LINE      CODE     ---       #498
      010005C5H   LINE      CODE     ---       #499
      010005D0H   LINE      CODE     ---       #500
      010005E0H   LINE      CODE     ---       #501
      010005E0H   LINE      CODE     ---       #502
      01000615H   LINE      CODE     ---       #503
      01000619H   LINE      CODE     ---       #504
      0100061CH   LINE      CODE     ---       #505
      0100061CH   LINE      CODE     ---       #506
      0100061FH   LINE      CODE     ---       #507
      0100061FH   LINE      CODE     ---       #508
      0100061FH   LINE      CODE     ---       #509
      0100061FH   LINE      CODE     ---       #510
      0100065AH   LINE      CODE     ---       #511
      0100065EH   LINE      CODE     ---       #512
      01000661H   LINE      CODE     ---       #513
      01000661H   LINE      CODE     ---       #514
      01000664H   LINE      CODE     ---       #515
      01000664H   LINE      CODE     ---       #516
      01000664H   LINE      CODE     ---       #533
      01000664H   LINE      CODE     ---       #534
      01000667H   LINE      CODE     ---       #535
      01000667H   LINE      CODE     ---       #536
      01000667H   LINE      CODE     ---       #537
      01000667H   LINE      CODE     ---       #538
      0100066AH   LINE      CODE     ---       #539
      0100066AH   LINE      CODE     ---       #540
      0100066AH   LINE      CODE     ---       #542
      0100066AH   LINE      CODE     ---       #543
      0100066AH   LINE      CODE     ---       #544
      0100066AH   LINE      CODE     ---       #545
      01000670H   LINE      CODE     ---       #546
      01000675H   LINE      CODE     ---       #547
      01000685H   LINE      CODE     ---       #548
      0100068DH   LINE      CODE     ---       #549
      01000696H   LINE      CODE     ---       #550
      01000696H   LINE      CODE     ---       #551
      010006A3H   LINE      CODE     ---       #552
      010006BAH   LINE      CODE     ---       #553
      010006BDH   LINE      CODE     ---       #554
      010006C0H   LINE      CODE     ---       #555
      010006C0H   LINE      CODE     ---       #556
      010006D5H   LINE      CODE     ---       #557
      010006D8H   LINE      CODE     ---       #558
      010006D8H   LINE      CODE     ---       #559
      010006DBH   LINE      CODE     ---       #560
      010006DBH   LINE      CODE     ---       #561
      010006DBH   LINE      CODE     ---       #562
      010006DBH   LINE      CODE     ---       #563
      010006DEH   LINE      CODE     ---       #564
      010006DEH   LINE      CODE     ---       #565
      010006DEH   LINE      CODE     ---       #566
      010006DEH   LINE      CODE     ---       #567
      010006E1H   LINE      CODE     ---       #568
      010006E1H   LINE      CODE     ---       #569
      010006E1H   LINE      CODE     ---       #570
      010006E4H   LINE      CODE     ---       #571
      010006E4H   LINE      CODE     ---       #572
      010006E4H   LINE      CODE     ---       #573
      010006E4H   LINE      CODE     ---       #574
LX51 LINKER/LOCATER V3.51                                                             01/11/2013  15:44:20  PAGE 76


      010006EAH   LINE      CODE     ---       #575
      010006EFH   LINE      CODE     ---       #576
      010006FFH   LINE      CODE     ---       #577
      01000707H   LINE      CODE     ---       #578
      01000710H   LINE      CODE     ---       #579
      01000710H   LINE      CODE     ---       #580
      0100071DH   LINE      CODE     ---       #581
      01000734H   LINE      CODE     ---       #582
      01000737H   LINE      CODE     ---       #583
      0100073AH   LINE      CODE     ---       #584
      0100073AH   LINE      CODE     ---       #585
      0100074FH   LINE      CODE     ---       #586
      01000752H   LINE      CODE     ---       #587
      01000752H   LINE      CODE     ---       #588
      01000755H   LINE      CODE     ---       #589
      01000755H   LINE      CODE     ---       #590
      01000755H   LINE      CODE     ---       #591
      01000755H   LINE      CODE     ---       #592
      01000758H   LINE      CODE     ---       #593
      01000758H   LINE      CODE     ---       #594
      01000758H   LINE      CODE     ---       #595
      01000758H   LINE      CODE     ---       #596
      0100075BH   LINE      CODE     ---       #597
      0100075BH   LINE      CODE     ---       #598
      0100075BH   LINE      CODE     ---       #599
      0100075EH   LINE      CODE     ---       #600
      0100075EH   LINE      CODE     ---       #601
      0100075EH   LINE      CODE     ---       #602
      0100075EH   LINE      CODE     ---       #603
      01000764H   LINE      CODE     ---       #604
      01000769H   LINE      CODE     ---       #605
      0100077CH   LINE      CODE     ---       #606
      01000787H   LINE      CODE     ---       #607
      01000798H   LINE      CODE     ---       #608
      01000798H   LINE      CODE     ---       #609
      010007CDH   LINE      CODE     ---       #610
      010007D1H   LINE      CODE     ---       #611
      010007D3H   LINE      CODE     ---       #612
      010007D3H   LINE      CODE     ---       #613
      010007D6H   LINE      CODE     ---       #614
      010007D6H   LINE      CODE     ---       #615
      010007D6H   LINE      CODE     ---       #616
      010007D6H   LINE      CODE     ---       #617
      01000811H   LINE      CODE     ---       #618
      01000815H   LINE      CODE     ---       #619
      0100081AH   LINE      CODE     ---       #620
      0100081AH   LINE      CODE     ---       #621
      0100081DH   LINE      CODE     ---       #622
      0100081DH   LINE      CODE     ---       #623
      0100081DH   LINE      CODE     ---       #640
      0100081DH   LINE      CODE     ---       #641
      01000820H   LINE      CODE     ---       #642
      01000820H   LINE      CODE     ---       #643
      01000820H   LINE      CODE     ---       #644
      01000820H   LINE      CODE     ---       #645
      01000823H   LINE      CODE     ---       #646
      01000823H   LINE      CODE     ---       #647
      01000823H   LINE      CODE     ---       #648
      01000826H   LINE      CODE     ---       #649
      01000826H   LINE      CODE     ---       #650
      01000826H   LINE      CODE     ---       #651
      01000826H   LINE      CODE     ---       #652
      0100082CH   LINE      CODE     ---       #653
      0100083CH   LINE      CODE     ---       #654
      0100084CH   LINE      CODE     ---       #655
LX51 LINKER/LOCATER V3.51                                                             01/11/2013  15:44:20  PAGE 77


      01000852H   LINE      CODE     ---       #656
      01000852H   LINE      CODE     ---       #657
      01000854H   LINE      CODE     ---       #658
      01000854H   LINE      CODE     ---       #659
      0100085FH   LINE      CODE     ---       #660
      01000864H   LINE      CODE     ---       #661
      01000866H   LINE      CODE     ---       #662
      01000869H   LINE      CODE     ---       #663
      01000869H   LINE      CODE     ---       #664
      0100086CH   LINE      CODE     ---       #665
      0100086CH   LINE      CODE     ---       #666
      0100086CH   LINE      CODE     ---       #667
      01000872H   LINE      CODE     ---       #668
      01000882H   LINE      CODE     ---       #669
      01000892H   LINE      CODE     ---       #670
      01000898H   LINE      CODE     ---       #671
      0100089DH   LINE      CODE     ---       #672
      010008A1H   LINE      CODE     ---       #673
      010008A1H   LINE      CODE     ---       #674
      010008ACH   LINE      CODE     ---       #675
      010008B1H   LINE      CODE     ---       #676
      010008B3H   LINE      CODE     ---       #677
      010008B6H   LINE      CODE     ---       #678
      010008B6H   LINE      CODE     ---       #679
      010008B9H   LINE      CODE     ---       #680
      010008B9H   LINE      CODE     ---       #681
      010008B9H   LINE      CODE     ---       #682
      010008BFH   LINE      CODE     ---       #684
      010008C0H   LINE      CODE     ---       #685
      010008C0H   LINE      CODE     ---       #686
      010008C6H   LINE      CODE     ---       #687
      010008CBH   LINE      CODE     ---       #689
      010008D4H   LINE      CODE     ---       #690
      010008D8H   LINE      CODE     ---       #691
      010008DCH   LINE      CODE     ---       #692
      010008E0H   LINE      CODE     ---       #693
      010008E0H   LINE      CODE     ---       #694
      010008E0H   LINE      CODE     ---       #695
      010008E6H   LINE      CODE     ---       #696
      010008F6H   LINE      CODE     ---       #697
      01000909H   LINE      CODE     ---       #698
      01000911H   LINE      CODE     ---       #699
      01000916H   LINE      CODE     ---       #700
      0100091BH   LINE      CODE     ---       #701
      0100091BH   LINE      CODE     ---       #702
      01000944H   LINE      CODE     ---       #704
      0100094BH   LINE      CODE     ---       #705
      0100095AH   LINE      CODE     ---       #706
      01000963H   LINE      CODE     ---       #707
      01000973H   LINE      CODE     ---       #708
      01000999H   LINE      CODE     ---       #709
      0100099EH   LINE      CODE     ---       #710
      010009A7H   LINE      CODE     ---       #711
      010009A9H   LINE      CODE     ---       #712
      010009AEH   LINE      CODE     ---       #713
      010009B2H   LINE      CODE     ---       #714
      010009BBH   LINE      CODE     ---       #715
      010009BBH   LINE      CODE     ---       #716
      010009BDH   LINE      CODE     ---       #717
      010009C2H   LINE      CODE     ---       #718
      010009C6H   LINE      CODE     ---       #719
      010009C6H   LINE      CODE     ---       #720
      010009C9H   LINE      CODE     ---       #721
      010009C9H   LINE      CODE     ---       #722
      010009C9H   LINE      CODE     ---       #723
LX51 LINKER/LOCATER V3.51                                                             01/11/2013  15:44:20  PAGE 78


      010009CFH   LINE      CODE     ---       #725
      010009D0H   LINE      CODE     ---       #726
      010009D0H   LINE      CODE     ---       #728
      010009D0H   LINE      CODE     ---       #729
      010009D0H   LINE      CODE     ---       #730
      010009D0H   LINE      CODE     ---       #731
      010009D3H   LINE      CODE     ---       #732
      010009D3H   LINE      CODE     ---       #733
      010009D3H   LINE      CODE     ---       #734
      010009D3H   LINE      CODE     ---       #736
      010009D3H   LINE      CODE     ---       #737
      01000A10H   LINE      CODE     ---       #738
      01000A10H   LINE      CODE     ---       #739
      01000A10H   LINE      CODE     ---       #740
      01000A15H   LINE      CODE     ---       #741
      01000A22H   LINE      CODE     ---       #742
      01000A33H   LINE      CODE     ---       #743
      01000A41H   LINE      CODE     ---       #744
      01000A41H   LINE      CODE     ---       #745
      01000A57H   LINE      CODE     ---       #746
      01000A5EH   LINE      CODE     ---       #747
      01000A6BH   LINE      CODE     ---       #748
      01000A6EH   LINE      CODE     ---       #749
      01000A6EH   LINE      CODE     ---       #750
      01000A6EH   LINE      CODE     ---       #751
      01000A7DH   LINE      CODE     ---       #752
      01000A82H   LINE      CODE     ---       #753
      01000A9EH   LINE      CODE     ---       #754
      01000AA5H   LINE      CODE     ---       #755
      01000AB2H   LINE      CODE     ---       #756
      01000AB5H   LINE      CODE     ---       #757
      01000AB5H   LINE      CODE     ---       #758
      01000AB5H   LINE      CODE     ---       #759
      01000AB8H   LINE      CODE     ---       #760
      01000AB8H   LINE      CODE     ---       #761
      01000AB8H   LINE      CODE     ---       #762
      01000AB8H   LINE      CODE     ---       #763
      01000ABBH   LINE      CODE     ---       #764
      01000ABBH   LINE      CODE     ---       #765
      01000ABBH   LINE      CODE     ---       #766
      01000ABEH   LINE      CODE     ---       #767
      01000ABEH   LINE      CODE     ---       #768
      01000ABEH   LINE      CODE     ---       #769
      01000ABEH   LINE      CODE     ---       #770
      01000AC3H   LINE      CODE     ---       #771
      01000AD6H   LINE      CODE     ---       #772
      01000AE1H   LINE      CODE     ---       #773
      01000AF2H   LINE      CODE     ---       #774
      01000AF2H   LINE      CODE     ---       #775
      01000B01H   LINE      CODE     ---       #776
      01000B06H   LINE      CODE     ---       #777
      01000B41H   LINE      CODE     ---       #778
      01000B47H   LINE      CODE     ---       #779
      01000B53H   LINE      CODE     ---       #780
      01000B56H   LINE      CODE     ---       #781
      01000B56H   LINE      CODE     ---       #782
      01000B56H   LINE      CODE     ---       #783
      01000B65H   LINE      CODE     ---       #784
      01000B6AH   LINE      CODE     ---       #785
      01000BA5H   LINE      CODE     ---       #786
      01000BAEH   LINE      CODE     ---       #787
      01000BBCH   LINE      CODE     ---       #788
      01000BBFH   LINE      CODE     ---       #789
      01000BBFH   LINE      CODE     ---       #790
      01000BBFH   LINE      CODE     ---       #791
LX51 LINKER/LOCATER V3.51                                                             01/11/2013  15:44:20  PAGE 79


      01000BC2H   LINE      CODE     ---       #792
      01000BC2H   LINE      CODE     ---       #793
      01000BC2H   LINE      CODE     ---       #794
      01000BC2H   LINE      CODE     ---       #795
      01000BC5H   LINE      CODE     ---       #796
      01000BC5H   LINE      CODE     ---       #797
      01000BC5H   LINE      CODE     ---       #798
      01000BCAH   LINE      CODE     ---       #799
      01000BCAH   LINE      CODE     ---       #800
      01000BCAH   LINE      CODE     ---       #801
      01000BCAH   LINE      CODE     ---       #802
      01000BCFH   LINE      CODE     ---       #803
      01000BDEH   LINE      CODE     ---       #804
      01000BE3H   LINE      CODE     ---       #805
      01000BFDH   LINE      CODE     ---       #806
      01000BFDH   LINE      CODE     ---       #807
      01000C01H   LINE      CODE     ---       #808
      01000C03H   LINE      CODE     ---       #809
      01000C03H   LINE      CODE     ---       #810
      01000C07H   LINE      CODE     ---       #811
      01000C09H   LINE      CODE     ---       #812
      01000C09H   LINE      CODE     ---       #813
      01000C0DH   LINE      CODE     ---       #814
      01000C0FH   LINE      CODE     ---       #815
      01000C0FH   LINE      CODE     ---       #816
      01000C1AH   LINE      CODE     ---       #817
      01000C1CH   LINE      CODE     ---       #818
      01000C1CH   LINE      CODE     ---       #819
      01000C1FH   LINE      CODE     ---       #820
      01000C1FH   LINE      CODE     ---       #821
      01000C2DH   LINE      CODE     ---       #822
      01000C30H   LINE      CODE     ---       #823
      01000C30H   LINE      CODE     ---       #824
      01000C30H   LINE      CODE     ---       #825
      01000C35H   LINE      CODE     ---       #826
      01000C44H   LINE      CODE     ---       #827
      01000C49H   LINE      CODE     ---       #829
      01000C49H   LINE      CODE     ---       #830
      01000C4EH   LINE      CODE     ---       #831
      01000C5DH   LINE      CODE     ---       #832
      01000C62H   LINE      CODE     ---       #833
      01000C64H   LINE      CODE     ---       #834
      01000C64H   LINE      CODE     ---       #835
      01000C69H   LINE      CODE     ---       #836
      01000C78H   LINE      CODE     ---       #837
      01000C7DH   LINE      CODE     ---       #838
      01000C7FH   LINE      CODE     ---       #839
      01000C7FH   LINE      CODE     ---       #840
      01000C84H   LINE      CODE     ---       #841
      01000C93H   LINE      CODE     ---       #842
      01000C98H   LINE      CODE     ---       #843
      01000C9DH   LINE      CODE     ---       #844
      01000C9DH   LINE      CODE     ---       #845
      01000CA2H   LINE      CODE     ---       #846
      01000CB1H   LINE      CODE     ---       #847
      01000CB6H   LINE      CODE     ---       #848
      01000CC6H   LINE      CODE     ---       #849
      01000CD6H   LINE      CODE     ---       #850
      01000CDFH   LINE      CODE     ---       #851
      01000CDFH   LINE      CODE     ---       #852
      01000CE2H   LINE      CODE     ---       #853
      01000CE2H   LINE      CODE     ---       #854
      01000CFDH   LINE      CODE     ---       #855
      01000D02H   LINE      CODE     ---       #856
      01000D04H   LINE      CODE     ---       #857
LX51 LINKER/LOCATER V3.51                                                             01/11/2013  15:44:20  PAGE 80


      01000D07H   LINE      CODE     ---       #858
      01000D07H   LINE      CODE     ---       #859
      01000D0AH   LINE      CODE     ---       #860
      01000D0AH   LINE      CODE     ---       #861
      01000D0FH   LINE      CODE     ---       #862
      01000D1EH   LINE      CODE     ---       #863
      01000D23H   LINE      CODE     ---       #864
      01000D33H   LINE      CODE     ---       #865
      01000D46H   LINE      CODE     ---       #866
      01000D4EH   LINE      CODE     ---       #867
      01000D53H   LINE      CODE     ---       #868
      01000D58H   LINE      CODE     ---       #869
      01000D58H   LINE      CODE     ---       #870
      01000DF2H   LINE      CODE     ---       #871
      01000E0FH   LINE      CODE     ---       #872
      01000E15H   LINE      CODE     ---       #873
      01000E1AH   LINE      CODE     ---       #874
      01000E1CH   LINE      CODE     ---       #875
      01000E1FH   LINE      CODE     ---       #876
      01000E1FH   LINE      CODE     ---       #877
      01000E27H   LINE      CODE     ---       #878
      01000E2AH   LINE      CODE     ---       #879
      01000E2AH   LINE      CODE     ---       #880
      01000E2FH   LINE      CODE     ---       #881
      01000E3EH   LINE      CODE     ---       #882
      01000E43H   LINE      CODE     ---       #883
      01000E5CH   LINE      CODE     ---       #884
      01000E6CH   LINE      CODE     ---       #885
      01000E71H   LINE      CODE     ---       #886
      01000E74H   LINE      CODE     ---       #887
      01000E74H   LINE      CODE     ---       #888
      01000F0AH   LINE      CODE     ---       #889
      01000F27H   LINE      CODE     ---       #890
      01000F2DH   LINE      CODE     ---       #891
      01000F32H   LINE      CODE     ---       #892
      01000F34H   LINE      CODE     ---       #893
      01000F37H   LINE      CODE     ---       #894
      01000F37H   LINE      CODE     ---       #895
      01000F3FH   LINE      CODE     ---       #896
      01000F42H   LINE      CODE     ---       #897
      01000F42H   LINE      CODE     ---       #898
      01000F47H   LINE      CODE     ---       #899
      01000F56H   LINE      CODE     ---       #900
      01000F5BH   LINE      CODE     ---       #901
      01000F74H   LINE      CODE     ---       #902
      01000F84H   LINE      CODE     ---       #903
      01000F89H   LINE      CODE     ---       #904
      01000F8EH   LINE      CODE     ---       #905
      01000F8EH   LINE      CODE     ---       #906
      01001024H   LINE      CODE     ---       #907
      01001041H   LINE      CODE     ---       #908
      01001047H   LINE      CODE     ---       #909
      0100104CH   LINE      CODE     ---       #910
      0100104EH   LINE      CODE     ---       #911
      01001051H   LINE      CODE     ---       #912
      01001051H   LINE      CODE     ---       #913
      01001059H   LINE      CODE     ---       #914
      0100105CH   LINE      CODE     ---       #915
      0100105CH   LINE      CODE     ---       #916
      01001061H   LINE      CODE     ---       #917
      01001070H   LINE      CODE     ---       #918
      01001077H   LINE      CODE     ---       #919
      01001087H   LINE      CODE     ---       #920
      01001097H   LINE      CODE     ---       #921
      0100109FH   LINE      CODE     ---       #922
LX51 LINKER/LOCATER V3.51                                                             01/11/2013  15:44:20  PAGE 81


      010010A4H   LINE      CODE     ---       #923
      010010A9H   LINE      CODE     ---       #924
      010010A9H   LINE      CODE     ---       #925
      010010D8H   LINE      CODE     ---       #926
      010010F5H   LINE      CODE     ---       #927
      010010FBH   LINE      CODE     ---       #928
      01001100H   LINE      CODE     ---       #929
      01001102H   LINE      CODE     ---       #930
      01001107H   LINE      CODE     ---       #931
      01001107H   LINE      CODE     ---       #932
      0100110FH   LINE      CODE     ---       #933
      01001118H   LINE      CODE     ---       #934
      01001118H   LINE      CODE     ---       #935
      0100111EH   LINE      CODE     ---       #936
      0100113CH   LINE      CODE     ---       #937
      0100113FH   LINE      CODE     ---       #938
      0100115AH   LINE      CODE     ---       #939
      0100115AH   LINE      CODE     ---       #940
      01001170H   LINE      CODE     ---       #941
      01001178H   LINE      CODE     ---       #942
      0100117AH   LINE      CODE     ---       #943
      0100117AH   LINE      CODE     ---       #944
      0100117AH   LINE      CODE     ---       #946
      0100117FH   LINE      CODE     ---       #947
      0100117FH   LINE      CODE     ---       #948
      0100117FH   LINE      CODE     ---       #949
      01001184H   LINE      CODE     ---       #950
      01001188H   LINE      CODE     ---       #951
      01001188H   LINE      CODE     ---       #952
      01001188H   LINE      CODE     ---       #953
      01001188H   LINE      CODE     ---       #954
      01001188H   LINE      CODE     ---       #955
      0100118DH   LINE      CODE     ---       #956
      01001190H   LINE      CODE     ---       #957
      01001190H   LINE      CODE     ---       #958
      01001190H   LINE      CODE     ---       #959
      ---         BLOCKEND  ---      ---       LVL=0

      ---         MODULE    ---      ---       ?C_INIT
      01005BC0H   PUBLIC    CODE     ---       ?C_START

      ---         MODULE    ---      ---       ?C?COPY
      01001261H   PUBLIC    CODE     ---       ?C?COPY

      ---         MODULE    ---      ---       ?C?CLDPTR
      01001287H   PUBLIC    CODE     ---       ?C?CLDPTR

      ---         MODULE    ---      ---       ?C?CLDOPTR
      010012A0H   PUBLIC    CODE     ---       ?C?CLDOPTR

      ---         MODULE    ---      ---       ?C?CILDOPTR
      010012CDH   PUBLIC    CODE     ---       ?C?CILDOPTR

      ---         MODULE    ---      ---       ?C?CSTPTR
      01001300H   PUBLIC    CODE     ---       ?C?CSTPTR

      ---         MODULE    ---      ---       ?C?CSTOPTR
      01001312H   PUBLIC    CODE     ---       ?C?CSTOPTR

      ---         MODULE    ---      ---       ?C?IMUL
      01001334H   PUBLIC    CODE     ---       ?C?IMUL

      ---         MODULE    ---      ---       ?C?UIDIV
      01001346H   PUBLIC    CODE     ---       ?C?UIDIV

LX51 LINKER/LOCATER V3.51                                                             01/11/2013  15:44:20  PAGE 82


      ---         MODULE    ---      ---       ?C?SIDIV
      0100139BH   PUBLIC    CODE     ---       ?C?SIDIV

      ---         MODULE    ---      ---       ?C?IILDX
      010013D1H   PUBLIC    CODE     ---       ?C?IILDX

      ---         MODULE    ---      ---       ?C?ILDIX
      010013E7H   PUBLIC    CODE     ---       ?C?ILDIX

      ---         MODULE    ---      ---       ?C?ILDPTR
      010013FDH   PUBLIC    CODE     ---       ?C?ILDPTR

      ---         MODULE    ---      ---       ?C?ILDOPTR
      01001428H   PUBLIC    CODE     ---       ?C?ILDOPTR

      ---         MODULE    ---      ---       ?C?ISTPTR
      01001460H   PUBLIC    CODE     ---       ?C?ISTPTR

      ---         MODULE    ---      ---       ?C?ISTOPTR
      0100147FH   PUBLIC    CODE     ---       ?C?ISTOPTR

      ---         MODULE    ---      ---       ?C?SLCMP
      010014ACH   PUBLIC    CODE     ---       ?C?SLCMP

      ---         MODULE    ---      ---       ?C?ULCMP
      010014C2H   PUBLIC    CODE     ---       ?C?ULCMP

      ---         MODULE    ---      ---       ?C?LSTOPTR
      010014D3H   PUBLIC    CODE     ---       ?C?LSTOPTR

      ---         MODULE    ---      ---       ?C?LLDXDATA
      010014F7H   PUBLIC    CODE     ---       ?C?LLDXDATA

      ---         MODULE    ---      ---       ?C?LSTXDATA
      01001503H   PUBLIC    CODE     ---       ?C?LSTXDATA

      ---         MODULE    ---      ---       ?C?PLDXDATA
      0100150FH   PUBLIC    CODE     ---       ?C?PLDXDATA

      ---         MODULE    ---      ---       ?C?PSTXDATA
      01001518H   PUBLIC    CODE     ---       ?C?PSTXDATA

      ---         MODULE    ---      ---       ?C?PLDPTR
      01001521H   PUBLIC    CODE     ---       ?C?PLDPTR

      ---         MODULE    ---      ---       ?C?PSTPTR
      01001541H   PUBLIC    CODE     ---       ?C?PSTPTR

      ---         MODULE    ---      ---       ?C?PLDOPTR
      01001590H   PUBLIC    CODE     ---       ?C?PLDOPTR

      ---         MODULE    ---      ---       ?C?PSTOPTR
      010015C0H   PUBLIC    CODE     ---       ?C?PSTOPTR

      ---         MODULE    ---      ---       ?C?CCASE
      01001619H   PUBLIC    CODE     ---       ?C?CCASE

      ---         MODULE    ---      ---       ?C?ICASE
      0100163FH   PUBLIC    CODE     ---       ?C?ICASE

      ---         MODULE    ---      ---       PUTCHAR
      010066E7H   PUBLIC    CODE     ---       _PUTCHAR

      ---         MODULE    ---      ---       PRINTF
      020005B5H   PUBLIC    XDATA    ---       ?_PRINTF517?BYTE
LX51 LINKER/LOCATER V3.51                                                             01/11/2013  15:44:20  PAGE 83


      020005B5H   PUBLIC    XDATA    ---       ?_PRINTF?BYTE
      020005B5H   PUBLIC    XDATA    ---       ?_SPRINTF517?BYTE
      020005B5H   PUBLIC    XDATA    ---       ?_SPRINTF?BYTE
      01002037H   PUBLIC    CODE     ---       _PRINTF
      01002037H   PUBLIC    CODE     ---       _PRINTF517
      01002031H   PUBLIC    CODE     ---       _SPRINTF
      01002031H   PUBLIC    CODE     ---       _SPRINTF517

      ---         MODULE    ---      ---       STRLEN
      01006834H   PUBLIC    CODE     ---       _STRLEN

      ---         MODULE    ---      ---       ?C?LSTIDATA
      0100166CH   PUBLIC    CODE     ---       ?C?LSTIDATA

      ---         MODULE    ---      ---       ?C?LSTPDATA
      01001678H   PUBLIC    CODE     ---       ?C?LSTPDATA

      ---         MODULE    ---      ---       ?C?PLDIDATA
      01001684H   PUBLIC    CODE     ---       ?C?PLDIDATA

      ---         MODULE    ---      ---       ?C?PSTIDATA
      0100168DH   PUBLIC    CODE     ---       ?C?PSTIDATA

      ---         MODULE    ---      ---       ?C?PLDIXDATA
      01001696H   PUBLIC    CODE     ---       ?C?PLDIXDATA

      ---         MODULE    ---      ---       ?C?PLDPDATA
      010016ADH   PUBLIC    CODE     ---       ?C?PLDPDATA

      ---         MODULE    ---      ---       ?C?PSTPDATA
      010016B6H   PUBLIC    CODE     ---       ?C?PSTPDATA

      ---         MODULE    ---      ---       ?C?PLDCODE
      010016BFH   PUBLIC    CODE     ---       ?C?PLDCODE



*** WARNING L16: UNCALLED FUNCTION, IGNORED FOR OVERLAY PROCESS
    NAME:    RCVAPDU/ISO7816_MAIN

*** WARNING L16: UNCALLED FUNCTION, IGNORED FOR OVERLAY PROCESS
    NAME:    _COMMAND_INTERPRETER/ISO7816_MAIN

*** WARNING L16: UNCALLED FUNCTION, IGNORED FOR OVERLAY PROCESS
    NAME:    CMMD_HANDLE/ISO7816_MAIN

*** WARNING L16: UNCALLED FUNCTION, IGNORED FOR OVERLAY PROCESS
    NAME:    _TXSTATUS/ISO7816_MAIN

*** WARNING L16: UNCALLED FUNCTION, IGNORED FOR OVERLAY PROCESS
    NAME:    SLEEP_MODE/ISO7816_API

*** WARNING L16: UNCALLED FUNCTION, IGNORED FOR OVERLAY PROCESS
    NAME:    _SETBASE/ISO7816_API

*** WARNING L16: UNCALLED FUNCTION, IGNORED FOR OVERLAY PROCESS
    NAME:    _CALCRC/ISO7816_API

*** WARNING L16: UNCALLED FUNCTION, IGNORED FOR OVERLAY PROCESS
    NAME:    _ERASE_PAGES/ISO7816_API

*** WARNING L16: UNCALLED FUNCTION, IGNORED FOR OVERLAY PROCESS
    NAME:    _DES_OPERATION/ISO7816_API

*** WARNING L16: UNCALLED FUNCTION, IGNORED FOR OVERLAY PROCESS
LX51 LINKER/LOCATER V3.51                                                             01/11/2013  15:44:20  PAGE 84


    NAME:    _RANDOM_NUMBER_GENERATOR/ISO7816_API

*** WARNING L16: UNCALLED FUNCTION, IGNORED FOR OVERLAY PROCESS
    NAME:    RETURNTOBL/ISO7816_API

*** WARNING L16: UNCALLED FUNCTION, IGNORED FOR OVERLAY PROCESS
    NAME:    __WRITE_NEW_REC/FILE

*** WARNING L16: UNCALLED FUNCTION, IGNORED FOR OVERLAY PROCESS
    NAME:    CHV_INIT/SECURITY

*** WARNING L16: UNCALLED FUNCTION, IGNORED FOR OVERLAY PROCESS
    NAME:    _M_ALLOC_ND/MIDGARD

*** WARNING L16: UNCALLED FUNCTION, IGNORED FOR OVERLAY PROCESS
    NAME:    _M_FREE_ND/MIDGARD

*** WARNING L16: UNCALLED FUNCTION, IGNORED FOR OVERLAY PROCESS
    NAME:    M_GC/MIDGARD

*** WARNING L16: UNCALLED FUNCTION, IGNORED FOR OVERLAY PROCESS
    NAME:    M_HEAP_SPACE/MIDGARD

*** WARNING L16: UNCALLED FUNCTION, IGNORED FOR OVERLAY PROCESS
    NAME:    M_USED_HEAP/MIDGARD

*** WARNING L16: UNCALLED FUNCTION, IGNORED FOR OVERLAY PROCESS
    NAME:    M_MEM_DUMP/MIDGARD

*** WARNING L16: UNCALLED FUNCTION, IGNORED FOR OVERLAY PROCESS
    NAME:    _AUTH_DESKEY8TO7/DES

*** WARNING L16: UNCALLED FUNCTION, IGNORED FOR OVERLAY PROCESS
    NAME:    _AUTH_3DES/DES

*** WARNING L16: UNCALLED FUNCTION, IGNORED FOR OVERLAY PROCESS
    NAME:    _DECRYPT_3DES/DES

*** WARNING L16: UNCALLED FUNCTION, IGNORED FOR OVERLAY PROCESS
    NAME:    GETHEX/HEXSTRING

*** WARNING L16: UNCALLED FUNCTION, IGNORED FOR OVERLAY PROCESS
    NAME:    _GETHEXVALUE/HEXSTRING

*** WARNING L16: UNCALLED FUNCTION, IGNORED FOR OVERLAY PROCESS
    NAME:    _MEMADD/MEM

*** WARNING L16: UNCALLED FUNCTION, IGNORED FOR OVERLAY PROCESS
    NAME:    _MEMPADDING/MEM

*** WARNING L16: UNCALLED FUNCTION, IGNORED FOR OVERLAY PROCESS
    NAME:    _MEMCAT/MEM

*** WARNING L16: UNCALLED FUNCTION, IGNORED FOR OVERLAY PROCESS
    NAME:    _IOMAN_READ_POS/IOMAN

*** WARNING L16: UNCALLED FUNCTION, IGNORED FOR OVERLAY PROCESS
    NAME:    IOMAN_READ/IOMAN

*** WARNING L16: UNCALLED FUNCTION, IGNORED FOR OVERLAY PROCESS
    NAME:    _IOMAN_WRITE_POS/IOMAN

*** WARNING L16: UNCALLED FUNCTION, IGNORED FOR OVERLAY PROCESS
    NAME:    IOMAN_CLOSE/IOMAN

LX51 LINKER/LOCATER V3.51                                                             01/11/2013  15:44:20  PAGE 85


*** WARNING L16: UNCALLED FUNCTION, IGNORED FOR OVERLAY PROCESS
    NAME:    IOMAN_SEND_ATR/IOMAN

*** WARNING L16: UNCALLED FUNCTION, IGNORED FOR OVERLAY PROCESS
    NAME:    _IOMAN_RECEIVE/IOMAN

*** ERROR L127: UNRESOLVED EXTERNAL SYMBOL
    SYMBOL:  response_length
    MODULE:  .\Debug\Output\ISO7816_Main.obj (ISO7816_MAIN)

*** ERROR L128: REFERENCE MADE TO UNRESOLVED EXTERNAL
    SYMBOL:  response_length
    MODULE:  .\Debug\Output\ISO7816_Main.obj (ISO7816_MAIN)
    ADDRESS: 1004C38H

*** ERROR L127: UNRESOLVED EXTERNAL SYMBOL
    SYMBOL:  response
    MODULE:  .\Debug\Output\A3A8.obj (A3A8)

*** ERROR L128: REFERENCE MADE TO UNRESOLVED EXTERNAL
    SYMBOL:  response
    MODULE:  .\Debug\Output\A3A8.obj (A3A8)
    ADDRESS: 1001BECH

*** ERROR L128: REFERENCE MADE TO UNRESOLVED EXTERNAL
    SYMBOL:  response
    MODULE:  .\Debug\Output\A3A8.obj (A3A8)
    ADDRESS: 1001BEEH

*** ERROR L127: UNRESOLVED EXTERNAL SYMBOL
    SYMBOL:  _sys_select
    MODULE:  .\Debug\Output\yggdrasil.obj (YGGDRASIL)

*** ERROR L127: UNRESOLVED EXTERNAL SYMBOL
    SYMBOL:  _sys_read
    MODULE:  .\Debug\Output\yggdrasil.obj (YGGDRASIL)

*** ERROR L127: UNRESOLVED EXTERNAL SYMBOL
    SYMBOL:  response_length
    MODULE:  .\Debug\Output\yggdrasil.obj (YGGDRASIL)

*** ERROR L127: UNRESOLVED EXTERNAL SYMBOL
    SYMBOL:  response
    MODULE:  .\Debug\Output\yggdrasil.obj (YGGDRASIL)

*** ERROR L128: REFERENCE MADE TO UNRESOLVED EXTERNAL
    SYMBOL:  response_length
    MODULE:  .\Debug\Output\yggdrasil.obj (YGGDRASIL)
    ADDRESS: 10001A2H

*** ERROR L128: REFERENCE MADE TO UNRESOLVED EXTERNAL
    SYMBOL:  response_length
    MODULE:  .\Debug\Output\yggdrasil.obj (YGGDRASIL)
    ADDRESS: 10001D8H

*** ERROR L128: REFERENCE MADE TO UNRESOLVED EXTERNAL
    SYMBOL:  response_length
    MODULE:  .\Debug\Output\yggdrasil.obj (YGGDRASIL)
    ADDRESS: 10001F3H

*** ERROR L128: REFERENCE MADE TO UNRESOLVED EXTERNAL
    SYMBOL:  response_length
    MODULE:  .\Debug\Output\yggdrasil.obj (YGGDRASIL)
    ADDRESS: 1000200H

LX51 LINKER/LOCATER V3.51                                                             01/11/2013  15:44:20  PAGE 86


*** ERROR L128: REFERENCE MADE TO UNRESOLVED EXTERNAL
    SYMBOL:  response_length
    MODULE:  .\Debug\Output\yggdrasil.obj (YGGDRASIL)
    ADDRESS: 1000261H

*** ERROR L128: REFERENCE MADE TO UNRESOLVED EXTERNAL
    SYMBOL:  response_length
    MODULE:  .\Debug\Output\yggdrasil.obj (YGGDRASIL)
    ADDRESS: 10002F8H

*** ERROR L128: REFERENCE MADE TO UNRESOLVED EXTERNAL
    SYMBOL:  response_length
    MODULE:  .\Debug\Output\yggdrasil.obj (YGGDRASIL)
    ADDRESS: 100036EH

*** ERROR L128: REFERENCE MADE TO UNRESOLVED EXTERNAL
    SYMBOL:  response_length
    MODULE:  .\Debug\Output\yggdrasil.obj (YGGDRASIL)
    ADDRESS: 100041BH

*** ERROR L128: REFERENCE MADE TO UNRESOLVED EXTERNAL
    SYMBOL:  response_length
    MODULE:  .\Debug\Output\yggdrasil.obj (YGGDRASIL)
    ADDRESS: 100045EH

*** ERROR L128: REFERENCE MADE TO UNRESOLVED EXTERNAL
    SYMBOL:  response_length
    MODULE:  .\Debug\Output\yggdrasil.obj (YGGDRASIL)
    ADDRESS: 100046BH

*** ERROR L128: REFERENCE MADE TO UNRESOLVED EXTERNAL
    SYMBOL:  response
    MODULE:  .\Debug\Output\yggdrasil.obj (YGGDRASIL)
    ADDRESS: 1000474H

*** ERROR L128: REFERENCE MADE TO UNRESOLVED EXTERNAL
    SYMBOL:  response
    MODULE:  .\Debug\Output\yggdrasil.obj (YGGDRASIL)
    ADDRESS: 1000476H

*** ERROR L128: REFERENCE MADE TO UNRESOLVED EXTERNAL
    SYMBOL:  response_length
    MODULE:  .\Debug\Output\yggdrasil.obj (YGGDRASIL)
    ADDRESS: 10004A0H

*** ERROR L128: REFERENCE MADE TO UNRESOLVED EXTERNAL
    SYMBOL:  response
    MODULE:  .\Debug\Output\yggdrasil.obj (YGGDRASIL)
    ADDRESS: 10004B7H

*** ERROR L128: REFERENCE MADE TO UNRESOLVED EXTERNAL
    SYMBOL:  response
    MODULE:  .\Debug\Output\yggdrasil.obj (YGGDRASIL)
    ADDRESS: 10004B9H

*** ERROR L128: REFERENCE MADE TO UNRESOLVED EXTERNAL
    SYMBOL:  response_length
    MODULE:  .\Debug\Output\yggdrasil.obj (YGGDRASIL)
    ADDRESS: 10004E3H

*** ERROR L128: REFERENCE MADE TO UNRESOLVED EXTERNAL
    SYMBOL:  response_length
    MODULE:  .\Debug\Output\yggdrasil.obj (YGGDRASIL)
    ADDRESS: 1000507H

LX51 LINKER/LOCATER V3.51                                                             01/11/2013  15:44:20  PAGE 87


*** ERROR L128: REFERENCE MADE TO UNRESOLVED EXTERNAL
    SYMBOL:  response_length
    MODULE:  .\Debug\Output\yggdrasil.obj (YGGDRASIL)
    ADDRESS: 1000519H

*** ERROR L128: REFERENCE MADE TO UNRESOLVED EXTERNAL
    SYMBOL:  response_length
    MODULE:  .\Debug\Output\yggdrasil.obj (YGGDRASIL)
    ADDRESS: 10005AFH

*** ERROR L128: REFERENCE MADE TO UNRESOLVED EXTERNAL
    SYMBOL:  response_length
    MODULE:  .\Debug\Output\yggdrasil.obj (YGGDRASIL)
    ADDRESS: 1000672H

*** ERROR L128: REFERENCE MADE TO UNRESOLVED EXTERNAL
    SYMBOL:  response_length
    MODULE:  .\Debug\Output\yggdrasil.obj (YGGDRASIL)
    ADDRESS: 10006ECH

*** ERROR L128: REFERENCE MADE TO UNRESOLVED EXTERNAL
    SYMBOL:  response_length
    MODULE:  .\Debug\Output\yggdrasil.obj (YGGDRASIL)
    ADDRESS: 1000766H

*** ERROR L128: REFERENCE MADE TO UNRESOLVED EXTERNAL
    SYMBOL:  response_length
    MODULE:  .\Debug\Output\yggdrasil.obj (YGGDRASIL)
    ADDRESS: 1000861H

*** ERROR L128: REFERENCE MADE TO UNRESOLVED EXTERNAL
    SYMBOL:  response_length
    MODULE:  .\Debug\Output\yggdrasil.obj (YGGDRASIL)
    ADDRESS: 100089AH

*** ERROR L128: REFERENCE MADE TO UNRESOLVED EXTERNAL
    SYMBOL:  response_length
    MODULE:  .\Debug\Output\yggdrasil.obj (YGGDRASIL)
    ADDRESS: 10008AEH

*** ERROR L128: REFERENCE MADE TO UNRESOLVED EXTERNAL
    SYMBOL:  response_length
    MODULE:  .\Debug\Output\yggdrasil.obj (YGGDRASIL)
    ADDRESS: 10008C8H

*** ERROR L128: REFERENCE MADE TO UNRESOLVED EXTERNAL
    SYMBOL:  response_length
    MODULE:  .\Debug\Output\yggdrasil.obj (YGGDRASIL)
    ADDRESS: 10008D9H

*** ERROR L128: REFERENCE MADE TO UNRESOLVED EXTERNAL
    SYMBOL:  response_length
    MODULE:  .\Debug\Output\yggdrasil.obj (YGGDRASIL)
    ADDRESS: 1000913H

*** ERROR L128: REFERENCE MADE TO UNRESOLVED EXTERNAL
    SYMBOL:  _sys_select
    MODULE:  .\Debug\Output\yggdrasil.obj (YGGDRASIL)
    ADDRESS: 1000949H

*** ERROR L128: REFERENCE MADE TO UNRESOLVED EXTERNAL
    SYMBOL:  _sys_select
    MODULE:  .\Debug\Output\yggdrasil.obj (YGGDRASIL)
    ADDRESS: 1000950H

LX51 LINKER/LOCATER V3.51                                                             01/11/2013  15:44:20  PAGE 88


*** ERROR L128: REFERENCE MADE TO UNRESOLVED EXTERNAL
    SYMBOL:  _sys_read
    MODULE:  .\Debug\Output\yggdrasil.obj (YGGDRASIL)
    ADDRESS: 1000971H

*** ERROR L128: REFERENCE MADE TO UNRESOLVED EXTERNAL
    SYMBOL:  response_length
    MODULE:  .\Debug\Output\yggdrasil.obj (YGGDRASIL)
    ADDRESS: 100099BH

*** ERROR L128: REFERENCE MADE TO UNRESOLVED EXTERNAL
    SYMBOL:  response_length
    MODULE:  .\Debug\Output\yggdrasil.obj (YGGDRASIL)
    ADDRESS: 10009ABH

*** ERROR L128: REFERENCE MADE TO UNRESOLVED EXTERNAL
    SYMBOL:  response_length
    MODULE:  .\Debug\Output\yggdrasil.obj (YGGDRASIL)
    ADDRESS: 10009BFH

*** ERROR L128: REFERENCE MADE TO UNRESOLVED EXTERNAL
    SYMBOL:  response_length
    MODULE:  .\Debug\Output\yggdrasil.obj (YGGDRASIL)
    ADDRESS: 1000A12H

*** ERROR L128: REFERENCE MADE TO UNRESOLVED EXTERNAL
    SYMBOL:  response_length
    MODULE:  .\Debug\Output\yggdrasil.obj (YGGDRASIL)
    ADDRESS: 1000AC0H

*** ERROR L128: REFERENCE MADE TO UNRESOLVED EXTERNAL
    SYMBOL:  response_length
    MODULE:  .\Debug\Output\yggdrasil.obj (YGGDRASIL)
    ADDRESS: 1000BCCH

*** ERROR L128: REFERENCE MADE TO UNRESOLVED EXTERNAL
    SYMBOL:  response_length
    MODULE:  .\Debug\Output\yggdrasil.obj (YGGDRASIL)
    ADDRESS: 1000C32H

*** ERROR L128: REFERENCE MADE TO UNRESOLVED EXTERNAL
    SYMBOL:  response_length
    MODULE:  .\Debug\Output\yggdrasil.obj (YGGDRASIL)
    ADDRESS: 1000C4BH

*** ERROR L128: REFERENCE MADE TO UNRESOLVED EXTERNAL
    SYMBOL:  response_length
    MODULE:  .\Debug\Output\yggdrasil.obj (YGGDRASIL)
    ADDRESS: 1000C66H

*** ERROR L128: REFERENCE MADE TO UNRESOLVED EXTERNAL
    SYMBOL:  response_length
    MODULE:  .\Debug\Output\yggdrasil.obj (YGGDRASIL)
    ADDRESS: 1000C81H

*** ERROR L128: REFERENCE MADE TO UNRESOLVED EXTERNAL
    SYMBOL:  response_length
    MODULE:  .\Debug\Output\yggdrasil.obj (YGGDRASIL)
    ADDRESS: 1000C9FH

*** ERROR L128: REFERENCE MADE TO UNRESOLVED EXTERNAL
    SYMBOL:  response_length
    MODULE:  .\Debug\Output\yggdrasil.obj (YGGDRASIL)
    ADDRESS: 1000CFFH

LX51 LINKER/LOCATER V3.51                                                             01/11/2013  15:44:20  PAGE 89


*** ERROR L128: REFERENCE MADE TO UNRESOLVED EXTERNAL
    SYMBOL:  response_length
    MODULE:  .\Debug\Output\yggdrasil.obj (YGGDRASIL)
    ADDRESS: 1000D0CH

*** ERROR L128: REFERENCE MADE TO UNRESOLVED EXTERNAL
    SYMBOL:  response_length
    MODULE:  .\Debug\Output\yggdrasil.obj (YGGDRASIL)
    ADDRESS: 1000D50H

*** ERROR L128: REFERENCE MADE TO UNRESOLVED EXTERNAL
    SYMBOL:  response_length
    MODULE:  .\Debug\Output\yggdrasil.obj (YGGDRASIL)
    ADDRESS: 1000E17H

*** ERROR L128: REFERENCE MADE TO UNRESOLVED EXTERNAL
    SYMBOL:  response_length
    MODULE:  .\Debug\Output\yggdrasil.obj (YGGDRASIL)
    ADDRESS: 1000E2CH

*** ERROR L128: REFERENCE MADE TO UNRESOLVED EXTERNAL
    SYMBOL:  response_length
    MODULE:  .\Debug\Output\yggdrasil.obj (YGGDRASIL)
    ADDRESS: 1000E6EH

*** ERROR L128: REFERENCE MADE TO UNRESOLVED EXTERNAL
    SYMBOL:  response_length
    MODULE:  .\Debug\Output\yggdrasil.obj (YGGDRASIL)
    ADDRESS: 1000F2FH

*** ERROR L128: REFERENCE MADE TO UNRESOLVED EXTERNAL
    SYMBOL:  response_length
    MODULE:  .\Debug\Output\yggdrasil.obj (YGGDRASIL)
    ADDRESS: 1000F44H

*** ERROR L128: REFERENCE MADE TO UNRESOLVED EXTERNAL
    SYMBOL:  response_length
    MODULE:  .\Debug\Output\yggdrasil.obj (YGGDRASIL)
    ADDRESS: 1000F86H

*** ERROR L128: REFERENCE MADE TO UNRESOLVED EXTERNAL
    SYMBOL:  response_length
    MODULE:  .\Debug\Output\yggdrasil.obj (YGGDRASIL)
    ADDRESS: 1001049H

*** ERROR L128: REFERENCE MADE TO UNRESOLVED EXTERNAL
    SYMBOL:  response_length
    MODULE:  .\Debug\Output\yggdrasil.obj (YGGDRASIL)
    ADDRESS: 100105EH

*** ERROR L128: REFERENCE MADE TO UNRESOLVED EXTERNAL
    SYMBOL:  response_length
    MODULE:  .\Debug\Output\yggdrasil.obj (YGGDRASIL)
    ADDRESS: 10010A1H

*** ERROR L128: REFERENCE MADE TO UNRESOLVED EXTERNAL
    SYMBOL:  response_length
    MODULE:  .\Debug\Output\yggdrasil.obj (YGGDRASIL)
    ADDRESS: 10010FDH

*** ERROR L128: REFERENCE MADE TO UNRESOLVED EXTERNAL
    SYMBOL:  response_length
    MODULE:  .\Debug\Output\yggdrasil.obj (YGGDRASIL)
    ADDRESS: 1001181H

LX51 LINKER/LOCATER V3.51                                                             01/11/2013  15:44:20  PAGE 90


*** ERROR L128: REFERENCE MADE TO UNRESOLVED EXTERNAL
    SYMBOL:  response_length
    MODULE:  .\Debug\Output\yggdrasil.obj (YGGDRASIL)
    ADDRESS: 100118AH

Program Size: data=78.1 xdata=1787 const=2545 code=27036
LX51 RUN COMPLETE.  33 WARNING(S),  66 ERROR(S)
