LX51 LINKER/LOCATER V3.51                                                               01/27/2014  09:14:18  PAGE 1


LX51 LINKER/LOCATER V3.51, INVOKED BY:
C:\KEIL51\C51\BIN\LX51.EXE .\Debug\Output\STARTUP.obj, .\Debug\Output\Main.obj, .\Debug\Output\YGGDRASIL_APIS.obj, .\Deb
>> ug\Output\ISO7816_Main.obj, .\Debug\Output\ISO7816_API.obj, .\Debug\Output\ISO7816_Interrupt.obj, .\Debug\Output\NORF
>> lash.obj, .\Debug\Output\file.obj, .\Debug\Output\fs.obj, .\Debug\Output\security.obj, .\Debug\Output\midgard.obj, .\
>> Debug\Output\A3A8.obj, .\Debug\Output\crc.obj, .\Debug\Output\mem.obj, .\Debug\Output\algorithm.obj, .\Debug\Output\i
>> oman.obj, .\Debug\Output\flash.obj, .\Debug\Output\yggdrasil.obj, .\Debug\Output\application.obj, .\Debug\Output\SAT.
>> obj, .\Debug\Output\Liquid.obj, .\Debug\Output\SMS.obj, .\Debug\Output\WIB.obj, .\Debug\Output\VAS.obj, .\Debug\Outpu
>> t\RFM.obj, .\Debug\Output\DES.obj, .\Debug\Output\DCS.obj, .\Debug\Output\mdil.obj, .\Debug\Output\vdil.obj, .\Debug\
>> Output\decr.obj, .\Debug\Output\ditr.obj, .\Debug\Output\encr.obj, .\Debug\Output\masl.obj, .\Debug\Output\iccid.obj 
>> TO .\Debug\Output\Yggdrasil20 CASE CLASSES (DATA (D:0X0-D:0X7D), IDATA (I:0X0-I:0XFF), XDATA (X:0X0000-X:0X07EF), COD
>> E (C:0X0200-C:0XFFFF), CONST (C:0X0200-C:0XFFFF))


CPU MODE:     8051 MODE
MEMORY MODEL: LARGE


INPUT MODULES INCLUDED:
  .\Debug\Output\STARTUP.obj (?C_STARTUP)
         COMMENT TYPE 1: A51 / ASM51 Assembler
  .\Debug\Output\Main.obj (MAIN)
         COMMENT TYPE 1: A51 / ASM51 Assembler
  .\Debug\Output\YGGDRASIL_APIS.obj (TMR0_ISR)
         COMMENT TYPE 1: A51 / ASM51 Assembler
  .\Debug\Output\ISO7816_Main.obj (ISO7816_MAIN)
         COMMENT TYPE 0: C51 V7.01
  .\Debug\Output\ISO7816_API.obj (ISO7816_API)
         COMMENT TYPE 0: C51 V7.01
  .\Debug\Output\ISO7816_Interrupt.obj (ISO7816_INTERRUPT)
         COMMENT TYPE 1: A51 / ASM51 Assembler
  .\Debug\Output\NORFlash.obj (NORFLASH)
         COMMENT TYPE 0: C51 V7.01
  .\Debug\Output\file.obj (FILE)
         COMMENT TYPE 0: C51 V7.01
  .\Debug\Output\fs.obj (FS)
         COMMENT TYPE 0: C51 V7.01
  .\Debug\Output\security.obj (SECURITY)
         COMMENT TYPE 0: C51 V7.01
  .\Debug\Output\midgard.obj (MIDGARD)
         COMMENT TYPE 0: C51 V7.01
  .\Debug\Output\A3A8.obj (A3A8)
         COMMENT TYPE 0: C51 V7.01
  .\Debug\Output\crc.obj (CRC)
         COMMENT TYPE 0: C51 V7.01
  .\Debug\Output\mem.obj (MEM)
         COMMENT TYPE 0: C51 V7.01
  .\Debug\Output\algorithm.obj (ALGORITHM)
         COMMENT TYPE 0: C51 V7.01
  .\Debug\Output\ioman.obj (IOMAN)
         COMMENT TYPE 0: C51 V7.01
  .\Debug\Output\flash.obj (FLASH)
         COMMENT TYPE 0: C51 V7.01
  .\Debug\Output\yggdrasil.obj (YGGDRASIL)
         COMMENT TYPE 0: C51 V7.01
  .\Debug\Output\application.obj (APPLICATION)
         COMMENT TYPE 0: C51 V7.01
  .\Debug\Output\SAT.obj (SAT)
         COMMENT TYPE 0: C51 V7.01
  .\Debug\Output\Liquid.obj (LIQUID)
         COMMENT TYPE 0: C51 V7.01
  .\Debug\Output\SMS.obj (SMS)
         COMMENT TYPE 0: C51 V7.01
  .\Debug\Output\WIB.obj (WIB)
         COMMENT TYPE 0: C51 V7.01
  .\Debug\Output\VAS.obj (VAS)
         COMMENT TYPE 0: C51 V7.01
LX51 LINKER/LOCATER V3.51                                                             01/27/2014  09:14:18  PAGE 2


  .\Debug\Output\RFM.obj (RFM)
         COMMENT TYPE 0: C51 V7.01
  .\Debug\Output\DES.obj (DES)
         COMMENT TYPE 0: C51 V7.01
  .\Debug\Output\DCS.obj (DCS)
         COMMENT TYPE 0: C51 V7.01
  .\Debug\Output\mdil.obj (MDIL)
         COMMENT TYPE 0: C51 V7.01
  .\Debug\Output\vdil.obj (VDIL)
         COMMENT TYPE 0: C51 V7.01
  .\Debug\Output\decr.obj (DECR)
         COMMENT TYPE 0: C51 V7.01
  .\Debug\Output\ditr.obj (DITR)
         COMMENT TYPE 0: C51 V7.01
  .\Debug\Output\encr.obj (ENCR)
         COMMENT TYPE 0: C51 V7.01
  .\Debug\Output\masl.obj (MASL)
         COMMENT TYPE 0: C51 V7.01
  .\Debug\Output\iccid.obj (ICCID)
         COMMENT TYPE 0: C51 V7.01
  C:\KEIL51\C51\LIB\C51L.LIB (?C_INIT)
         COMMENT TYPE 1: A51 / ASM51 Assembler
  C:\KEIL51\C51\LIB\C51L.LIB (?C?COPY)
         COMMENT TYPE 1: A51 / ASM51 Assembler
  C:\KEIL51\C51\LIB\C51L.LIB (?C?CLDPTR)
         COMMENT TYPE 1: A51 / ASM51 Assembler
  C:\KEIL51\C51\LIB\C51L.LIB (?C?CLDOPTR)
         COMMENT TYPE 1: A51 / ASM51 Assembler
  C:\KEIL51\C51\LIB\C51L.LIB (?C?CILDOPTR)
         COMMENT TYPE 1: A51 / ASM51 Assembler
  C:\KEIL51\C51\LIB\C51L.LIB (?C?CSTPTR)
         COMMENT TYPE 1: A51 / ASM51 Assembler
  C:\KEIL51\C51\LIB\C51L.LIB (?C?CSTOPTR)
         COMMENT TYPE 1: A51 / ASM51 Assembler
  C:\KEIL51\C51\LIB\C51L.LIB (?C?IMUL)
         COMMENT TYPE 1: A51 / ASM51 Assembler
  C:\KEIL51\C51\LIB\C51L.LIB (?C?UIDIV)
         COMMENT TYPE 1: A51 / ASM51 Assembler
  C:\KEIL51\C51\LIB\C51L.LIB (?C?SIDIV)
         COMMENT TYPE 1: A51 / ASM51 Assembler
  C:\KEIL51\C51\LIB\C51L.LIB (?C?IILDX)
         COMMENT TYPE 1: A51 / ASM51 Assembler
  C:\KEIL51\C51\LIB\C51L.LIB (?C?ILDIX)
         COMMENT TYPE 1: A51 / ASM51 Assembler
  C:\KEIL51\C51\LIB\C51L.LIB (?C?ILDPTR)
         COMMENT TYPE 1: A51 / ASM51 Assembler
  C:\KEIL51\C51\LIB\C51L.LIB (?C?ILDOPTR)
         COMMENT TYPE 1: A51 / ASM51 Assembler
  C:\KEIL51\C51\LIB\C51L.LIB (?C?ISTPTR)
         COMMENT TYPE 1: A51 / ASM51 Assembler
  C:\KEIL51\C51\LIB\C51L.LIB (?C?ISTOPTR)
         COMMENT TYPE 1: A51 / ASM51 Assembler
  C:\KEIL51\C51\LIB\C51L.LIB (?C?LADD)
         COMMENT TYPE 1: A51 / ASM51 Assembler
  C:\KEIL51\C51\LIB\C51L.LIB (?C?LSUB)
         COMMENT TYPE 1: A51 / ASM51 Assembler
  C:\KEIL51\C51\LIB\C51L.LIB (?C?LXOR)
         COMMENT TYPE 1: A51 / ASM51 Assembler
  C:\KEIL51\C51\LIB\C51L.LIB (?C?LNOT)
         COMMENT TYPE 1: A51 / ASM51 Assembler
  C:\KEIL51\C51\LIB\C51L.LIB (?C?SLCMP)
         COMMENT TYPE 1: A51 / ASM51 Assembler
  C:\KEIL51\C51\LIB\C51L.LIB (?C?ULCMP)
         COMMENT TYPE 1: A51 / ASM51 Assembler
  C:\KEIL51\C51\LIB\C51L.LIB (?C?ULSHR)
LX51 LINKER/LOCATER V3.51                                                             01/27/2014  09:14:18  PAGE 3


         COMMENT TYPE 1: A51 / ASM51 Assembler
  C:\KEIL51\C51\LIB\C51L.LIB (?C?LSHL)
         COMMENT TYPE 1: A51 / ASM51 Assembler
  C:\KEIL51\C51\LIB\C51L.LIB (?C?LLDOPTR)
         COMMENT TYPE 1: A51 / ASM51 Assembler
  C:\KEIL51\C51\LIB\C51L.LIB (?C?LSTOPTR)
         COMMENT TYPE 1: A51 / ASM51 Assembler
  C:\KEIL51\C51\LIB\C51L.LIB (?C?LLDXDATA)
         COMMENT TYPE 1: A51 / ASM51 Assembler
  C:\KEIL51\C51\LIB\C51L.LIB (?C?LLDXDATA0)
         COMMENT TYPE 1: A51 / ASM51 Assembler
  C:\KEIL51\C51\LIB\C51L.LIB (?C?LSTXDATA)
         COMMENT TYPE 1: A51 / ASM51 Assembler
  C:\KEIL51\C51\LIB\C51L.LIB (?C?LSTKXDATA)
         COMMENT TYPE 1: A51 / ASM51 Assembler
  C:\KEIL51\C51\LIB\C51L.LIB (?C?PLDXDATA)
         COMMENT TYPE 1: A51 / ASM51 Assembler
  C:\KEIL51\C51\LIB\C51L.LIB (?C?PLDIXDATA)
         COMMENT TYPE 1: A51 / ASM51 Assembler
  C:\KEIL51\C51\LIB\C51L.LIB (?C?PSTXDATA)
         COMMENT TYPE 1: A51 / ASM51 Assembler
  C:\KEIL51\C51\LIB\C51L.LIB (?C?PLDPTR)
         COMMENT TYPE 1: A51 / ASM51 Assembler
  C:\KEIL51\C51\LIB\C51L.LIB (?C?PSTPTR)
         COMMENT TYPE 1: A51 / ASM51 Assembler
  C:\KEIL51\C51\LIB\C51L.LIB (?C?PLDOPTR)
         COMMENT TYPE 1: A51 / ASM51 Assembler
  C:\KEIL51\C51\LIB\C51L.LIB (?C?PSTOPTR)
         COMMENT TYPE 1: A51 / ASM51 Assembler
  C:\KEIL51\C51\LIB\C51L.LIB (?C?CCASE)
         COMMENT TYPE 1: A51 / ASM51 Assembler
  C:\KEIL51\C51\LIB\C51L.LIB (?C?ICASE)
         COMMENT TYPE 1: A51 / ASM51 Assembler
  C:\KEIL51\C51\LIB\C51L.LIB (?C_XBP)
         COMMENT TYPE 1: A51 / ASM51 Assembler
  C:\KEIL51\C51\LIB\C51L.LIB (?C?ADDXBP)
         COMMENT TYPE 1: A51 / ASM51 Assembler
  C:\KEIL51\C51\LIB\C51L.LIB (?C?XBPOFF)
         COMMENT TYPE 1: A51 / ASM51 Assembler
  C:\KEIL51\C51\LIB\C51L.LIB (?C?STRCPY)
         COMMENT TYPE 1: A51 / ASM51 Assembler
  C:\KEIL51\C51\LIB\C51L.LIB (STRLEN)
         COMMENT TYPE 1: A51 / ASM51 Assembler
  C:\KEIL51\C51\LIB\C51L.LIB (?C?MEMCMP)
         COMMENT TYPE 1: A51 / ASM51 Assembler
  C:\KEIL51\C51\LIB\C51L.LIB (?C?MEMSET)
         COMMENT TYPE 1: A51 / ASM51 Assembler
  C:\KEIL51\C51\LIB\C51L.LIB (?C?LLDIDATA)
         COMMENT TYPE 1: A51 / ASM51 Assembler
  C:\KEIL51\C51\LIB\C51L.LIB (?C?LLDPDATA)
         COMMENT TYPE 1: A51 / ASM51 Assembler
  C:\KEIL51\C51\LIB\C51L.LIB (?C?LLDCODE)
         COMMENT TYPE 1: A51 / ASM51 Assembler
  C:\KEIL51\C51\LIB\C51L.LIB (?C?LSTIDATA)
         COMMENT TYPE 1: A51 / ASM51 Assembler
  C:\KEIL51\C51\LIB\C51L.LIB (?C?LSTPDATA)
         COMMENT TYPE 1: A51 / ASM51 Assembler
  C:\KEIL51\C51\LIB\C51L.LIB (?C?PLDIDATA)
         COMMENT TYPE 1: A51 / ASM51 Assembler
  C:\KEIL51\C51\LIB\C51L.LIB (?C?PSTIDATA)
         COMMENT TYPE 1: A51 / ASM51 Assembler
  C:\KEIL51\C51\LIB\C51L.LIB (?C?PLDPDATA)
         COMMENT TYPE 1: A51 / ASM51 Assembler
  C:\KEIL51\C51\LIB\C51L.LIB (?C?PSTPDATA)
         COMMENT TYPE 1: A51 / ASM51 Assembler
LX51 LINKER/LOCATER V3.51                                                             01/27/2014  09:14:18  PAGE 4


  C:\KEIL51\C51\LIB\C51L.LIB (?C?PLDCODE)
         COMMENT TYPE 1: A51 / ASM51 Assembler


ACTIVE MEMORY CLASSES OF MODULE:  .\Debug\Output\Yggdrasil20 (?C_STARTUP)

BASE        START       END         USED      MEMORY CLASS
==========================================================
I:000000H   I:000000H   I:00007DH   00000AH   DATA
I:000000H   I:000000H   I:0000FFH   000040H   IDATA
X:000000H   X:000000H   X:0007EFH   0006E7H   XDATA
C:000000H   C:000200H   C:00FFFFH   00FA91H   CODE
C:000000H   C:000200H   C:00FFFFH   00049DH   CONST


MEMORY MAP OF MODULE:  .\Debug\Output\Yggdrasil20 (?C_STARTUP)


START     STOP      LENGTH    ALIGN  RELOC    MEMORY CLASS   SEGMENT NAME
=========================================================================

* * * * * * * * * * *   D A T A   M E M O R Y   * * * * * * * * * * * * *
000000H   000007H   000008H   ---    AT..     DATA           "REG BANK 0"
000008H   000009H   000002H   BYTE   UNIT     DATA           ?C?LIB_DATA
00000AH   000049H   000040H   BYTE   UNIT     IDATA          ?STACK

* * * * * * * * * * *   C O D E   M E M O R Y   * * * * * * * * * * * * *
000000H   000002H   000003H   ---    OFFS..   CODE           ?CO??C_STARTUP?0
000003H   00000AH   000008H   ---    OFFS..   CODE           ?CO??C_STARTUP?1
00000BH   000012H   000008H   ---    OFFS..   CODE           ?CO??C_STARTUP?2
000013H   00001AH   000008H   ---    OFFS..   CODE           ?CO??C_STARTUP?3
00001BH   000022H   000008H   ---    OFFS..   CODE           ?CO??C_STARTUP?4
000023H   00002AH   000008H   ---    OFFS..   CODE           ?CO??C_STARTUP?5
00002BH   000032H   000008H   ---    OFFS..   CODE           ?CO??C_STARTUP?6
000033H   00003AH   000008H   ---    OFFS..   CODE           ?CO??C_STARTUP?7
00003BH   00003EH   000004H   ---    OFFS..   CODE           ?CO?TMR0_ISR?0
00003FH   000042H   000004H   ---    OFFS..   CODE           ?CO?TMR0_ISR?1
000043H   000046H   000004H   ---    ---      **GAP**
000047H   00004AH   000004H   ---    OFFS..   CODE           ?CO?TMR0_ISR?2
00004BH   00004EH   000004H   ---    OFFS..   CODE           ?CO?TMR0_ISR?3
00004FH   000052H   000004H   ---    OFFS..   CODE           ?CO?TMR0_ISR?4
000053H   000056H   000004H   ---    OFFS..   CODE           ?CO?TMR0_ISR?5
000057H   00005AH   000004H   ---    OFFS..   CODE           ?CO?TMR0_ISR?6
00005BH   00005EH   000004H   ---    OFFS..   CODE           ?CO?TMR0_ISR?7
00005FH   000062H   000004H   ---    OFFS..   CODE           ?CO?TMR0_ISR?8
000063H   000066H   000004H   ---    OFFS..   CODE           ?CO?TMR0_ISR?9
000067H   00006AH   000004H   ---    OFFS..   CODE           ?CO?TMR0_ISR?10
00006BH   00006EH   000004H   ---    OFFS..   CODE           ?CO?TMR0_ISR?11
00006FH   000072H   000004H   ---    OFFS..   CODE           ?CO?TMR0_ISR?12
000073H   000076H   000004H   ---    OFFS..   CODE           ?CO?TMR0_ISR?13
000077H   00007AH   000004H   ---    OFFS..   CODE           ?CO?TMR0_ISR?14
00007BH   00007EH   000004H   ---    OFFS..   CODE           ?CO?TMR0_ISR?15
00007FH   000082H   000004H   ---    OFFS..   CODE           ?CO?TMR0_ISR?16
000083H   000086H   000004H   ---    OFFS..   CODE           ?CO?TMR0_ISR?17
000087H   00008AH   000004H   ---    OFFS..   CODE           ?CO?TMR0_ISR?18
00008BH   00008EH   000004H   ---    OFFS..   CODE           ?CO?TMR0_ISR?19
00008FH   000092H   000004H   ---    OFFS..   CODE           ?CO?TMR0_ISR?20
000093H   000096H   000004H   ---    OFFS..   CODE           ?CO?TMR0_ISR?21
000097H   00009AH   000004H   ---    OFFS..   CODE           ?CO?TMR0_ISR?22
00009BH   00009EH   000004H   ---    OFFS..   CODE           ?CO?TMR0_ISR?23
00009FH   0000A2H   000004H   ---    OFFS..   CODE           ?CO?TMR0_ISR?24
0000A3H   0000A6H   000004H   ---    OFFS..   CODE           ?CO?TMR0_ISR?25
0000A7H   0000AAH   000004H   ---    OFFS..   CODE           ?CO?TMR0_ISR?26
0000ABH   0000AEH   000004H   ---    OFFS..   CODE           ?CO?TMR0_ISR?27
0000AFH   0000B2H   000004H   ---    OFFS..   CODE           ?CO?TMR0_ISR?28
LX51 LINKER/LOCATER V3.51                                                             01/27/2014  09:14:18  PAGE 5


0000B3H   0000B6H   000004H   ---    OFFS..   CODE           ?CO?TMR0_ISR?29
0000B7H   0000BAH   000004H   ---    OFFS..   CODE           ?CO?TMR0_ISR?30
0000BBH   0000BEH   000004H   ---    OFFS..   CODE           ?CO?TMR0_ISR?31
0000BFH   0000C2H   000004H   ---    OFFS..   CODE           ?CO?TMR0_ISR?32
0000C3H   0000C6H   000004H   ---    OFFS..   CODE           ?CO?TMR0_ISR?33
0000C7H   0000CAH   000004H   ---    OFFS..   CODE           ?CO?TMR0_ISR?34
0000CBH   0000E2H   000018H   ---    ---      **GAP**
0000E3H   0000E6H   000004H   ---    OFFS..   CODE           ?CO?TMR0_ISR?35
0000E7H   0000EAH   000004H   ---    OFFS..   CODE           ?CO?TMR0_ISR?36
0000EBH   0000F2H   000008H   ---    ---      **GAP**
0000F3H   0000F6H   000004H   ---    OFFS..   CODE           ?CO?TMR0_ISR?37
0000F7H   0000FAH   000004H   ---    OFFS..   CODE           ?CO?TMR0_ISR?38
0000FBH   0000FEH   000004H   ---    OFFS..   CODE           ?CO?TMR0_ISR?39
0000FFH   000102H   000004H   ---    OFFS..   CODE           ?CO?TMR0_ISR?40
000103H   000106H   000004H   ---    OFFS..   CODE           ?CO?TMR0_ISR?41
000107H   00010AH   000004H   ---    OFFS..   CODE           ?CO?TMR0_ISR?42
00010BH   0001AAH   0000A0H   ---    OFFS..   CODE           ?CO?TMR0_ISR?43
0001ABH   0001FFH   000055H   ---    ---      **GAP**
000200H   001816H   001617H   BYTE   UNIT     CODE           ?PR?_?USER_CALLBACK?APPLICATION
001817H   001FFDH   0007E7H   BYTE   UNIT     CODE           ?PR?_?IOMAN_WRITE_BUFFER?IOMAN
001FFEH   001FFFH   000002H   ---    ---      **GAP**
002000H   002097H   000098H   ---    OFFS..   CODE           ?CO??C_STARTUP?8
002098H   0033D8H   001341H   BYTE   UNIT     CODE           ?PR?_YGGDRASIL_DECODE?YGGDRASIL
0033D9H   0045C2H   0011EAH   BYTE   UNIT     CODE           ?PR?_?VAS_DECODE?VAS
0045C3H   004EDCH   00091AH   BYTE   UNIT     CODE           ?C?LIB_CODE
004EDDH   005405H   000529H   BYTE   UNIT     CODE           ?PR?_?P348_DECODE_COMMAND_PACKET?SMS
005406H   00592DH   000528H   BYTE   UNIT     CODE           ?PR?_?BIFROST_DECODE?YGGDRASIL
00592EH   005DFBH   0004CEH   BYTE   UNIT     CODE           ?CO?APPLICATION
005DFCH   00629AH   00049FH   BYTE   UNIT     CODE           ?PR?_?AUTH_A3A8?A3A8
00629BH   006606H   00036CH   BYTE   UNIT     CODE           ?PR?_?DECODE_SMSPPPACKET?SMS
006607H   00696BH   000365H   BYTE   UNIT     CODE           ?PR?_?ENCODE_827?DCS
00696CH   006CCDH   000362H   BYTE   UNIT     CODE           ?PR?_?_SEEK?FILE
006CCEH   007028H   00035BH   BYTE   UNIT     CODE           ?PR?_?VAS_GET_SECURITY_CONFIG?WIB
007029H   00736BH   000343H   BYTE   UNIT     CODE           ?PR?FILE
00736CH   00769BH   000330H   BYTE   UNIT     CODE           ?PR?APPLICATION
00769CH   00797AH   0002DFH   BYTE   UNIT     CODE           ?PR?YGGDRASIL
00797BH   007C48H   0002CEH   BYTE   UNIT     CODE           ?PR?VAS
007C49H   007EF5H   0002ADH   BYTE   UNIT     CODE           ?PR?_?VAS_SCRIPT_FETCH?VAS
007EF6H   007FFFH   00010AH   BYTE   UNIT     CODE           ?PR?_?FILE_REMOVE_ENTRY?FILE
008000H   008000H   000001H   ---    OFFS..   CODE           ?CO?TMR0_ISR?44
008001H   00828AH   00028AH   BYTE   UNIT     CODE           ?PR?_?SEND_REGISTRATION?APPLICATION
00828BH   00850BH   000281H   BYTE   UNIT     CODE           ?PR?_?VAS_INVOKE?WIB
00850CH   008784H   000279H   BYTE   UNIT     CODE           ?PR?_?FS_ALLOC?FS
008785H   0089E5H   000261H   BYTE   UNIT     CODE           ?PR?_?VAS_PREPROCESS?WIB
0089E6H   008C41H   00025CH   BYTE   UNIT     CODE           ?PR?_?LS_PRINTF?MEM
008C42H   008E9AH   000259H   BYTE   UNIT     CODE           ?PR?_?P348_ENCODE_COMMAND_PACKET?SMS
008E9BH   0090EDH   000253H   BYTE   UNIT     CODE           ?PR?_?SEND_STATUS?YGGDRASIL
0090EEH   00932FH   000242H   BYTE   UNIT     CODE           ?PR?_?RFM_DECODE?RFM
009330H   00956EH   00023FH   BYTE   UNIT     CODE           ?PR?_?DES_FILEOPERATION?DES
00956FH   009775H   000207H   BYTE   UNIT     CODE           ?PR?_?IOMAN_READ_BUFFER?IOMAN
009776H   00996BH   0001F6H   BYTE   UNIT     CODE           ?PR?_?_INCREASE?FILE
00996CH   009B4EH   0001E3H   BYTE   UNIT     CODE           ?PR?_?_WRITEREC?FILE
009B4FH   009D1FH   0001D1H   BYTE   UNIT     CODE           ?PR?_?FS_FORMAT?FS
009D20H   009EE1H   0001C2H   BYTE   UNIT     CODE           ?PR?SMS
009EE2H   00A095H   0001B4H   BYTE   UNIT     CODE           ?PR?WIB
00A096H   00A246H   0001B1H   BYTE   UNIT     CODE           ?PR?_?DES_MEMOPERATION?DES
00A247H   00A3E6H   0001A0H   BYTE   UNIT     CODE           ?PR?_?VAS_MENU?WIB
00A3E7H   00A582H   00019CH   BYTE   UNIT     CODE           ?PR?_?_SELECT?FILE
00A583H   00A717H   000195H   BYTE   UNIT     CODE           ?PR?_?DECODE_SMSTPDU?SMS
00A718H   00A89BH   000184H   BYTE   UNIT     CODE           ?PR?_?M_ALLOC?MIDGARD
00A89CH   00AA1EH   000183H   BYTE   UNIT     CODE           ?PR?_?_REMOVE?FILE
00AA1FH   00AB9EH   000180H   BYTE   UNIT     CODE           ?PR?_?FS_DEALLOC?FS
00AB9FH   00AD17H   000179H   BYTE   UNIT     CODE           ?PR?_UPDATEFLASH?ISO7816_API
00AD18H   00AE8DH   000176H   BYTE   UNIT     CODE           ?PR?_?SAT_PRINTF?SAT
00AE8EH   00AFF9H   00016CH   BYTE   UNIT     CODE           ?PR?_?_READREC?FILE
LX51 LINKER/LOCATER V3.51                                                             01/27/2014  09:14:18  PAGE 6


00AFFAH   00B161H   000168H   BYTE   UNIT     CODE           ?PR?_?IOMAN_PROGRAM_COPY?IOMAN
00B162H   00B2BFH   00015EH   BYTE   UNIT     CODE           ?PR?_?ENCODE_SMSTPDU?SMS
00B2C0H   00B40CH   00014DH   BYTE   UNIT     CODE           ?PR?FS
00B40DH   00B559H   00014DH   BYTE   UNIT     CODE           ?PR?_?SET_VARIABLE?VAS
00B55AH   00B6A4H   00014BH   BYTE   UNIT     CODE           ?PR?_?VAS_EXECUTE?VAS
00B6A5H   00B7E3H   00013FH   BYTE   UNIT     CODE           ?PR?ISO7816_API
00B7E4H   00B921H   00013EH   BYTE   UNIT     CODE           ?PR?DES
00B922H   00BA5EH   00013DH   BYTE   UNIT     CODE           ?PR?_?VAS_REPLAY_CHECK?WIB
00BA5FH   00BB98H   00013AH   BYTE   UNIT     CODE           ?PR?SECURITY
00BB99H   00BCC7H   00012FH   BYTE   UNIT     CODE           ?PR?_?FS_GENERATE_FSH?FS
00BCC8H   00BDF3H   00012CH   BYTE   UNIT     CODE           ?PR?_?MAC_ALGORITHM3?ISO7816_API
00BDF4H   00BF1BH   000128H   BYTE   UNIT     CODE           ?PR?_?DECODE_728?DCS
00BF1CH   00C042H   000127H   BYTE   UNIT     CODE           ?PR?_?MAZE_INIT?IOMAN
00C043H   00C164H   000122H   BYTE   UNIT     CODE           ?PR?_?VAS_SUBSTITUTE?VAS
00C165H   00C27AH   000116H   BYTE   UNIT     CODE           ?PR?_?FILE_CHECK_STATUS?FILE
00C27BH   00C38DH   000113H   BYTE   UNIT     CODE           ?PR?_?IS_DATE_VALID?APPLICATION
00C38EH   00C49BH   00010EH   BYTE   UNIT     CODE           ?PR?_?IOMAN_WRITE_PROGRAM?IOMAN
00C49CH   00C5A1H   000106H   BYTE   UNIT     CODE           ?PR?_?_CREATEFILEBIN?FILE
00C5A2H   00C6A6H   000105H   BYTE   UNIT     CODE           ?PR?_?_CREATEDIRECTORY?FILE
00C6A7H   00C7A6H   000100H   BYTE   UNIT     CODE           ?PR?_?_CREATEFILEREC?FILE
00C7A7H   00C8A4H   0000FEH   BYTE   UNIT     CODE           ?PR?ISO7816_MAIN?ISO7816_MAIN
00C8A5H   00C99FH   0000FBH   BYTE   UNIT     CODE           ?PR?_?KMP_PREPROCESS?ALGORITHM
00C9A0H   00CA93H   0000F4H   BYTE   UNIT     CODE           ?PR?_?VAS_EVENT?WIB
00CA94H   00CB85H   0000F2H   BYTE   UNIT     CODE           ?PR?_?_CREATEFILECYCLIC?FILE
00CB86H   00CC6DH   0000E8H   BYTE   UNIT     CODE           ?PR?_?FILE_ADD_ENTRY?FILE
00CC6EH   00CD4AH   0000DDH   BYTE   UNIT     CODE           ?PR?_?FILECRC32?CRC
00CD4BH   00CE26H   0000DCH   BYTE   UNIT     CODE           ?PR?_?LIQUID_PROFILE?LIQUID
00CE27H   00CEFFH   0000D9H   BYTE   UNIT     CODE           ?PR?_?VAS_LOAD_TEXT?WIB
00CF00H   00CFD8H   0000D9H   BYTE   UNIT     CODE           ?PR?_?CLEAR_LIST?VAS
00CFD9H   00D0A9H   0000D1H   BYTE   UNIT     CODE           ?PR?_?P348_CREATE_HEADER?SMS
00D0AAH   00D165H   0000BCH   BYTE   UNIT     CODE           ?PR?_?DECODE_SMSCBPACKET?SMS
00D166H   00D21DH   0000B8H   BYTE   UNIT     CODE           ?PR?SAT
00D21EH   00D2D2H   0000B5H   BYTE   UNIT     CODE           ?PR?A3A8
00D2D3H   00D380H   0000AEH   BYTE   UNIT     CODE           ?PR?_?LGENCRC32?CRC
00D381H   00D42DH   0000ADH   BYTE   UNIT     CODE           ?PR?_?CHV_UNBLOCK?SECURITY
00D42EH   00D4D6H   0000A9H   BYTE   UNIT     CODE           ?PR?UART_ISR?ISO7816_INTERRUPT
00D4D7H   00D57CH   0000A6H   BYTE   UNIT     CODE           ?PR?_?KMP_SEARCH?ALGORITHM
00D57DH   00D621H   0000A5H   BYTE   UNIT     CODE           ?PR?_?LIQUID_PROACTIVE_CHECK?LIQUID
00D622H   00D6C4H   0000A3H   BYTE   UNIT     CODE           ?PR?_?LIQUID_SET_RESPONSE_DATA?LIQUID
00D6C5H   00D764H   0000A0H   BYTE   UNIT     CODE           ?C_INITSEG
00D765H   00D804H   0000A0H   BYTE   UNIT     CODE           ?PR?_?MAZE_LOG2PHYS?IOMAN
00D805H   00D8A1H   00009DH   BYTE   UNIT     CODE           ?PR?_?M_FREE?MIDGARD
00D8A2H   00D93DH   00009CH   BYTE   UNIT     CODE           ?PR?_?CHV_ENABLE?SECURITY
00D93EH   00D9D8H   00009BH   BYTE   UNIT     CODE           ?PR?_?CHV_CHANGE?SECURITY
00D9D9H   00DA72H   00009AH   BYTE   UNIT     CODE           ?PR?_?FILE_FIND_ENTRY?FILE
00DA73H   00DB0AH   000098H   BYTE   UNIT     CODE           ?PR?_?CHV_INIT?SECURITY
00DB0BH   00DB9FH   000095H   BYTE   UNIT     CODE           ?PR?_?CHV_CREATE?SECURITY
00DBA0H   00DC32H   000093H   BYTE   UNIT     CODE           ?PR?_DES_OPERATION?ISO7816_API
00DC33H   00DCC5H   000093H   BYTE   UNIT     CODE           ?PR?_?MAZE_FIND_EMPTY_SECTOR?IOMAN
00DCC6H   00DD57H   000092H   BYTE   UNIT     CODE           ?PR?_?AUTHENTICATE_GSM?A3A8
00DD58H   00DDE6H   00008FH   BYTE   UNIT     CODE           ?PR?_?_READBIN?FILE
00DDE7H   00DE75H   00008FH   BYTE   UNIT     CODE           ?PR?_?_WRITEBIN?FILE
00DE76H   00DF03H   00008EH   BYTE   UNIT     CODE           ?PR?_?CHV_DISABLE?SECURITY
00DF04H   00DF8FH   00008CH   BYTE   UNIT     CODE           ?PR?_?SET_PPS?ISO7816_API
00DF90H   00E01BH   00008CH   BYTE   UNIT     CODE           ?PR?DCS
00E01CH   00E0A5H   00008AH   BYTE   UNIT     CODE           ?PR?_?CHV_VERIFY?SECURITY
00E0A6H   00E12EH   000089H   BYTE   UNIT     CODE           ?PR?_?VAS_SET_TAR?WIB
00E12FH   00E1B6H   000088H   BYTE   UNIT     CODE           ?PR?MEM
00E1B7H   00E23CH   000086H   BYTE   UNIT     CODE           ?PR?_?VAS_PLUGIN_INIT?VAS
00E23DH   00E2C0H   000084H   BYTE   UNIT     CODE           ?PR?_?SAT_PUSH?SAT
00E2C1H   00E341H   000081H   BYTE   UNIT     CODE           ?PR?_?VAS_FILE_POP?VAS
00E342H   00E3C1H   000080H   BYTE   UNIT     CODE           ?C_C51STARTUP
00E3C2H   00E441H   000080H   BYTE   UNIT     CODE           ?PR?_?VAS_PUSH_HEADER?VAS
00E442H   00E4C0H   00007FH   BYTE   UNIT     CODE           ?PR?_?CALCRC?ISO7816_API
00E4C1H   00E53DH   00007DH   BYTE   UNIT     CODE           ?PR?_?SAT_POP?SAT
LX51 LINKER/LOCATER V3.51                                                             01/27/2014  09:14:18  PAGE 7


00E53EH   00E5B9H   00007CH   BYTE   UNIT     CODE           ?PR?_WRITE_BYTES?NORFLASH
00E5BAH   00E634H   00007BH   BYTE   UNIT     CODE           ?PR?_?FS_GET_ALLOCATED_SPACE?FS
00E635H   00E6AEH   00007AH   BYTE   UNIT     CODE           ?PR?_?FILE_DEALLOC_ALL_CHILD?FILE
00E6AFH   00E724H   000076H   BYTE   UNIT     CODE           ?PR?MIDGARD
00E725H   00E799H   000075H   BYTE   UNIT     CODE           ?PR?RFM
00E79AH   00E808H   00006FH   BYTE   UNIT     CODE           ?PR?_?VAS_ACTIVATED?VAS
00E809H   00E876H   00006EH   BYTE   UNIT     CODE           ?PR?_?FLASH_WRITE?FLASH
00E877H   00E8E1H   00006BH   BYTE   UNIT     CODE           ?PR?_?CALCRC32?CRC
00E8E2H   00E948H   000067H   BYTE   UNIT     CODE           ?PR?_?_REHABILITATE?FILE
00E949H   00E9AEH   000066H   BYTE   UNIT     CODE           ?PR?_?_INVALIDATE?FILE
00E9AFH   00EA11H   000063H   BYTE   UNIT     CODE           ?PR?ALGORITHM
00EA12H   00EA72H   000061H   BYTE   UNIT     CODE           ?PR?_?WRITE_TEMP_SPACE?YGGDRASIL
00EA73H   00EAD2H   000060H   BYTE   UNIT     CODE           ?PR?_?IOMAN_TRANSMIT?IOMAN
00EAD3H   00EB32H   000060H   BYTE   UNIT     CODE           ?PR?_?REMOVE_NULL?APPLICATION
00EB33H   00EB90H   00005EH   BYTE   UNIT     CODE           ?PR?_?GSM_RESPONSE?YGGDRASIL
00EB91H   00EBEEH   00005EH   BYTE   UNIT     CODE           ?PR?_?VAS_STRCMP?VAS
00EBEFH   00EC4AH   00005CH   BYTE   UNIT     CODE           ?PR?_?FLASH_READ?FLASH
00EC4BH   00ECA2H   000058H   BYTE   UNIT     CODE           ?PR?_?RANDOM_NUMBER_GENERATOR?ISO7816_API
00ECA3H   00ECF3H   000051H   BYTE   UNIT     CODE           ?PR?_?_CHECK_ACCESS?FILE
00ECF4H   00ED41H   00004EH   BYTE   UNIT     CODE           ?PR?_?M_GET_ALLOCATED_SPACE?MIDGARD
00ED42H   00ED8FH   00004EH   BYTE   UNIT     CODE           ?PR?_?FLASH_ERASE?FLASH
00ED90H   00EDD8H   000049H   BYTE   UNIT     CODE           ?PR?_?RX_N_BYTES?ISO7816_API
00EDD9H   00EE1FH   000047H   BYTE   UNIT     CODE           ?PR?_?ERASE_PAGES?ISO7816_API
00EE20H   00EE66H   000047H   BYTE   UNIT     CODE           ?PR?LIQUID
00EE67H   00EEACH   000046H   BYTE   UNIT     CODE           ?PR?_READFLASH?ISO7816_API
00EEADH   00EEF1H   000045H   BYTE   UNIT     CODE           ?PR?WDT_ISR?ISO7816_INTERRUPT
00EEF2H   00EF36H   000045H   BYTE   UNIT     CODE           ?PR?CRC
00EF37H   00EF7BH   000045H   BYTE   UNIT     CODE           ?PR?_?SAT_PROFILE_DOWNLOAD?LIQUID
00EF7CH   00EFBFH   000044H   BYTE   UNIT     CODE           ?PR?_?SAT_COMMAND?SAT
00EFC0H   00F003H   000044H   BYTE   UNIT     CODE           ?PR?_?SAT_FILE_POP?SAT
00F004H   00F047H   000044H   BYTE   UNIT     CODE           ?PR?_?GET_VARIABLE?VAS
00F048H   00F08AH   000043H   BYTE   UNIT     CODE           ?PR?_?IS_LEAP_YEAR?APPLICATION
00F08BH   00F0CCH   000042H   BYTE   UNIT     CODE           ?PR?_?VAS_INIT?VAS
00F0CDH   00F10DH   000041H   BYTE   UNIT     CODE           ?PR?PPS?ISO7816_API
00F10EH   00F14CH   00003FH   BYTE   UNIT     CODE           ?PR?_?ISO_AUTOTXNULL?ISO7816_API
00F14DH   00F18BH   00003FH   BYTE   UNIT     CODE           ?PR?RETURNTOBL?ISO7816_API
00F18CH   00F1CAH   00003FH   BYTE   UNIT     CODE           ?PR?IOMAN_ERASE_ALL?IOMAN
00F1CBH   00F209H   00003FH   BYTE   UNIT     CODE           ?PR?_?SAT_FILE_PUSH?SAT
00F20AH   00F246H   00003DH   BYTE   UNIT     CODE           ?PR?_?TX_N_BYTES?ISO7816_API
00F247H   00F283H   00003DH   BYTE   UNIT     CODE           ?PR?_?_READREC_PREV?FILE
00F284H   00F2C0H   00003DH   BYTE   UNIT     CODE           ?PR?_?_WRITEREC_PREV?FILE
00F2C1H   00F2FBH   00003BH   BYTE   UNIT     CODE           ?PR?_?M_INIT_ALLOC?MIDGARD
00F2FCH   00F335H   00003AH   BYTE   UNIT     CODE           ?PR?_?TDES_DECRYPT?ISO7816_API
00F336H   00F36FH   00003AH   BYTE   UNIT     CODE           ?PR?_?TDES_ENCRYPT?ISO7816_API
00F370H   00F3A8H   000039H   BYTE   UNIT     CODE           ?PR?_?_READREC_NEXT?FILE
00F3A9H   00F3E1H   000039H   BYTE   UNIT     CODE           ?PR?_?_WRITEREC_NEXT?FILE
00F3E2H   00F41AH   000039H   BYTE   UNIT     CODE           ?PR?_?LIQUID_PROFILE_CHECK?LIQUID
00F41BH   00F452H   000038H   BYTE   UNIT     CODE           ?PR?_ERASE_PAGE?NORFLASH
00F453H   00F489H   000037H   BYTE   UNIT     CODE           ?PR?_?DES_DECRYPT?ISO7816_API
00F48AH   00F4C0H   000037H   BYTE   UNIT     CODE           ?PR?_?SAT_DEVICE?SAT
00F4C1H   00F4F6H   000036H   BYTE   UNIT     CODE           ?PR?_?DES_ENCRYPT?ISO7816_API
00F4F7H   00F52AH   000034H   BYTE   UNIT     CODE           ?PR?FLASH
00F52BH   00F55CH   000032H   BYTE   UNIT     CODE           ?PR?_?IOINIT?ISO7816_API
00F55DH   00F58EH   000032H   BYTE   UNIT     CODE           ?PR?_?FILE_GET_DFHEADER?FILE
00F58FH   00F5C0H   000032H   BYTE   UNIT     CODE           ?PR?_?FILE_GET_EFHEADER?FILE
00F5C1H   00F5F2H   000032H   BYTE   UNIT     CODE           ?PR?_?VAS_STARTUP?WIB
00F5F3H   00F623H   000031H   BYTE   UNIT     CODE           ?PR?_?FILE_GET_HEADER?FILE
00F624H   00F654H   000031H   BYTE   UNIT     CODE           ?PR?_?SET_RESPONSE?YGGDRASIL
00F655H   00F684H   000030H   BYTE   UNIT     CODE           ?PR?_?FS_FREESPACE?FS
00F685H   00F6B4H   000030H   BYTE   UNIT     CODE           ?PR?_?INITIALIZE_OPERATING_SYSTEM?YGGDRASIL
00F6B5H   00F6E4H   000030H   BYTE   UNIT     CODE           ?PR?_?SAT_READ?SAT
00F6E5H   00F712H   00002EH   BYTE   UNIT     CODE           ?PR?_?VAS_FETCH?VAS
00F713H   00F73FH   00002DH   BYTE   UNIT     CODE           ?PR?FS_INIT?FS
00F740H   00F76CH   00002DH   BYTE   UNIT     CODE           ?PR?_?USER_PACKET_DECODE?APPLICATION
00F76DH   00F798H   00002CH   BYTE   UNIT     CODE           ?PR?_?SAT_RESPONSE?SAT
LX51 LINKER/LOCATER V3.51                                                             01/27/2014  09:14:18  PAGE 8


00F799H   00F7C2H   00002AH   BYTE   UNIT     CODE           ?PR?_?FILE_GET_CURRENT_HEADER?FILE
00F7C3H   00F7E9H   000027H   BYTE   UNIT     CODE           ?PR?_?GET_DATA?YGGDRASIL
00F7EAH   00F80FH   000026H   BYTE   UNIT     CODE           ?PR?_?CHV_GET_CONFIG?SECURITY
00F810H   00F835H   000026H   BYTE   UNIT     CODE           ?PR?_?LIQUID_ERROR?LIQUID
00F836H   00F85AH   000025H   BYTE   UNIT     CODE           ?PR?ISO_DELAYETU?ISO7816_API
00F85BH   00F87CH   000022H   BYTE   UNIT     CODE           ?PR?_?CHV_GET_STATUS?SECURITY
00F87DH   00F89EH   000022H   BYTE   UNIT     CODE           ?PR?_?P348_SET_TAR?SMS
00F89FH   00F8BFH   000021H   BYTE   UNIT     CODE           ?PR?_?SAT_FILE_FLUSH?SAT
00F8C0H   00F8DEH   00001FH   BYTE   UNIT     CODE           ?PR?_?TX_STATUS?ISO7816_API
00F8DFH   00F8FDH   00001FH   BYTE   UNIT     CODE           ?PR?_?SAT_INIT?SAT
00F8FEH   00F91AH   00001DH   BYTE   UNIT     CODE           ?PR?_?SETBASE?ISO7816_API
00F91BH   00F936H   00001CH   BYTE   UNIT     CODE           ?PR?_?AUTH_COMP128?YGGDRASIL
00F937H   00F951H   00001BH   BYTE   UNIT     CODE           ?PR?_?SEND_BYTE?ISO7816_API
00F952H   00F969H   000018H   BYTE   UNIT     CODE           ?PR?_?LOAD_STATE?YGGDRASIL
00F96AH   00F980H   000017H   BYTE   UNIT     CODE           ?PR?_PPS_HANDLER?ISO7816_MAIN
00F981H   00F997H   000017H   BYTE   UNIT     CODE           ?PR?STARTTIMEOUTSEQUENCE?ISO7816_API
00F998H   00F9AEH   000017H   BYTE   UNIT     CODE           ?PR?_?LOAD_USER_APP?YGGDRASIL
00F9AFH   00F9C4H   000016H   BYTE   UNIT     CODE           ?PR?SLEEP_MODE?ISO7816_API
00F9C5H   00F9D9H   000015H   BYTE   UNIT     CODE           ?PR?VAS_EXIT_PLUGIN?VAS
00F9DAH   00F9EEH   000015H   BYTE   UNIT     CODE           ?PR?_STRLEN?STRLEN
00F9EFH   00FA02H   000014H   BYTE   UNIT     CODE           ?PR?_IOMAN_ERASE_PAGE?IOMAN
00FA03H   00FA15H   000013H   BYTE   UNIT     CODE           ?CO?FS
00FA16H   00FA27H   000012H   BYTE   UNIT     CODE           ?PR?ENDTIMEOUTSEQUENCE?ISO7816_API
00FA28H   00FA38H   000011H   BYTE   UNIT     CODE           ?PR?_?SAT_STATUS?SAT
00FA39H   00FA48H   000010H   BYTE   UNIT     CODE           ?PR?_CHV_SET_STATUS?SECURITY
00FA49H   00FA57H   00000FH   BYTE   UNIT     CODE           ?PR?HW_INIT?MAIN
00FA58H   00FA66H   00000FH   BYTE   UNIT     CODE           ?PR?_?SAVE_STATE?YGGDRASIL
00FA67H   00FA74H   00000EH   BYTE   UNIT     CODE           ?PR?_IOMAN_WRITE_POS?IOMAN
00FA75H   00FA81H   00000DH   BYTE   UNIT     CODE           ?PR?ISO7816_INIT?ISO7816_MAIN
00FA82H   00FA8EH   00000DH   BYTE   UNIT     CODE           ?PR?SEND_ATR?ISO7816_MAIN
00FA8FH   00FA9BH   00000DH   BYTE   UNIT     CODE           ?PR?ISO7816_MAIN
00FA9CH   00FAA8H   00000DH   BYTE   UNIT     CODE           ?PR?PPS_ACK?ISO7816_API
00FAA9H   00FAB5H   00000DH   BYTE   UNIT     CODE           ?PR?_?IOMAN_INIT?IOMAN
00FAB6H   00FAC2H   00000DH   BYTE   UNIT     CODE           ?CO?SMS
00FAC3H   00FACEH   00000CH   BYTE   UNIT     CODE           ?PR?_?LOAD_TEMP_SPACE?YGGDRASIL
00FACFH   00FAD9H   00000BH   BYTE   UNIT     CODE           ?PR?RECEIVE_BYTE?ISO7816_API
00FADAH   00FAE3H   00000AH   BYTE   UNIT     CODE           ?PR?MAIN?MAIN
00FAE4H   00FAECH   000009H   BYTE   UNIT     CODE           ?PR?NORFLASH
00FAEDH   00FAF2H   000006H   BYTE   UNIT     CODE           ?PR?_?SAT_CLEANUP?SAT
00FAF3H   00FAF8H   000006H   BYTE   UNIT     CODE           ?CO?WIB
00FAF9H   00FAFCH   000004H   BYTE   UNIT     CODE           ?PR?IOMAN_SET_TO_BOOTLOADER?IOMAN
00FAFDH   00FAFFH   000003H   BYTE   UNIT     CODE           ?PR?DES_ISR?ISO7816_INTERRUPT
00FB00H   00FB02H   000003H   BYTE   UNIT     CODE           ?PR?INT3_ISR?ISO7816_INTERRUPT
00FB03H   00FB05H   000003H   BYTE   UNIT     CODE           ?PR?FLASH_ISR?ISO7816_INTERRUPT
00FB06H   00FB08H   000003H   BYTE   UNIT     CODE           ?PR?INT5_ISR?ISO7816_INTERRUPT
00FB09H   00FB0BH   000003H   BYTE   UNIT     CODE           ?PR?_?INITIALIZE_HARDWARE?YGGDRASIL
00FB0CH   00FEF5H   0003EAH   BYTE   UNIT     CONST          ?CO?A3A8
00FEF6H   00FF55H   000060H   BYTE   UNIT     CONST          ?CO?ISO7816_API
00FF56H   00FF75H   000020H   BYTE   UNIT     CONST          ?CO?DES
00FF76H   00FF8FH   00001AH   BYTE   UNIT     CONST          ?CO?YGGDRASIL
00FF90H   00FFA0H   000011H   BYTE   UNIT     CONST          ?CO?ISO7816_MAIN
00FFA1H   00FFA8H   000008H   BYTE   UNIT     CONST          ?CO?SECURITY

* * * * * * * * * * *  X D A T A   M E M O R Y  * * * * * * * * * * * * *
000000H   00030CH   00030DH   BYTE   UNIT     XDATA          ?XD?ISO7816_MAIN
00030DH   000418H   00010CH   BYTE   UNIT     XDATA          ?XD?LIQUID
000419H   00051CH   000104H   BYTE   UNIT     XDATA          ?XD?SAT
00051DH   00061CH   000100H   BYTE   UNIT     XDATA          ?XD?MIDGARD
00061DH   00065CH   000040H   BYTE   UNIT     XDATA          _XDATA_GROUP_
00065DH   00068AH   00002EH   BYTE   UNIT     XDATA          ?XD?YGGDRASIL
00068BH   0006A8H   00001EH   BYTE   UNIT     XDATA          ?XD?VAS
0006A9H   0006B5H   00000DH   BYTE   UNIT     XDATA          ?XD?APPLICATION
0006B6H   0006C0H   00000BH   BYTE   UNIT     XDATA          ?XD?SMS
0006C1H   0006CAH   00000AH   BYTE   UNIT     XDATA          ?XD?FS
0006CBH   0006D2H   000008H   BYTE   UNIT     XDATA          ?XD?IOMAN
LX51 LINKER/LOCATER V3.51                                                             01/27/2014  09:14:18  PAGE 9


0006D3H   0006D8H   000006H   BYTE   UNIT     XDATA          ?XD?SECURITY
0006D9H   0006DBH   000003H   BYTE   UNIT     XDATA          ?XD?_IOMAN_WRITE_POS?IOMAN
0006DCH   0006DDH   000002H   BYTE   UNIT     XDATA          ?XD?MAIN
0006DEH   0006DFH   000002H   BYTE   UNIT     XDATA          ?XD?FILE
0006E0H   0006E1H   000002H   BYTE   UNIT     XDATA          ?XD?IOMAN_ERASE_ALL?IOMAN
0006E2H   0006E3H   000002H   BYTE   UNIT     XDATA          ?XD?_IOMAN_ERASE_PAGE?IOMAN
0006E4H   0006E5H   000002H   BYTE   UNIT     XDATA          ?XD?FLASH
0006E6H   0006E6H   000001H   BYTE   UNIT     XDATA          ?XD?ISO7816_INTERRUPT



OVERLAY MAP OF MODULE:   .\Debug\Output\Yggdrasil20 (?C_STARTUP)


FUNCTION/MODULE                              XDATA_GROUP
--> CALLED FUNCTION/MODULE                   START  STOP
========================================================
?C_C51STARTUP                                ----- -----
  +--> ?PR?MAIN?MAIN
  +--> ?C_INITSEG

MAIN/MAIN                                    ----- -----
  +--> ?PR?HW_INIT?MAIN
  +--> ?PR?ISO7816_INIT?ISO7816_MAIN
  +--> ?PR?ISO7816_MAIN?ISO7816_MAIN

HW_INIT/MAIN                                 ----- -----

ISO7816_INIT/ISO7816_MAIN                    ----- -----
  +--> ?PR?_?INITIALIZE_HARDWARE?YGGDRASIL

_?INITIALIZE_HARDWARE/YGGDRASIL              ----- -----
  +--> ?PR?_?IOMAN_INIT?IOMAN

_?IOMAN_INIT/IOMAN                           ----- -----
  +--> ?PR?_?MAZE_INIT?IOMAN

_?MAZE_INIT/IOMAN                            ----- -----
  +--> ?PR?_?FLASH_READ?FLASH

_?FLASH_READ/FLASH                           ----- -----
  +--> ?PR?FLASH

FLASH                                        ----- -----

ISO7816_MAIN/ISO7816_MAIN                    061DH 061EH
  +--> ?PR?_?IOINIT?ISO7816_API
  +--> ?CO?ISO7816_MAIN
  +--> ?PR?_?TX_N_BYTES?ISO7816_API
  +--> ?PR?_?INITIALIZE_HARDWARE?YGGDRASIL
  +--> ?PR?_?INITIALIZE_OPERATING_SYSTEM?YGG...
  +--> ?PR?SEND_ATR?ISO7816_MAIN
  +--> ?PR?_?SEND_BYTE?ISO7816_API
  +--> ?PR?_PPS_HANDLER?ISO7816_MAIN
  +--> ?PR?_?ISO_AUTOTXNULL?ISO7816_API
  +--> ?PR?STARTTIMEOUTSEQUENCE?ISO7816_API
  +--> ?PR?_YGGDRASIL_DECODE?YGGDRASIL
  +--> ?PR?_?LOAD_USER_APP?YGGDRASIL
  +--> ?PR?_?SAVE_STATE?YGGDRASIL
  +--> ?PR?ISO7816_MAIN
  +--> ?PR?_?IOMAN_TRANSMIT?IOMAN
  +--> ?PR?SLEEP_MODE?ISO7816_API
  +--> ?PR?ENDTIMEOUTSEQUENCE?ISO7816_API

_?IOINIT/ISO7816_API                         ----- -----
LX51 LINKER/LOCATER V3.51                                                             01/27/2014  09:14:18  PAGE 10


  +--> ?PR?ISO7816_API

ISO7816_API                                  ----- -----

?CO?ISO7816_MAIN                             ----- -----

_?TX_N_BYTES/ISO7816_API                     ----- -----
  +--> ?PR?ISO7816_API
  +--> ?PR?_?SEND_BYTE?ISO7816_API

_?SEND_BYTE/ISO7816_API                      ----- -----
  +--> ?PR?ISO7816_API

_?INITIALIZE_OPERATING_SYSTEM/YGGDRASIL      ----- -----
  +--> ?PR?YGGDRASIL
  +--> ?PR?_?M_INIT_ALLOC?MIDGARD
  +--> ?PR?FS_INIT?FS
  +--> ?PR?_?LOAD_STATE?YGGDRASIL
  +--> ?PR?_?_SELECT?FILE

YGGDRASIL                                    ----- -----

_?M_INIT_ALLOC/MIDGARD                       ----- -----
  +--> ?PR?MIDGARD

MIDGARD                                      ----- -----

FS_INIT/FS                                   ----- -----
  +--> ?PR?FS
  +--> ?PR?_?IOMAN_READ_BUFFER?IOMAN
  +--> ?PR?_?CHV_INIT?SECURITY

FS                                           ----- -----
  +--> ?CO?FS

?CO?FS                                       ----- -----

_?IOMAN_READ_BUFFER/IOMAN                    ----- -----
  +--> ?PR?_?MAZE_LOG2PHYS?IOMAN
  +--> ?PR?_?FLASH_READ?FLASH

_?MAZE_LOG2PHYS/IOMAN                        ----- -----
  +--> ?PR?_?FLASH_READ?FLASH

_?CHV_INIT/SECURITY                          ----- -----
  +--> ?PR?_?M_ALLOC?MIDGARD
  +--> ?PR?SECURITY
  +--> ?PR?_?IOMAN_READ_BUFFER?IOMAN
  +--> ?PR?_?M_FREE?MIDGARD

_?M_ALLOC/MIDGARD                            ----- -----
  +--> ?PR?MIDGARD

SECURITY                                     ----- -----
  +--> ?CO?SECURITY

?CO?SECURITY                                 ----- -----

_?M_FREE/MIDGARD                             ----- -----
  +--> ?PR?MIDGARD

_?LOAD_STATE/YGGDRASIL                       ----- -----
  +--> ?PR?YGGDRASIL
  +--> ?PR?_?IOMAN_READ_BUFFER?IOMAN
  +--> ?PR?_?SAVE_STATE?YGGDRASIL
LX51 LINKER/LOCATER V3.51                                                             01/27/2014  09:14:18  PAGE 11



_?SAVE_STATE/YGGDRASIL                       ----- -----
  +--> ?PR?YGGDRASIL
  +--> ?PR?_?IOMAN_WRITE_BUFFER?IOMAN

_?IOMAN_WRITE_BUFFER/IOMAN                   ----- -----
  +--> ?PR?_?MAZE_LOG2PHYS?IOMAN
  +--> ?PR?_?MAZE_FIND_EMPTY_SECTOR?IOMAN
  +--> ?PR?_?FLASH_READ?FLASH
  +--> ?PR?_?FLASH_WRITE?FLASH
  +--> ?PR?_?FLASH_ERASE?FLASH

_?MAZE_FIND_EMPTY_SECTOR/IOMAN               ----- -----
  +--> ?PR?_?FLASH_READ?FLASH

_?FLASH_WRITE/FLASH                          ----- -----
  +--> ?PR?FLASH
  +--> ?PR?_WRITE_BYTES?NORFLASH

_WRITE_BYTES/NORFLASH                        0647H 064EH
  +--> ?PR?NORFLASH

NORFLASH                                     ----- -----

_?FLASH_ERASE/FLASH                          ----- -----
  +--> ?PR?FLASH
  +--> ?PR?_ERASE_PAGE?NORFLASH

_ERASE_PAGE/NORFLASH                         ----- -----
  +--> ?PR?NORFLASH

_?_SELECT/FILE                               ----- -----
  +--> ?PR?FILE
  +--> ?PR?_?IOMAN_READ_BUFFER?IOMAN

FILE                                         ----- -----

SEND_ATR/ISO7816_MAIN                        061FH 0620H
  +--> ?CO?ISO7816_MAIN
  +--> ?PR?_?TX_N_BYTES?ISO7816_API

_PPS_HANDLER/ISO7816_MAIN                    ----- -----
  +--> ?PR?_?SET_PPS?ISO7816_API

_?SET_PPS/ISO7816_API                        ----- -----
  +--> ?PR?ISO7816_API
  +--> ?PR?PPS_ACK?ISO7816_API
  +--> ?PR?_?IOINIT?ISO7816_API

PPS_ACK/ISO7816_API                          ----- -----
  +--> ?PR?_?TX_N_BYTES?ISO7816_API

_?ISO_AUTOTXNULL/ISO7816_API                 ----- -----
  +--> ?PR?ISO7816_API

STARTTIMEOUTSEQUENCE/ISO7816_API             ----- -----

_YGGDRASIL_DECODE/YGGDRASIL                  061FH 0638H
  +--> ?PR?YGGDRASIL
  +--> ?PR?_?GET_DATA?YGGDRASIL
  +--> ?PR?_?_SELECT?FILE
  +--> ?PR?_?SEND_STATUS?YGGDRASIL
  +--> ?PR?_?_READBIN?FILE
  +--> ?PR?_?_READREC_NEXT?FILE
  +--> ?PR?_?_READREC_PREV?FILE
LX51 LINKER/LOCATER V3.51                                                             01/27/2014  09:14:18  PAGE 12


  +--> ?PR?_?_READREC?FILE
  +--> ?PR?_?_WRITEBIN?FILE
  +--> ?PR?_?_WRITEREC_NEXT?FILE
  +--> ?PR?_?_WRITEREC_PREV?FILE
  +--> ?PR?_?_WRITEREC?FILE
  +--> ?PR?_?_REHABILITATE?FILE
  +--> ?PR?_?_INVALIDATE?FILE
  +--> ?PR?_?_REMOVE?FILE
  +--> ?PR?_?_CREATEDIRECTORY?FILE
  +--> ?PR?_?_CREATEFILEBIN?FILE
  +--> ?PR?_?_CREATEFILEREC?FILE
  +--> ?PR?_?_CREATEFILECYCLIC?FILE
  +--> ?PR?_?FS_FORMAT?FS
  +--> ?PR?FS_INIT?FS
  +--> ?PR?_?M_GET_ALLOCATED_SPACE?MIDGARD
  +--> ?PR?_?FS_GET_ALLOCATED_SPACE?FS
  +--> ?PR?_?IOMAN_PROGRAM_COPY?IOMAN
  +--> ?PR?_?WRITE_TEMP_SPACE?YGGDRASIL
  +--> ?PR?IOMAN_SET_TO_BOOTLOADER?IOMAN
  +--> ?PR?_?M_FREE?MIDGARD
  +--> ?PR?_?M_ALLOC?MIDGARD
  +--> ?PR?_?RANDOM_NUMBER_GENERATOR?ISO7816...
  +--> ?CO?YGGDRASIL
  +--> ?PR?_?DES_ENCRYPT?ISO7816_API
  +--> ?PR?_CHV_SET_STATUS?SECURITY
  +--> ?PR?_?IOMAN_WRITE_BUFFER?IOMAN
  +--> ?PR?_?IOMAN_READ_BUFFER?IOMAN
  +--> ?PR?IOMAN_ERASE_ALL?IOMAN
  +--> ?PR?_?BIFROST_DECODE?YGGDRASIL
  +--> ?PR?_?FS_GENERATE_FSH?FS
  +--> ?PR?_?SAVE_STATE?YGGDRASIL
  +--> ?PR?_?CHV_GET_STATUS?SECURITY
  +--> ?PR?_WRITE_BYTES?NORFLASH
  +--> ?PR?_?SET_RESPONSE?YGGDRASIL
  +--> ?PR?_?SAT_STATUS?SAT
  +--> ?PR?_?CHV_DISABLE?SECURITY
  +--> ?PR?_?CHV_ENABLE?SECURITY
  +--> ?PR?_?CHV_UNBLOCK?SECURITY
  +--> ?PR?_?_SEEK?FILE
  +--> ?PR?_?GSM_RESPONSE?YGGDRASIL
  +--> ?PR?_?_INCREASE?FILE
  +--> ?PR?_?AUTHENTICATE_GSM?A3A8
  +--> ?PR?_?SAT_PROFILE_DOWNLOAD?LIQUID
  +--> ?PR?_?VAS_ACTIVATED?VAS
  +--> ?PR?_?LIQUID_PROFILE?LIQUID
  +--> ?PR?_?VAS_EVENT?WIB
  +--> ?PR?_?VAS_STARTUP?WIB
  +--> ?PR?_?VAS_FETCH?VAS
  +--> ?PR?_?SAT_INIT?SAT
  +--> ?PR?_?USER_CALLBACK?APPLICATION
  +--> ?PR?_?LIQUID_PROACTIVE_CHECK?LIQUID
  +--> ?PR?_?SAT_RESPONSE?SAT
  +--> ?PR?_?VAS_EXECUTE?VAS
  +--> ?PR?_?SAT_POP?SAT
  +--> ?PR?_?LIQUID_PROFILE_CHECK?LIQUID
  +--> ?PR?_?SAT_READ?SAT
  +--> ?PR?_?SAT_CLEANUP?SAT
  +--> ?PR?_?_CHECK_ACCESS?FILE
  +--> ?PR?_?DECODE_SMSTPDU?SMS
  +--> ?PR?_?CHV_VERIFY?SECURITY
  +--> ?PR?_?CHV_CHANGE?SECURITY
  +--> ?PR?_?VAS_MENU?WIB
  +--> ?PR?_?SAT_FILE_POP?SAT
  +--> ?PR?_READFLASH?ISO7816_API

LX51 LINKER/LOCATER V3.51                                                             01/27/2014  09:14:18  PAGE 13


_?GET_DATA/YGGDRASIL                         ----- -----
  +--> ?PR?_?ISO_AUTOTXNULL?ISO7816_API
  +--> ?PR?_?SEND_BYTE?ISO7816_API

_?SEND_STATUS/YGGDRASIL                      ----- -----
  +--> ?PR?YGGDRASIL
  +--> ?PR?_?FILE_GET_CURRENT_HEADER?FILE
  +--> ?PR?_?M_FREE?MIDGARD
  +--> ?PR?_?FS_FREESPACE?FS
  +--> ?PR?_?CHV_GET_CONFIG?SECURITY

_?FILE_GET_CURRENT_HEADER/FILE               ----- -----
  +--> ?PR?FILE
  +--> ?PR?_?FILE_GET_DFHEADER?FILE
  +--> ?PR?_?FILE_GET_EFHEADER?FILE

_?FILE_GET_DFHEADER/FILE                     ----- -----
  +--> ?PR?FILE
  +--> ?PR?_?M_ALLOC?MIDGARD
  +--> ?PR?_?IOMAN_READ_BUFFER?IOMAN

_?FILE_GET_EFHEADER/FILE                     ----- -----
  +--> ?PR?FILE
  +--> ?PR?_?M_ALLOC?MIDGARD
  +--> ?PR?_?IOMAN_READ_BUFFER?IOMAN

_?FS_FREESPACE/FS                            ----- -----
  +--> ?PR?_?FS_GET_ALLOCATED_SPACE?FS
  +--> ?PR?FS

_?FS_GET_ALLOCATED_SPACE/FS                  ----- -----
  +--> ?PR?FS
  +--> ?PR?_?IOMAN_READ_BUFFER?IOMAN

_?CHV_GET_CONFIG/SECURITY                    ----- -----
  +--> ?PR?SECURITY
  +--> ?PR?_?IOMAN_READ_BUFFER?IOMAN

_?_READBIN/FILE                              ----- -----
  +--> ?PR?FILE
  +--> ?PR?_?FILE_GET_EFHEADER?FILE
  +--> ?PR?_?M_FREE?MIDGARD
  +--> ?PR?_?IOMAN_READ_BUFFER?IOMAN

_?_READREC_NEXT/FILE                         ----- -----
  +--> ?PR?FILE
  +--> ?PR?_?_READREC?FILE

_?_READREC/FILE                              ----- -----
  +--> ?PR?FILE
  +--> ?PR?_?FILE_GET_EFHEADER?FILE
  +--> ?PR?_?M_FREE?MIDGARD
  +--> ?PR?_?IOMAN_READ_BUFFER?IOMAN

_?_READREC_PREV/FILE                         ----- -----
  +--> ?PR?FILE
  +--> ?PR?_?_READREC?FILE

_?_WRITEBIN/FILE                             ----- -----
  +--> ?PR?FILE
  +--> ?PR?_?FILE_GET_EFHEADER?FILE
  +--> ?PR?_?M_FREE?MIDGARD
  +--> ?PR?_?IOMAN_WRITE_BUFFER?IOMAN

_?_WRITEREC_NEXT/FILE                        ----- -----
LX51 LINKER/LOCATER V3.51                                                             01/27/2014  09:14:18  PAGE 14


  +--> ?PR?FILE
  +--> ?PR?_?_WRITEREC?FILE

_?_WRITEREC/FILE                             ----- -----
  +--> ?PR?FILE
  +--> ?PR?_?FILE_GET_EFHEADER?FILE
  +--> ?PR?_?M_FREE?MIDGARD
  +--> ?PR?_?IOMAN_WRITE_BUFFER?IOMAN

_?_WRITEREC_PREV/FILE                        ----- -----
  +--> ?PR?FILE
  +--> ?PR?_?_WRITEREC?FILE

_?_REHABILITATE/FILE                         ----- -----
  +--> ?PR?FILE
  +--> ?PR?_?FILE_GET_EFHEADER?FILE
  +--> ?PR?_?IOMAN_WRITE_BUFFER?IOMAN
  +--> ?PR?_?M_FREE?MIDGARD

_?_INVALIDATE/FILE                           ----- -----
  +--> ?PR?FILE
  +--> ?PR?_?FILE_GET_EFHEADER?FILE
  +--> ?PR?_?IOMAN_WRITE_BUFFER?IOMAN
  +--> ?PR?_?M_FREE?MIDGARD

_?_REMOVE/FILE                               ----- -----
  +--> ?PR?FILE
  +--> ?PR?_?FILE_GET_HEADER?FILE
  +--> ?PR?_?M_FREE?MIDGARD
  +--> ?PR?_?FILE_GET_DFHEADER?FILE
  +--> ?PR?_?FILE_FIND_ENTRY?FILE
  +--> ?PR?_?FILE_DEALLOC_ALL_CHILD?FILE
  +--> ?PR?_?IOMAN_WRITE_BUFFER?IOMAN
  +--> ?PR?_?FILE_REMOVE_ENTRY?FILE
  +--> ?PR?_?FS_DEALLOC?FS

_?FILE_GET_HEADER/FILE                       ----- -----
  +--> ?PR?FILE
  +--> ?PR?_?M_ALLOC?MIDGARD
  +--> ?PR?_?IOMAN_READ_BUFFER?IOMAN

_?FILE_FIND_ENTRY/FILE                       ----- -----
  +--> ?PR?FILE
  +--> ?PR?_?FILE_GET_HEADER?FILE
  +--> ?PR?_?M_FREE?MIDGARD

_?FILE_DEALLOC_ALL_CHILD/FILE                ----- -----
  +--> ?PR?FILE
  +--> ?PR?_?FILE_GET_HEADER?FILE
  +--> ?PR?_?FS_DEALLOC?FS
  +--> ?PR?_?M_FREE?MIDGARD

_?FS_DEALLOC/FS                              ----- -----
  +--> ?PR?FS
  +--> ?PR?_?M_ALLOC?MIDGARD
  +--> ?PR?_?IOMAN_READ_BUFFER?IOMAN
  +--> ?PR?_?IOMAN_WRITE_BUFFER?IOMAN
  +--> ?PR?_?M_FREE?MIDGARD

_?FILE_REMOVE_ENTRY/FILE                     ----- -----
  +--> ?PR?FILE
  +--> ?PR?_?FILE_GET_HEADER?FILE
  +--> ?PR?_?M_FREE?MIDGARD
  +--> ?PR?_?IOMAN_WRITE_BUFFER?IOMAN

LX51 LINKER/LOCATER V3.51                                                             01/27/2014  09:14:18  PAGE 15


_?_CREATEDIRECTORY/FILE                      ----- -----
  +--> ?PR?FILE
  +--> ?PR?_?FS_ALLOC?FS
  +--> ?PR?_?FILE_GET_DFHEADER?FILE
  +--> ?PR?_?M_ALLOC?MIDGARD
  +--> ?PR?_?IOMAN_WRITE_BUFFER?IOMAN
  +--> ?PR?_?FILE_ADD_ENTRY?FILE
  +--> ?PR?_?M_FREE?MIDGARD

_?FS_ALLOC/FS                                ----- -----
  +--> ?PR?FS
  +--> ?PR?_?M_ALLOC?MIDGARD
  +--> ?PR?_?IOMAN_READ_BUFFER?IOMAN
  +--> ?PR?_?M_FREE?MIDGARD
  +--> ?PR?_?IOMAN_WRITE_BUFFER?IOMAN

_?FILE_ADD_ENTRY/FILE                        ----- -----
  +--> ?PR?FILE
  +--> ?PR?_?FILE_GET_HEADER?FILE
  +--> ?PR?_?M_FREE?MIDGARD
  +--> ?PR?_?IOMAN_WRITE_BUFFER?IOMAN

_?_CREATEFILEBIN/FILE                        ----- -----
  +--> ?PR?FILE
  +--> ?PR?_?FS_ALLOC?FS
  +--> ?PR?_?FILE_GET_DFHEADER?FILE
  +--> ?PR?_?M_ALLOC?MIDGARD
  +--> ?PR?_?IOMAN_WRITE_BUFFER?IOMAN
  +--> ?PR?_?FILE_ADD_ENTRY?FILE
  +--> ?PR?_?M_FREE?MIDGARD

_?_CREATEFILEREC/FILE                        ----- -----
  +--> ?PR?FILE
  +--> ?PR?_?FS_ALLOC?FS
  +--> ?PR?_?FILE_GET_DFHEADER?FILE
  +--> ?PR?_?M_ALLOC?MIDGARD
  +--> ?PR?_?IOMAN_WRITE_BUFFER?IOMAN
  +--> ?PR?_?FILE_ADD_ENTRY?FILE
  +--> ?PR?_?M_FREE?MIDGARD

_?_CREATEFILECYCLIC/FILE                     ----- -----
  +--> ?PR?FILE
  +--> ?PR?_?FS_ALLOC?FS
  +--> ?PR?_?FILE_GET_DFHEADER?FILE
  +--> ?PR?_?M_ALLOC?MIDGARD
  +--> ?PR?_?IOMAN_WRITE_BUFFER?IOMAN
  +--> ?PR?_?FILE_ADD_ENTRY?FILE
  +--> ?PR?_?M_FREE?MIDGARD

_?FS_FORMAT/FS                               ----- -----
  +--> ?PR?IOMAN_ERASE_ALL?IOMAN
  +--> ?PR?FS
  +--> ?PR?_?IOMAN_WRITE_BUFFER?IOMAN
  +--> ?PR?_?M_ALLOC?MIDGARD
  +--> ?PR?_?CHV_CREATE?SECURITY
  +--> ?CO?FS
  +--> ?PR?_?CHV_ENABLE?SECURITY
  +--> ?PR?_?CHV_INIT?SECURITY
  +--> ?PR?_?M_FREE?MIDGARD

IOMAN_ERASE_ALL/IOMAN                        ----- -----
  +--> ?PR?_IOMAN_ERASE_PAGE?IOMAN

_IOMAN_ERASE_PAGE/IOMAN                      ----- -----
  +--> ?PR?_?FLASH_ERASE?FLASH
LX51 LINKER/LOCATER V3.51                                                             01/27/2014  09:14:18  PAGE 16



_?CHV_CREATE/SECURITY                        ----- -----
  +--> ?PR?SECURITY
  +--> ?PR?_STRLEN?STRLEN
  +--> ?PR?_?IOMAN_WRITE_BUFFER?IOMAN

_STRLEN/STRLEN                               ----- -----

_?CHV_ENABLE/SECURITY                        ----- -----
  +--> ?PR?SECURITY
  +--> ?PR?_?IOMAN_READ_BUFFER?IOMAN
  +--> ?PR?_?IOMAN_WRITE_BUFFER?IOMAN

_?M_GET_ALLOCATED_SPACE/MIDGARD              ----- -----
  +--> ?PR?MIDGARD

_?IOMAN_PROGRAM_COPY/IOMAN                   ----- -----
  +--> ?PR?_ERASE_PAGE?NORFLASH
  +--> ?PR?_WRITE_BYTES?NORFLASH

_?WRITE_TEMP_SPACE/YGGDRASIL                 ----- -----
  +--> ?PR?YGGDRASIL
  +--> ?PR?_?IOMAN_WRITE_PROGRAM?IOMAN

_?IOMAN_WRITE_PROGRAM/IOMAN                  ----- -----
  +--> ?PR?_UPDATEFLASH?ISO7816_API

_UPDATEFLASH/ISO7816_API                     0639H 0646H
  +--> ?PR?ISO7816_API
  +--> ?PR?_ERASE_PAGE?NORFLASH
  +--> ?PR?_WRITE_BYTES?NORFLASH

IOMAN_SET_TO_BOOTLOADER/IOMAN                ----- -----
  +--> ?PR?RETURNTOBL?ISO7816_API

RETURNTOBL/ISO7816_API                       ----- -----
  +--> ?PR?_ERASE_PAGE?NORFLASH
  +--> ?CO?ISO7816_API
  +--> ?PR?_WRITE_BYTES?NORFLASH

?CO?ISO7816_API                              ----- -----

_?RANDOM_NUMBER_GENERATOR/ISO7816_API        ----- -----
  +--> ?PR?ISO7816_API

?CO?YGGDRASIL                                ----- -----

_?DES_ENCRYPT/ISO7816_API                    ----- -----
  +--> ?PR?ISO7816_API
  +--> ?PR?_DES_OPERATION?ISO7816_API

_DES_OPERATION/ISO7816_API                   064FH 065CH
  +--> ?PR?ISO7816_API

_CHV_SET_STATUS/SECURITY                     ----- -----
  +--> ?PR?SECURITY

_?BIFROST_DECODE/YGGDRASIL                   ----- -----
  +--> ?PR?YGGDRASIL
  +--> ?PR?_?_SELECT?FILE
  +--> ?PR?_?CHV_GET_CONFIG?SECURITY
  +--> ?PR?_?CHV_DISABLE?SECURITY
  +--> ?PR?_?CHV_ENABLE?SECURITY
  +--> ?PR?_?IOMAN_WRITE_BUFFER?IOMAN
  +--> ?PR?_?_WRITEBIN?FILE
LX51 LINKER/LOCATER V3.51                                                             01/27/2014  09:14:18  PAGE 17


  +--> ?PR?_?_WRITEREC?FILE

_?CHV_DISABLE/SECURITY                       ----- -----
  +--> ?PR?SECURITY
  +--> ?PR?_?IOMAN_READ_BUFFER?IOMAN
  +--> ?PR?_?IOMAN_WRITE_BUFFER?IOMAN

_?FS_GENERATE_FSH/FS                         ----- -----
  +--> ?PR?FS
  +--> ?PR?_?IOMAN_READ_BUFFER?IOMAN
  +--> ?CO?FS

_?CHV_GET_STATUS/SECURITY                    ----- -----
  +--> ?PR?SECURITY

_?SET_RESPONSE/YGGDRASIL                     ----- -----
  +--> ?PR?YGGDRASIL

_?SAT_STATUS/SAT                             ----- -----

_?CHV_UNBLOCK/SECURITY                       ----- -----
  +--> ?PR?SECURITY
  +--> ?PR?_?IOMAN_READ_BUFFER?IOMAN
  +--> ?PR?_?IOMAN_WRITE_BUFFER?IOMAN

_?_SEEK/FILE                                 ----- -----
  +--> ?PR?FILE
  +--> ?PR?_?FILE_GET_EFHEADER?FILE
  +--> ?PR?_?M_FREE?MIDGARD
  +--> ?PR?_?M_ALLOC?MIDGARD
  +--> ?PR?_?KMP_PREPROCESS?ALGORITHM
  +--> ?PR?_?IOMAN_READ_BUFFER?IOMAN
  +--> ?PR?_?KMP_SEARCH?ALGORITHM

_?KMP_PREPROCESS/ALGORITHM                   ----- -----
  +--> ?PR?ALGORITHM

ALGORITHM                                    ----- -----

_?KMP_SEARCH/ALGORITHM                       ----- -----
  +--> ?PR?ALGORITHM

_?GSM_RESPONSE/YGGDRASIL                     ----- -----
  +--> ?PR?YGGDRASIL
  +--> ?PR?_?M_FREE?MIDGARD
  +--> ?PR?_?M_ALLOC?MIDGARD

_?_INCREASE/FILE                             ----- -----
  +--> ?PR?FILE
  +--> ?PR?_?FILE_GET_EFHEADER?FILE
  +--> ?PR?_?M_FREE?MIDGARD
  +--> ?PR?_?_READREC?FILE
  +--> ?PR?_?_WRITEREC_PREV?FILE

_?AUTHENTICATE_GSM/A3A8                      ----- -----
  +--> ?PR?A3A8
  +--> ?PR?_?_SELECT?FILE
  +--> ?PR?_?_READBIN?FILE
  +--> ?PR?_?AUTH_A3A8?A3A8

A3A8                                         ----- -----
  +--> ?CO?A3A8

?CO?A3A8                                     ----- -----

LX51 LINKER/LOCATER V3.51                                                             01/27/2014  09:14:18  PAGE 18


_?AUTH_A3A8/A3A8                             ----- -----
  +--> ?PR?A3A8

_?SAT_PROFILE_DOWNLOAD/LIQUID                ----- -----
  +--> ?PR?LIQUID

LIQUID                                       ----- -----

_?VAS_ACTIVATED/VAS                          ----- -----
  +--> ?PR?VAS
  +--> ?PR?_?_SELECT?FILE
  +--> ?PR?_?_CHECK_ACCESS?FILE

VAS                                          ----- -----
  +--> ?PR?_?VAS_SUBSTITUTE?VAS
  +--> ?PR?_?GET_VARIABLE?VAS

_?VAS_SUBSTITUTE/VAS                         ----- -----
  +--> ?PR?_?GET_VARIABLE?VAS

_?GET_VARIABLE/VAS                           ----- -----

_?_CHECK_ACCESS/FILE                         ----- -----
  +--> ?PR?FILE
  +--> ?PR?_?FILE_GET_EFHEADER?FILE
  +--> ?PR?_?FILE_CHECK_STATUS?FILE
  +--> ?PR?_?M_FREE?MIDGARD

_?FILE_CHECK_STATUS/FILE                     ----- -----
  +--> ?PR?FILE

_?LIQUID_PROFILE/LIQUID                      ----- -----
  +--> ?PR?LIQUID
  +--> ?PR?_?_SELECT?FILE
  +--> ?PR?_?_READBIN?FILE
  +--> ?PR?_?SAT_INIT?SAT
  +--> ?PR?_?SAT_RESPONSE?SAT

_?SAT_INIT/SAT                               ----- -----
  +--> ?PR?SAT

SAT                                          ----- -----

_?SAT_RESPONSE/SAT                           ----- -----
  +--> ?PR?SAT
  +--> ?PR?_?SAT_FILE_PUSH?SAT
  +--> ?PR?_?SAT_STATUS?SAT

_?SAT_FILE_PUSH/SAT                          ----- -----
  +--> ?PR?SAT
  +--> ?PR?_?SAT_PUSH?SAT

_?SAT_PUSH/SAT                               ----- -----
  +--> ?PR?SAT

_?VAS_EVENT/WIB                              ----- -----
  +--> ?PR?WIB
  +--> ?PR?_?_SELECT?FILE
  +--> ?PR?_?VAS_PUSH_HEADER?VAS
  +--> ?PR?_?_READBIN?FILE
  +--> ?PR?_?SAT_FILE_PUSH?SAT
  +--> ?PR?_?SAT_FILE_FLUSH?SAT

WIB                                          ----- -----

LX51 LINKER/LOCATER V3.51                                                             01/27/2014  09:14:18  PAGE 19


_?VAS_PUSH_HEADER/VAS                        ----- -----
  +--> ?PR?VAS
  +--> ?PR?_?SAT_FILE_PUSH?SAT

_?SAT_FILE_FLUSH/SAT                         ----- -----
  +--> ?PR?SAT
  +--> ?PR?_?SAT_READ?SAT
  +--> ?PR?_?SAT_RESPONSE?SAT

_?SAT_READ/SAT                               ----- -----
  +--> ?PR?SAT

_?VAS_STARTUP/WIB                            ----- -----
  +--> ?PR?WIB
  +--> ?PR?_?VAS_INVOKE?WIB
  +--> ?PR?_?VAS_DECODE?VAS

_?VAS_INVOKE/WIB                             ----- -----
  +--> ?PR?WIB
  +--> ?PR?_?FILE_GET_CURRENT_HEADER?FILE
  +--> ?PR?_?M_FREE?MIDGARD
  +--> ?PR?_?_READREC?FILE
  +--> ?PR?_?_READBIN?FILE
  +--> ?PR?_?_SELECT?FILE
  +--> ?PR?_?VAS_PLUGIN_INIT?VAS

_?VAS_PLUGIN_INIT/VAS                        ----- -----
  +--> ?PR?VAS
  +--> ?PR?_?_SELECT?FILE
  +--> ?PR?_?_READBIN?FILE

_?VAS_DECODE/VAS                             ----- -----
  +--> ?PR?VAS
  +--> ?PR?_?VAS_FILE_POP?VAS
  +--> ?PR?_?M_FREE?MIDGARD
  +--> ?PR?_?LIQUID_SET_RESPONSE_DATA?LIQUID
  +--> ?PR?_?VAS_PUSH_HEADER?VAS
  +--> ?PR?_?_SELECT?FILE
  +--> ?PR?_?_READBIN?FILE
  +--> ?PR?_?P348_CREATE_HEADER?SMS
  +--> ?PR?_?P348_ENCODE_COMMAND_PACKET?SMS
  +--> ?PR?_?_READREC?FILE
  +--> ?PR?_?ENCODE_SMSTPDU?SMS
  +--> ?PR?_?VAS_SUBSTITUTE?VAS
  +--> ?PR?_?SET_VARIABLE?VAS
  +--> ?PR?_?SAT_FILE_PUSH?SAT
  +--> ?PR?_?CLEAR_LIST?VAS
  +--> ?PR?_?P348_SET_TAR?SMS
  +--> ?PR?_?M_ALLOC?MIDGARD
  +--> ?PR?_?VAS_PLUGIN_INIT?VAS
  +--> ?PR?VAS_EXIT_PLUGIN?VAS
  +--> ?PR?_?SAT_FILE_FLUSH?SAT

_?VAS_FILE_POP/VAS                           ----- -----
  +--> ?PR?VAS
  +--> ?PR?_?_READBIN?FILE

_?LIQUID_SET_RESPONSE_DATA/LIQUID            ----- -----
  +--> ?PR?LIQUID
  +--> ?PR?_?_SELECT?FILE
  +--> ?PR?_?_WRITEBIN?FILE

_?P348_CREATE_HEADER/SMS                     ----- -----
  +--> ?PR?SMS
  +--> ?PR?_?VAS_GET_SECURITY_CONFIG?WIB
LX51 LINKER/LOCATER V3.51                                                             01/27/2014  09:14:18  PAGE 20



SMS                                          ----- -----
  +--> ?CO?SMS

?CO?SMS                                      ----- -----

_?VAS_GET_SECURITY_CONFIG/WIB                ----- -----
  +--> ?PR?WIB
  +--> ?PR?_?M_ALLOC?MIDGARD
  +--> ?PR?_?_READREC?FILE
  +--> ?PR?_?_READBIN?FILE
  +--> ?PR?_?_SELECT?FILE
  +--> ?PR?_?M_FREE?MIDGARD

_?P348_ENCODE_COMMAND_PACKET/SMS             ----- -----
  +--> ?PR?SMS
  +--> ?PR?_?_SELECT?FILE
  +--> ?PR?_?_READBIN?FILE
  +--> ?PR?_?CALCRC32?CRC
  +--> ?PR?_?VAS_GET_SECURITY_CONFIG?WIB
  +--> ?PR?_?DES_MEMOPERATION?DES

_?CALCRC32/CRC                               ----- -----
  +--> ?PR?CRC

CRC                                          ----- -----
  +--> ?PR?_?LGENCRC32?CRC

_?LGENCRC32/CRC                              ----- -----

_?DES_MEMOPERATION/DES                       ----- -----
  +--> ?PR?DES
  +--> ?CO?DES
  +--> ?PR?_?TDES_ENCRYPT?ISO7816_API
  +--> ?PR?_?DES_ENCRYPT?ISO7816_API
  +--> ?PR?_?TDES_DECRYPT?ISO7816_API
  +--> ?PR?_?DES_DECRYPT?ISO7816_API

DES                                          ----- -----

?CO?DES                                      ----- -----

_?TDES_ENCRYPT/ISO7816_API                   ----- -----
  +--> ?PR?ISO7816_API
  +--> ?PR?_DES_OPERATION?ISO7816_API

_?TDES_DECRYPT/ISO7816_API                   ----- -----
  +--> ?PR?ISO7816_API
  +--> ?PR?_DES_OPERATION?ISO7816_API

_?DES_DECRYPT/ISO7816_API                    ----- -----
  +--> ?PR?ISO7816_API
  +--> ?PR?_DES_OPERATION?ISO7816_API

_?ENCODE_SMSTPDU/SMS                         ----- -----
  +--> ?PR?SMS

_?SET_VARIABLE/VAS                           ----- -----
  +--> ?PR?VAS
  +--> ?PR?_?M_FREE?MIDGARD
  +--> ?PR?_?M_ALLOC?MIDGARD

_?CLEAR_LIST/VAS                             ----- -----
  +--> ?PR?VAS
  +--> ?PR?_?M_FREE?MIDGARD
LX51 LINKER/LOCATER V3.51                                                             01/27/2014  09:14:18  PAGE 21



_?P348_SET_TAR/SMS                           ----- -----
  +--> ?PR?SMS
  +--> ?PR?_?VAS_SET_TAR?WIB

_?VAS_SET_TAR/WIB                            ----- -----
  +--> ?PR?WIB
  +--> ?PR?_?_SELECT?FILE
  +--> ?PR?_?_READREC?FILE

VAS_EXIT_PLUGIN/VAS                          ----- -----
  +--> ?PR?_?M_FREE?MIDGARD
  +--> ?PR?VAS

_?VAS_FETCH/VAS                              ----- -----
  +--> ?PR?VAS
  +--> ?PR?_?VAS_SCRIPT_FETCH?VAS

_?VAS_SCRIPT_FETCH/VAS                       ----- -----
  +--> ?PR?VAS
  +--> ?PR?_?SAT_INIT?SAT
  +--> ?PR?_?SAT_FILE_POP?SAT
  +--> ?PR?_?CLEAR_LIST?VAS
  +--> ?PR?_?M_ALLOC?MIDGARD
  +--> ?PR?_?_SELECT?FILE
  +--> ?PR?_?_READREC?FILE
  +--> ?PR?_?P348_SET_TAR?SMS
  +--> ?PR?_?M_FREE?MIDGARD
  +--> ?PR?_?VAS_INVOKE?WIB
  +--> ?PR?_?GET_VARIABLE?VAS
  +--> ?PR?_?SET_VARIABLE?VAS
  +--> ?PR?_?DECODE_728?DCS
  +--> ?PR?_?VAS_DECODE?VAS

_?SAT_FILE_POP/SAT                           ----- -----
  +--> ?PR?SAT
  +--> ?PR?_?SAT_POP?SAT

_?SAT_POP/SAT                                ----- -----
  +--> ?PR?SAT

_?DECODE_728/DCS                             ----- -----
  +--> ?PR?DCS
  +--> ?PR?_?M_ALLOC?MIDGARD
  +--> ?PR?_?M_FREE?MIDGARD

DCS                                          ----- -----

_?USER_CALLBACK/APPLICATION                  ----- -----
  +--> ?PR?APPLICATION
  +--> ?PR?_?SEND_REGISTRATION?APPLICATION
  +--> ?PR?_?_READBIN?FILE
  +--> ?CO?APPLICATION
  +--> ?PR?_?ENCODE_827?DCS
  +--> ?PR?_?M_FREE?MIDGARD
  +--> ?PR?_?_SELECT?FILE
  +--> ?PR?_?FILE_GET_CURRENT_HEADER?FILE
  +--> ?PR?_?_WRITEBIN?FILE
  +--> ?PR?_?M_ALLOC?MIDGARD
  +--> ?PR?_?_READREC?FILE
  +--> ?PR?_?LS_PRINTF?MEM
  +--> ?PR?_?DECODE_728?DCS
  +--> ?PR?_?IS_DATE_VALID?APPLICATION
  +--> ?PR?_?SAT_COMMAND?SAT
  +--> ?PR?_?SAT_DEVICE?SAT
LX51 LINKER/LOCATER V3.51                                                             01/27/2014  09:14:18  PAGE 22


  +--> ?PR?_?SAT_PUSH?SAT
  +--> ?PR?_?SAT_RESPONSE?SAT
  +--> ?PR?_?_SEEK?FILE
  +--> ?PR?_?SAT_PRINTF?SAT
  +--> ?PR?_?_REHABILITATE?FILE
  +--> ?PR?_STRLEN?STRLEN
  +--> ?PR?_?_INVALIDATE?FILE

APPLICATION                                  ----- -----
  +--> ?CO?APPLICATION

?CO?APPLICATION                              ----- -----

_?SEND_REGISTRATION/APPLICATION              ----- -----
  +--> ?PR?APPLICATION
  +--> ?PR?_?_SELECT?FILE
  +--> ?CO?APPLICATION
  +--> ?PR?_?_READBIN?FILE
  +--> ?PR?_?REMOVE_NULL?APPLICATION
  +--> ?PR?_?M_FREE?MIDGARD
  +--> ?PR?_?M_ALLOC?MIDGARD
  +--> ?PR?_?SAT_PRINTF?SAT
  +--> ?PR?_?SAT_STATUS?SAT
  +--> ?PR?_?ENCODE_SMSTPDU?SMS

_?REMOVE_NULL/APPLICATION                    ----- -----
  +--> ?PR?APPLICATION

_?SAT_PRINTF/SAT                             ----- -----
  +--> ?PR?SAT
  +--> ?PR?_STRLEN?STRLEN
  +--> ?PR?_?SAT_FILE_PUSH?SAT
  +--> ?PR?_?SAT_READ?SAT
  +--> ?PR?_?SAT_RESPONSE?SAT

_?ENCODE_827/DCS                             ----- -----
  +--> ?PR?DCS
  +--> ?PR?_?M_ALLOC?MIDGARD

_?LS_PRINTF/MEM                              ----- -----
  +--> ?PR?MEM
  +--> ?PR?_STRLEN?STRLEN

MEM                                          ----- -----

_?IS_DATE_VALID/APPLICATION                  ----- -----
  +--> ?PR?APPLICATION
  +--> ?PR?_?IS_LEAP_YEAR?APPLICATION

_?IS_LEAP_YEAR/APPLICATION                   ----- -----
  +--> ?PR?APPLICATION

_?SAT_COMMAND/SAT                            ----- -----
  +--> ?PR?SAT
  +--> ?PR?_?SAT_PUSH?SAT

_?SAT_DEVICE/SAT                             ----- -----
  +--> ?PR?SAT
  +--> ?PR?_?SAT_PUSH?SAT

_?LIQUID_PROACTIVE_CHECK/LIQUID              ----- -----
  +--> ?PR?LIQUID

_?VAS_EXECUTE/VAS                            ----- -----
  +--> ?PR?VAS
LX51 LINKER/LOCATER V3.51                                                             01/27/2014  09:14:18  PAGE 23


  +--> ?PR?_?SAT_POP?SAT
  +--> ?PR?_?CLEAR_LIST?VAS
  +--> ?PR?_?VAS_FETCH?VAS
  +--> ?PR?_?SAT_INIT?SAT
  +--> ?PR?_?SAT_FILE_POP?SAT
  +--> ?PR?_?DECODE_SMSTPDU?SMS
  +--> ?PR?_?VAS_INVOKE?WIB
  +--> ?PR?_?VAS_DECODE?VAS

_?DECODE_SMSTPDU/SMS                         ----- -----
  +--> ?PR?SMS
  +--> ?PR?_?M_ALLOC?MIDGARD
  +--> ?PR?_?DECODE_728?DCS
  +--> ?PR?_?USER_PACKET_DECODE?APPLICATION
  +--> ?PR?_?M_FREE?MIDGARD
  +--> ?PR?_?DECODE_SMSPPPACKET?SMS
  +--> ?PR?_?DECODE_SMSCBPACKET?SMS

_?USER_PACKET_DECODE/APPLICATION             ----- -----
  +--> ?PR?APPLICATION
  +--> ?CO?APPLICATION
  +--> ?PR?_?SEND_REGISTRATION?APPLICATION

_?DECODE_SMSPPPACKET/SMS                     ----- -----
  +--> ?PR?SMS
  +--> ?PR?_?_SELECT?FILE
  +--> ?PR?_?FILE_GET_CURRENT_HEADER?FILE
  +--> ?PR?_?M_FREE?MIDGARD
  +--> ?PR?_?M_ALLOC?MIDGARD
  +--> ?PR?_?_WRITEREC?FILE
  +--> ?PR?_?_READREC?FILE
  +--> ?PR?_?_WRITEBIN?FILE
  +--> ?PR?_?P348_DECODE_COMMAND_PACKET?SMS

_?P348_DECODE_COMMAND_PACKET/SMS             ----- -----
  +--> ?PR?SMS
  +--> ?PR?_?_READBIN?FILE
  +--> ?PR?_?VAS_PREPROCESS?WIB
  +--> ?PR?_?_SELECT?FILE
  +--> ?PR?_?VAS_GET_SECURITY_CONFIG?WIB
  +--> ?PR?_?DES_FILEOPERATION?DES
  +--> ?PR?_?M_FREE?MIDGARD
  +--> ?PR?_?_WRITEBIN?FILE
  +--> ?PR?_?FILECRC32?CRC
  +--> ?PR?_?LIQUID_SET_RESPONSE_DATA?LIQUID
  +--> ?PR?_?M_ALLOC?MIDGARD
  +--> ?PR?_?P348_SET_TAR?SMS
  +--> ?PR?_?RFM_DECODE?RFM
  +--> ?CO?SMS
  +--> ?PR?_?SAT_PRINTF?SAT
  +--> ?PR?_?SAT_STATUS?SAT
  +--> ?PR?_?VAS_REPLAY_CHECK?WIB
  +--> ?PR?_?_WRITEREC?FILE
  +--> ?PR?_?VAS_INIT?VAS
  +--> ?PR?_?VAS_DECODE?VAS

_?VAS_PREPROCESS/WIB                         ----- -----
  +--> ?PR?WIB
  +--> ?PR?_?_READREC?FILE
  +--> ?PR?_?_SELECT?FILE
  +--> ?PR?_?_READBIN?FILE
  +--> ?PR?_?M_ALLOC?MIDGARD

_?DES_FILEOPERATION/DES                      ----- -----
  +--> ?PR?DES
LX51 LINKER/LOCATER V3.51                                                             01/27/2014  09:14:18  PAGE 24


  +--> ?CO?DES
  +--> ?PR?_?_READBIN?FILE
  +--> ?PR?_?TDES_ENCRYPT?ISO7816_API
  +--> ?PR?_?DES_ENCRYPT?ISO7816_API
  +--> ?PR?_?TDES_DECRYPT?ISO7816_API
  +--> ?PR?_?DES_DECRYPT?ISO7816_API
  +--> ?PR?_?_WRITEBIN?FILE

_?FILECRC32/CRC                              ----- -----
  +--> ?PR?CRC
  +--> ?PR?_?_READBIN?FILE

_?RFM_DECODE/RFM                             ----- -----
  +--> ?PR?RFM
  +--> ?PR?_?_SELECT?FILE
  +--> ?PR?_?_READBIN?FILE
  +--> ?PR?_?_WRITEBIN?FILE
  +--> ?PR?_?_WRITEREC_NEXT?FILE
  +--> ?PR?_?_WRITEREC_PREV?FILE
  +--> ?PR?_?_WRITEREC?FILE
  +--> ?PR?_?M_FREE?MIDGARD
  +--> ?PR?_?_REHABILITATE?FILE
  +--> ?PR?_?_INVALIDATE?FILE
  +--> ?PR?_?FILE_GET_CURRENT_HEADER?FILE

RFM                                          ----- -----

_?VAS_REPLAY_CHECK/WIB                       ----- -----
  +--> ?PR?WIB
  +--> ?CO?WIB

?CO?WIB                                      ----- -----

_?VAS_INIT/VAS                               ----- -----
  +--> ?PR?VAS

_?DECODE_SMSCBPACKET/SMS                     ----- -----
  +--> ?PR?SMS
  +--> ?CO?SMS
  +--> ?PR?_?_SELECT?FILE
  +--> ?PR?_?_WRITEBIN?FILE
  +--> ?PR?_?P348_DECODE_COMMAND_PACKET?SMS

_?LIQUID_PROFILE_CHECK/LIQUID                ----- -----
  +--> ?PR?LIQUID

_?SAT_CLEANUP/SAT                            ----- -----

_?CHV_VERIFY/SECURITY                        ----- -----
  +--> ?PR?SECURITY
  +--> ?PR?_?IOMAN_READ_BUFFER?IOMAN
  +--> ?PR?_?IOMAN_WRITE_BUFFER?IOMAN

_?CHV_CHANGE/SECURITY                        ----- -----
  +--> ?PR?SECURITY
  +--> ?PR?_?IOMAN_READ_BUFFER?IOMAN
  +--> ?PR?_?IOMAN_WRITE_BUFFER?IOMAN

_?VAS_MENU/WIB                               ----- -----
  +--> ?PR?WIB
  +--> ?PR?_?_SELECT?FILE
  +--> ?PR?_?VAS_PUSH_HEADER?VAS
  +--> ?PR?_?FILE_GET_CURRENT_HEADER?FILE
  +--> ?PR?_?_READREC?FILE
  +--> ?PR?_?M_FREE?MIDGARD
LX51 LINKER/LOCATER V3.51                                                             01/27/2014  09:14:18  PAGE 25


  +--> ?PR?_?SAT_FILE_PUSH?SAT
  +--> ?PR?_?SAT_FILE_FLUSH?SAT

_READFLASH/ISO7816_API                       0639H 063EH
  +--> ?PR?ISO7816_API

_?LOAD_USER_APP/YGGDRASIL                    ----- -----
  +--> ?PR?YGGDRASIL
  +--> ?PR?_?IOMAN_PROGRAM_COPY?IOMAN

ISO7816_MAIN                                 ----- -----

_?IOMAN_TRANSMIT/IOMAN                       ----- -----
  +--> ?PR?_?SEND_BYTE?ISO7816_API
  +--> ?PR?_?TX_N_BYTES?ISO7816_API
  +--> ?PR?_?TX_STATUS?ISO7816_API

_?TX_STATUS/ISO7816_API                      ----- -----
  +--> ?PR?ISO7816_API
  +--> ?PR?_?SEND_BYTE?ISO7816_API

SLEEP_MODE/ISO7816_API                       ----- -----

ENDTIMEOUTSEQUENCE/ISO7816_API               ----- -----

?C_INITSEG                                   ----- -----

*** NEW ROOT *******************************

_?CALCRC/ISO7816_API                         ----- -----
  +--> ?PR?ISO7816_API

*** NEW ROOT *******************************

_?MAC_ALGORITHM3/ISO7816_API                 ----- -----
  +--> ?PR?ISO7816_API
  +--> ?PR?_DES_OPERATION?ISO7816_API

*** NEW ROOT *******************************

DES_ISR/ISO7816_INTERRUPT                    ----- -----

*** NEW ROOT *******************************

UART_ISR/ISO7816_INTERRUPT                   ----- -----

*** NEW ROOT *******************************

INT3_ISR/ISO7816_INTERRUPT                   ----- -----

*** NEW ROOT *******************************

FLASH_ISR/ISO7816_INTERRUPT                  ----- -----

*** NEW ROOT *******************************

INT5_ISR/ISO7816_INTERRUPT                   ----- -----

*** NEW ROOT *******************************

WDT_ISR/ISO7816_INTERRUPT                    ----- -----
  +--> ?PR?_?ISO_AUTOTXNULL?ISO7816_API

*** NEW ROOT *******************************

LX51 LINKER/LOCATER V3.51                                                             01/27/2014  09:14:18  PAGE 26


_?LOAD_TEMP_SPACE/YGGDRASIL                  ----- -----

*** NEW ROOT *******************************

_?AUTH_COMP128/YGGDRASIL                     ----- -----
  +--> ?PR?YGGDRASIL



PUBLIC SYMBOLS OF MODULE:  .\Debug\Output\Yggdrasil20 (?C_STARTUP)


      VALUE       CLASS    TYPE      PUBLIC SYMBOL NAME
      =================================================
      0200064FH   XDATA    BYTE      ?_DES_Operation?BYTE
      01004B7DH   CODE     ---       ?C?ADDXBP
      01004B2AH   CODE     ---       ?C?CCASE
      010046FFH   CODE     ---       ?C?CILDOPTR
      010046D2H   CODE     ---       ?C?CLDOPTR
      010046B9H   CODE     ---       ?C?CLDPTR
      00000000H   NUMBER   ---       ?C?CODESEG
      01004693H   CODE     ---       ?C?COPY
      01004744H   CODE     ---       ?C?CSTOPTR
      01004732H   CODE     ---       ?C?CSTPTR
      01004B50H   CODE     ---       ?C?ICASE
      01004803H   CODE     ---       ?C?IILDX
      01004819H   CODE     ---       ?C?ILDIX
      0100485AH   CODE     ---       ?C?ILDOPTR
      0100482FH   CODE     ---       ?C?ILDPTR
      01004766H   CODE     ---       ?C?IMUL
      010048B1H   CODE     ---       ?C?ISTOPTR
      01004892H   CODE     ---       ?C?ISTPTR
      010048DEH   CODE     ---       ?C?LADD
      01004E85H   CODE     ---       ?C?LLDCODE
      01004E6DH   CODE     ---       ?C?LLDIDATA
      01004960H   CODE     ---       ?C?LLDOPTR
      01004E79H   CODE     ---       ?C?LLDPDATA
      010049B4H   CODE     ---       ?C?LLDXDATA
      010049C0H   CODE     ---       ?C?LLDXDATA0
      01004906H   CODE     ---       ?C?LNOT
      0100494DH   CODE     ---       ?C?LSHL
      01004E95H   CODE     ---       ?C?LSTIDATA
      010049D8H   CODE     ---       ?C?LSTKXDATA
      01004990H   CODE     ---       ?C?LSTOPTR
      01004EA1H   CODE     ---       ?C?LSTPDATA
      010049CCH   CODE     ---       ?C?LSTXDATA
      010048EBH   CODE     ---       ?C?LSUB
      010048F9H   CODE     ---       ?C?LXOR
      01004E1DH   CODE     ---       ?C?MEMCMP
      01004E41H   CODE     ---       ?C?MEMSET
      01004ED1H   CODE     ---       ?C?PLDCODE
      01004EADH   CODE     ---       ?C?PLDIDATA
      01004A12H   CODE     ---       ?C?PLDIXDATA
      01004AA1H   CODE     ---       ?C?PLDOPTR
      01004EBFH   CODE     ---       ?C?PLDPDATA
      01004A32H   CODE     ---       ?C?PLDPTR
      01004A09H   CODE     ---       ?C?PLDXDATA
      01004EB6H   CODE     ---       ?C?PSTIDATA
      01004AD1H   CODE     ---       ?C?PSTOPTR
      01004EC8H   CODE     ---       ?C?PSTPDATA
      01004A52H   CODE     ---       ?C?PSTPTR
      01004A29H   CODE     ---       ?C?PSTXDATA
      010047CDH   CODE     ---       ?C?SIDIV
      01004913H   CODE     ---       ?C?SLCMP
      01004C7AH   CODE     ---       ?C?STRCPY
LX51 LINKER/LOCATER V3.51                                                             01/27/2014  09:14:18  PAGE 27


      01004778H   CODE     ---       ?C?UIDIV
      01004929H   CODE     ---       ?C?ULCMP
      0100493AH   CODE     ---       ?C?ULSHR
      01004BA1H   CODE     ---       ?C?XBPOFF
      00000000H   NUMBER   ---       ?C?XDATASEG
      0100E37DH   CODE     ---       ?C_START
      01000000H   CODE     ---       ?C_STARTUP
      00000008H   DATA     ---       ?C_XBP
      0100ECA3H   CODE     ---       _?_CHECK_ACCESS
      0100C5A2H   CODE     ---       _?_CREATEDIRECTORY
      0100C49CH   CODE     ---       _?_CREATEFILEBIN
      0100CA94H   CODE     ---       _?_CREATEFILECYCLIC
      0100C6A7H   CODE     ---       _?_CREATEFILEREC
      01009776H   CODE     ---       _?_INCREASE
      0100E949H   CODE     ---       _?_INVALIDATE
      0100DD58H   CODE     ---       _?_READBIN
      0100AE8EH   CODE     ---       _?_READREC
      0100F370H   CODE     ---       _?_READREC_NEXT
      0100F247H   CODE     ---       _?_READREC_PREV
      0100E8E2H   CODE     ---       _?_REHABILITATE
      0100A89CH   CODE     ---       _?_REMOVE
      0100696CH   CODE     ---       _?_SEEK
      0100A3E7H   CODE     ---       _?_SELECT
      0100DDE7H   CODE     ---       _?_WRITEBIN
      0100996CH   CODE     ---       _?_WRITEREC
      0100F3A9H   CODE     ---       _?_WRITEREC_NEXT
      0100F284H   CODE     ---       _?_WRITEREC_PREV
      01005DFCH   CODE     ---       _?auth_A3A8
      0100F91BH   CODE     ---       _?AUTH_COMP128
      0100DCC6H   CODE     ---       _?Authenticate_GSM
      01005406H   CODE     ---       _?Bifrost_Decode
      0100E442H   CODE     ---       _?CALCRC
      0100E877H   CODE     ---       _?CalCRC32
      0100D93EH   CODE     ---       _?CHV_CHANGE
      0100DB0BH   CODE     ---       _?chv_create
      0100DE76H   CODE     ---       _?CHV_DISABLE
      0100D8A2H   CODE     ---       _?CHV_ENABLE
      0100F7EAH   CODE     ---       _?CHV_GET_CONFIG
      0100F85BH   CODE     ---       _?CHV_GET_STATUS
      0100DA73H   CODE     ---       _?chv_init
      0100D381H   CODE     ---       _?CHV_UNBLOCK
      0100E01CH   CODE     ---       _?CHV_VERIFY
      0100CF00H   CODE     ---       _?clear_list
      0100BDF4H   CODE     ---       _?decode_728
      0100D0AAH   CODE     ---       _?decode_SMSCBPacket
      0100629BH   CODE     ---       _?decode_SMSPPPacket
      0100A583H   CODE     ---       _?decode_SMSTPDU
      0100F453H   CODE     ---       _?DES_DECRYPT
      0100F4C1H   CODE     ---       _?DES_ENCRYPT
      01009330H   CODE     ---       _?DES_FileOperation
      0100A096H   CODE     ---       _?DES_MemOperation
      01006607H   CODE     ---       _?encode_827
      0100B162H   CODE     ---       _?encode_SMSTPDU
      0100EDD9H   CODE     ---       _?Erase_Pages
      0100CB86H   CODE     ---       _?file_add_entry
      0100C165H   CODE     ---       _?file_check_status
      0100E635H   CODE     ---       _?file_dealloc_all_child
      0100D9D9H   CODE     ---       _?file_find_entry
      0100F799H   CODE     ---       _?FILE_GET_CURRENT_HEADER
      0100F55DH   CODE     ---       _?file_get_dfheader
      0100F58FH   CODE     ---       _?file_get_efheader
      0100F5F3H   CODE     ---       _?file_get_header
      01007EF6H   CODE     ---       _?file_remove_entry
      0100CC6EH   CODE     ---       _?FileCRC32
      0100ED42H   CODE     ---       _?flash_erase
LX51 LINKER/LOCATER V3.51                                                             01/27/2014  09:14:18  PAGE 28


      0100EBEFH   CODE     ---       _?flash_read
      0100E809H   CODE     ---       _?flash_write
      0100850CH   CODE     ---       _?fs_alloc
      0100AA1FH   CODE     ---       _?fs_dealloc
      01009B4FH   CODE     ---       _?FS_FORMAT
      0100F655H   CODE     ---       _?FS_FREESPACE
      0100BB99H   CODE     ---       _?fs_generate_FSH
      0100E5BAH   CODE     ---       _?fs_get_allocated_space
      0100F7C3H   CODE     ---       _?GET_DATA
      0100F004H   CODE     ---       _?get_variable
      0100EB33H   CODE     ---       _?gsm_response
      0100FB09H   CODE     ---       _?Initialize_Hardware
      0100F685H   CODE     ---       _?Initialize_Operating_System
      0100F52BH   CODE     ---       _?IoInit
      0100FAA9H   CODE     ---       _?ioman_init
      0100AFFAH   CODE     ---       _?ioman_program_copy
      0100956FH   CODE     ---       _?ioman_read_buffer
      0100EA73H   CODE     ---       _?ioman_transmit
      01001817H   CODE     ---       _?ioman_write_buffer
      0100C38EH   CODE     ---       _?ioman_write_program
      0100C27BH   CODE     ---       _?is_date_valid
      0100F048H   CODE     ---       _?is_leap_year
      0100F10EH   CODE     ---       _?ISO_AutoTxNULL
      0100C8A5H   CODE     ---       _?KMP_preprocess
      0100D4D7H   CODE     ---       _?KMP_search
      0100F810H   CODE     ---       _?liquid_error
      0100D57DH   CODE     ---       _?liquid_proactive_check
      0100CD4BH   CODE     ---       _?liquid_profile
      0100F3E2H   CODE     ---       _?liquid_profile_check
      0100D622H   CODE     ---       _?liquid_set_response_data
      0100F952H   CODE     ---       _?Load_State
      0100FAC3H   CODE     ---       _?LOAD_TEMP_SPACE
      0100F998H   CODE     ---       _?Load_User_App
      010089E6H   CODE     ---       _?LS_PRINTF
      0100A718H   CODE     ---       _?M_ALLOC
      0100D805H   CODE     ---       _?M_FREE
      0100ECF4H   CODE     ---       _?m_get_allocated_space
      0100F2C1H   CODE     ---       _?m_init_alloc
      0100BCC8H   CODE     ---       _?MAC_ALGORITHM3
      0100DC33H   CODE     ---       _?maze_find_empty_sector
      0100BF1CH   CODE     ---       _?maze_init
      0100D765H   CODE     ---       _?maze_log2phys
      0100CFD9H   CODE     ---       _?p348_create_header
      01004EDDH   CODE     ---       _?p348_decode_command_packet
      01008C42H   CODE     ---       _?p348_encode_command_packet
      0100F87DH   CODE     ---       _?p348_set_tar
      0100EC4BH   CODE     ---       _?RANDOM_NUMBER_GENERATOR
      0100EAD3H   CODE     ---       _?remove_null
      010090EEH   CODE     ---       _?RFM_decode
      0100ED90H   CODE     ---       _?Rx_n_Bytes
      0100FAEDH   CODE     ---       _?SAT_cleanup
      0100EF7CH   CODE     ---       _?SAT_command
      0100F48AH   CODE     ---       _?SAT_device
      0100F89FH   CODE     ---       _?SAT_file_flush
      0100EFC0H   CODE     ---       _?SAT_file_pop
      0100F1CBH   CODE     ---       _?SAT_file_push
      0100F8DFH   CODE     ---       _?SAT_init
      0100E4C1H   CODE     ---       _?SAT_pop
      0100AD18H   CODE     ---       _?SAT_printf
      0100EF37H   CODE     ---       _?SAT_profile_download
      0100E23DH   CODE     ---       _?SAT_push
      0100F6B5H   CODE     ---       _?SAT_read
      0100F76DH   CODE     ---       _?SAT_response
      0100FA28H   CODE     ---       _?SAT_status
      0100FA58H   CODE     ---       _?Save_State
LX51 LINKER/LOCATER V3.51                                                             01/27/2014  09:14:18  PAGE 29


      0100F937H   CODE     ---       _?send_byte
      01008001H   CODE     ---       _?send_registration
      01008E9BH   CODE     ---       _?Send_Status
      0100DF04H   CODE     ---       _?Set_PPS
      0100F624H   CODE     ---       _?SET_RESPONSE
      0100B40DH   CODE     ---       _?set_variable
      0100F8FEH   CODE     ---       _?SetBase
      0100F2FCH   CODE     ---       _?TDES_DECRYPT
      0100F336H   CODE     ---       _?TDES_ENCRYPT
      0100F20AH   CODE     ---       _?Tx_n_Bytes
      0100F8C0H   CODE     ---       _?Tx_Status
      01000200H   CODE     ---       _?user_callback
      0100F740H   CODE     ---       _?user_packet_decode
      0100E79AH   CODE     ---       _?VAS_activated
      010033D9H   CODE     ---       _?VAS_decode
      0100C9A0H   CODE     ---       _?VAS_event
      0100B55AH   CODE     ---       _?VAS_execute
      0100F6E5H   CODE     ---       _?VAS_fetch
      0100E2C1H   CODE     ---       _?VAS_file_pop
      01006CCEH   CODE     ---       _?VAS_get_security_config
      0100F08BH   CODE     ---       _?VAS_init
      0100828BH   CODE     ---       _?VAS_invoke
      0100CE27H   CODE     ---       _?VAS_load_text
      0100A247H   CODE     ---       _?VAS_menu
      0100E1B7H   CODE     ---       _?VAS_plugin_init
      01008785H   CODE     ---       _?VAS_preprocess
      0100E3C2H   CODE     ---       _?VAS_push_header
      0100B922H   CODE     ---       _?VAS_replay_check
      01007C49H   CODE     ---       _?VAS_script_fetch
      0100E0A6H   CODE     ---       _?VAS_set_tar
      0100F5C1H   CODE     ---       _?VAS_startup
      0100EB91H   CODE     ---       _?VAS_strcmp
      0100C043H   CODE     ---       _?VAS_substitute
      0100EA12H   CODE     ---       _?WRITE_TEMP_SPACE
      0100FA39H   CODE     ---       _chv_set_status
      020006D3H   XDATA    ---       _chv_status
      0200068CH   XDATA    ---       _const_list
      020006B2H   XDATA    WORD      _default_menu_offset
      0100DBA0H   CODE     ---       _DES_Operation
      0100F41BH   CODE     ---       _Erase_Page
      0100FA15H   CODE     ---       _fsh_mask
      0100F9EFH   CODE     ---       _ioman_erase_page
      0100FA67H   CODE     ---       _ioman_write_pos
      02000108H   XDATA    BYTE      _iso7816_cla
      02000109H   XDATA    BYTE      _iso7816_ins
      02000107H   XDATA    BYTE      _ISO7816_STATE
      020006CDH   XDATA    WORD      _maze_map_base_addr
      0200030DH   XDATA    ---       _me_capabilities
      02000665H   XDATA    ---       _os_config
      0100F96AH   CODE     ---       _PPS_Handler
      0100EE67H   CODE     ---       _ReadFlash
      02000419H   XDATA    ---       _sat_buffer
      0200051AH   XDATA    ---       _sat_buffer_in
      02000313H   XDATA    WORD      _stk_menu_anchor
      02000315H   XDATA    WORD      _stk_menu_current
      02000317H   XDATA    WORD      _stk_menu_offset
      0100F9DAH   CODE     ---       _STRLEN
      020006BEH   XDATA    ---       _tar_0348
      020006DCH   XDATA    ---       _TICK_COUNTER
      0200067CH   XDATA    BYTE      _tres_cntr
      0100AB9FH   CODE     ---       _UpdateFlash
      02000693H   XDATA    ---       _var_list
      020006A0H   XDATA    ---       _vas_fs
      0100E53EH   CODE     ---       _Write_Bytes
      0200067FH   XDATA    ---       _ygg_fs
LX51 LINKER/LOCATER V3.51                                                             01/27/2014  09:14:18  PAGE 30


      01002098H   CODE     ---       _Yggdrasil_Decode
      0100FF76H   CONST    ---       appkey
      0100FF90H   CONST    ---       ATR
      0100FF88H   CONST    ---       auth_mask
      02000679H   XDATA    ---       auth_token
      0100FFA1H   CONST    ---       chv_padding
*SFR* 00000086H   DATA     BYTE      CLKCON
*SFR* 000000C2H   DATA     BYTE      CRCDAT
*SFR* 000000C0H.5 DATA     BIT       DES_DATEN
*SFR* 000000C0H.3 DATA     BIT       DES_END
      0100FAFDH   CODE     ---       DES_ISR
*SFR* 000000C0H.6 DATA     BIT       DES_KEY1EN
*SFR* 000000C0H.7 DATA     BIT       DES_KEY2EN
*SFR* 000000C0H.1 DATA     BIT       DES_MODE
*SFR* 000000C0H   DATA     BIT       DES_START
*SFR* 000000C0H.2 DATA     BIT       DES_TDES
*SFR* 000000C0H   DATA     BYTE      DESCTL
*SFR* 000000F8H   DATA     BYTE      DESD0
*SFR* 000000F9H   DATA     BYTE      DESD1
*SFR* 000000FAH   DATA     BYTE      DESD2
*SFR* 000000FBH   DATA     BYTE      DESD3
*SFR* 000000FCH   DATA     BYTE      DESD4
*SFR* 000000FDH   DATA     BYTE      DESD5
*SFR* 000000FEH   DATA     BYTE      DESD6
*SFR* 000000FFH   DATA     BYTE      DESD7
      0100FA16H   CODE     ---       EndTimeoutSequence
*SFR* 000000E3H   DATA     BYTE      FDCON
      02000519H   XDATA    BYTE      fetch_len
*SFR* 000000EBH   DATA     BYTE      FL_CON
*SFR* 000000E9H   DATA     BYTE      FL_SDP1
*SFR* 000000EAH   DATA     BYTE      FL_SDP2
*SFR* 000000E8H   DATA     BYTE      FL_STS
*SFR* 000000E8H.2 DATA     BIT       FL_STS_F_CHKFF_ERR
*SFR* 000000E8H.1 DATA     BIT       FL_STS_F_OP_ERR
*SFR* 000000E8H   DATA     BIT       FL_STS_F_OVER
      0100FB03H   CODE     ---       FLASH_ISR
      0200010AH   XDATA    ---       FlashBuffer
      0200030AH   XDATA    WORD      Foffset
      020006C1H   XDATA    ---       fs_info
      0100F713H   CODE     ---       fs_init
      0200067DH   XDATA    BYTE      get_resp_length
      0100FA49H   CODE     ---       HW_INIT
*SFR* 000000A8H   DATA     BYTE      IE
*SFR* 000000A8H.7 DATA     BIT       IE_EA
*SFR* 000000A8H.1 DATA     BIT       IE_TMR0
*SFR* 000000A8H.2 DATA     BIT       IE_UART
      0100FB00H   CODE     ---       INT3_ISR
      0100FB06H   CODE     ---       INT5_ISR
      0100F18CH   CODE     ---       ioman_erase_all
      0100FAF9H   CODE     ---       ioman_set_to_bootloader
      020006B1H   XDATA    BYTE      is_sending_reg
      02000000H   XDATA    ---       iso7816_buffer
      0100FA75H   CODE     ---       ISO7816_INIT
      0100C7A7H   CODE     ---       ISO7816_MAIN
      0100F836H   CODE     ---       ISO_DelayETU
      0100FADAH   CODE     ---       MAIN
      020006CFH   XDATA    WORD      maze_cache_laddr
      020006D1H   XDATA    WORD      maze_cache_paddr
*SFR* 000000C3H   DATA     BYTE      MMU_SEL
      0100F0CDH   CODE     ---       PPS
      0100FA9CH   CODE     ---       PPS_ACK
      0200030CH   XDATA    BYTE      PPSFlag
      0100FACFH   CODE     ---       receive_byte
      02000688H   XDATA    ---       response_data
      0200067EH   XDATA    BYTE      response_length
LX51 LINKER/LOCATER V3.51                                                             01/27/2014  09:14:18  PAGE 31


      0100F14DH   CODE     ---       ReturnToBL
*SFR* 000000E1H   DATA     BYTE      RNGCTL
*SFR* 000000E2H   DATA     BYTE      RNGDAT
*SFR* 00000090H   DATA     BYTE      rP1
*SFR* 000000B0H   DATA     BYTE      rP3
      02000687H   XDATA    BYTE      sat_init_state
      0100FA82H   CODE     ---       Send_ATR
*SFR* 00000097H   DATA     BYTE      SLEEP
      0100F9AFH   CODE     ---       Sleep_Mode
      0100F981H   CODE     ---       StartTimeoutSequence
      02000319H   XDATA    ---       STK_buffer
      0200065DH   XDATA    ---       stk_fs
*SFR* 00000088H   DATA     BYTE      TCON
*SFR* 00000088H.5 DATA     BIT       TCON_TF0
*SFR* 00000088H.4 DATA     BIT       TCON_TR0
      020006E4H   XDATA    WORD      temp_pos
*SFR* 0000008CH   DATA     BYTE      TH0
*SFR* 0000008AH   DATA     BYTE      TL0
*SFR* 00000089H   DATA     BYTE      TMOD
      01000129H   CODE     ---       TMR0_ISR
      0100FF7FH   CONST    ---       tokenkey
      020006AFH   XDATA    BYTE      tsel_lang
      020006B4H   XDATA    BYTE      tsel_menu
      020006B5H   XDATA    BYTE      tsel_nsp
      020006B0H   XDATA    BYTE      tsel_pulsa
      0100D42EH   CODE     ---       UART_ISR
*SFR* 000000DAH   DATA     BYTE      UBRC
*SFR* 000000D9H   DATA     BYTE      UBUF
*SFR* 000000DFH   DATA     BYTE      UCR
*SFR* 000000DEH   DATA     BYTE      UCR2
*SFR* 000000D8H   DATA     BYTE      USR
*SFR* 000000D8H   DATA     BIT       USR_TBE
      02000698H   XDATA    ---       vas_cistr
      0200069BH   XDATA    BYTE      vas_cvid
      0100F9C5H   CODE     ---       VAS_exit_plugin
      02000697H   XDATA    BYTE      vas_mode
      0200068FH   XDATA    WORD      vas_PC
      0200069CH   XDATA    WORD      vas_PC_prev
      02000691H   XDATA    WORD      vas_PL
      0200069EH   XDATA    WORD      vas_skip
      02000696H   XDATA    BYTE      vas_state
      020006A8H   XDATA    BYTE      vas_tar_mode
*SFR* 000000DBH   DATA     BYTE      VDCON
      0100FEF6H   CONST    ---       VectorTable
      0100EEADH   CODE     ---       WDT_ISR
      020006A9H   XDATA    ---       x_variable
      020006ACH   XDATA    ---       y_variable



SYMBOL TABLE OF MODULE:  .\Debug\Output\Yggdrasil20 (?C_STARTUP)

      VALUE       REP       CLASS    TYPE      SYMBOL NAME
      ====================================================
      ---         MODULE    ---      ---       ?C_STARTUP
      01000000H   PUBLIC    CODE     ---       ?C_STARTUP
      000000E0H   SYMBOL    DATA     ---       ACC
      0000204EH   SYMBOL    CODE     ---       ADDR16BIT
      00002082H   SYMBOL    CODE     ---       ADDR8BIT
      00002078H   SYMBOL    CODE     ---       ADDR8BITL
      0000207EH   SYMBOL    CODE     ---       ADDR8BITS
      000000F0H   SYMBOL    DATA     ---       B
      0000008FH   SYMBOL    DATA     ---       CLKSEL
      00002000H   SYMBOL    CODE     ---       CSTARTUP
      00000083H   SYMBOL    DATA     ---       DPH
LX51 LINKER/LOCATER V3.51                                                             01/27/2014  09:14:18  PAGE 32


      00000082H   SYMBOL    DATA     ---       DPL
      00000000H   SYMBOL    NUMBER   ---       IBPSTACK
      00000100H   SYMBOL    NUMBER   ---       IBPSTACKTOP
      00000100H   SYMBOL    NUMBER   ---       IDATALEN
      00002006H   SYMBOL    CODE     ---       IDATALOOP
      00002016H   SYMBOL    CODE     ---       INCHI
      00002087H   SYMBOL    CODE     ---       INITIDATA
      00002024H   SYMBOL    CODE     ---       INITIIALIZEDDATA
      0000205BH   SYMBOL    CODE     ---       INITXDATA
      00000003H   SYMBOL    CODE     ---       INTERRUPT0
      0000000BH   SYMBOL    CODE     ---       INTERRUPT1
      00000013H   SYMBOL    CODE     ---       INTERRUPT2
      0000001BH   SYMBOL    CODE     ---       INTERRUPT3
      00000023H   SYMBOL    CODE     ---       INTERRUPT4
      0000002BH   SYMBOL    CODE     ---       INTERRUPT5
      00000033H   SYMBOL    CODE     ---       INTERRUPT6
      00002013H   SYMBOL    CODE     ---       JUDGEHI
      00002092H   SYMBOL    CODE     ---       JUMPTOMAIN
      00002034H   SYMBOL    CODE     ---       LEN13BIT
      00002045H   SYMBOL    CODE     ---       LEN5BIT
      00002029H   SYMBOL    CODE     ---       LOOPINIT
      0000201EH   SYMBOL    CODE     ---       NONXRAMINIT0
      000000A0H   SYMBOL    DATA     ---       P2
      00000000H   SYMBOL    NUMBER   ---       PBPSTACK
      00000800H   SYMBOL    NUMBER   ---       PBPSTACKTOP
      00000000H   SYMBOL    NUMBER   ---       PDATALEN
      00000000H   SYMBOL    NUMBER   ---       PDATASTART
      00000000H   SYMBOL    NUMBER   ---       PPAGE
      00000000H   SYMBOL    NUMBER   ---       PPAGEENABLE
      00000081H   SYMBOL    DATA     ---       SP
      00000001H   SYMBOL    NUMBER   ---       XBPSTACK
      00000800H   SYMBOL    NUMBER   ---       XBPSTACKTOP
      00000800H   SYMBOL    NUMBER   ---       XDATALEN
      00002018H   SYMBOL    CODE     ---       XDATALOOP
      00000000H   SYMBOL    NUMBER   ---       XDATASTART
      01000000H   LINE      CODE     ---       #106
      01000003H   LINE      CODE     ---       #113
      01000006H   LINE      CODE     ---       #114
      01000007H   LINE      CODE     ---       #115
      01000008H   LINE      CODE     ---       #116
      01000009H   LINE      CODE     ---       #117
      0100000AH   LINE      CODE     ---       #118
      0100000BH   LINE      CODE     ---       #125
      0100000EH   LINE      CODE     ---       #126
      0100000FH   LINE      CODE     ---       #127
      01000010H   LINE      CODE     ---       #128
      01000011H   LINE      CODE     ---       #129
      01000012H   LINE      CODE     ---       #130
      01000013H   LINE      CODE     ---       #137
      01000016H   LINE      CODE     ---       #138
      01000017H   LINE      CODE     ---       #139
      01000018H   LINE      CODE     ---       #140
      01000019H   LINE      CODE     ---       #141
      0100001AH   LINE      CODE     ---       #142
      0100001BH   LINE      CODE     ---       #149
      0100001EH   LINE      CODE     ---       #150
      0100001FH   LINE      CODE     ---       #151
      01000020H   LINE      CODE     ---       #152
      01000021H   LINE      CODE     ---       #153
      01000022H   LINE      CODE     ---       #154
      01000023H   LINE      CODE     ---       #161
      01000026H   LINE      CODE     ---       #162
      01000027H   LINE      CODE     ---       #163
      01000028H   LINE      CODE     ---       #164
      01000029H   LINE      CODE     ---       #165
LX51 LINKER/LOCATER V3.51                                                             01/27/2014  09:14:18  PAGE 33


      0100002AH   LINE      CODE     ---       #166
      0100002BH   LINE      CODE     ---       #173
      0100002EH   LINE      CODE     ---       #174
      0100002FH   LINE      CODE     ---       #175
      01000030H   LINE      CODE     ---       #176
      01000031H   LINE      CODE     ---       #177
      01000032H   LINE      CODE     ---       #178
      01000033H   LINE      CODE     ---       #185
      01000036H   LINE      CODE     ---       #186
      01000037H   LINE      CODE     ---       #187
      01000038H   LINE      CODE     ---       #188
      01000039H   LINE      CODE     ---       #189
      0100003AH   LINE      CODE     ---       #190
      01002000H   LINE      CODE     ---       #200
      01002003H   LINE      CODE     ---       #203
      01002005H   LINE      CODE     ---       #204
      01002006H   LINE      CODE     ---       #206
      01002007H   LINE      CODE     ---       #207
      01002009H   LINE      CODE     ---       #212
      0100200CH   LINE      CODE     ---       #213
      0100200EH   LINE      CODE     ---       #214
      01002010H   LINE      CODE     ---       #216
      01002011H   LINE      CODE     ---       #217
      01002013H   LINE      CODE     ---       #219
      01002014H   LINE      CODE     ---       #220
      01002016H   LINE      CODE     ---       #223
      01002017H   LINE      CODE     ---       #225
      01002018H   LINE      CODE     ---       #227
      01002019H   LINE      CODE     ---       #228
      0100201AH   LINE      CODE     ---       #229
      0100201CH   LINE      CODE     ---       #230
      0100201EH   LINE      CODE     ---       #259
      01002021H   LINE      CODE     ---       #260
      01002024H   LINE      CODE     ---       #271
      01002027H   LINE      CODE     ---       #272
      01002029H   LINE      CODE     ---       #275
      0100202AH   LINE      CODE     ---       #276
      0100202BH   LINE      CODE     ---       #277
      0100202DH   LINE      CODE     ---       #279
      0100202EH   LINE      CODE     ---       #280
      0100202FH   LINE      CODE     ---       #281
      01002031H   LINE      CODE     ---       #282
      01002034H   LINE      CODE     ---       #285
      01002035H   LINE      CODE     ---       #286
      01002036H   LINE      CODE     ---       #287
      01002037H   LINE      CODE     ---       #288
      01002038H   LINE      CODE     ---       #289
      01002039H   LINE      CODE     ---       #290
      0100203AH   LINE      CODE     ---       #291
      0100203BH   LINE      CODE     ---       #292
      0100203DH   LINE      CODE     ---       #293
      01002040H   LINE      CODE     ---       #294
      01002042H   LINE      CODE     ---       #295
      01002043H   LINE      CODE     ---       #296
      01002045H   LINE      CODE     ---       #299
      01002046H   LINE      CODE     ---       #300
      01002048H   LINE      CODE     ---       #301
      0100204BH   LINE      CODE     ---       #302
      0100204DH   LINE      CODE     ---       #303
      0100204EH   LINE      CODE     ---       #306
      0100204FH   LINE      CODE     ---       #307
      01002051H   LINE      CODE     ---       #308
      01002052H   LINE      CODE     ---       #309
      01002053H   LINE      CODE     ---       #310
      01002054H   LINE      CODE     ---       #311
LX51 LINKER/LOCATER V3.51                                                             01/27/2014  09:14:18  PAGE 34


      01002055H   LINE      CODE     ---       #312
      01002056H   LINE      CODE     ---       #313
      01002057H   LINE      CODE     ---       #314
      01002058H   LINE      CODE     ---       #315
      01002059H   LINE      CODE     ---       #316
      0100205AH   LINE      CODE     ---       #317
      0100205BH   LINE      CODE     ---       #320
      0100205CH   LINE      CODE     ---       #321
      0100205DH   LINE      CODE     ---       #322
      0100205EH   LINE      CODE     ---       #323
      0100205FH   LINE      CODE     ---       #325
      01002060H   LINE      CODE     ---       #326
      01002062H   LINE      CODE     ---       #327
      01002063H   LINE      CODE     ---       #328
      01002064H   LINE      CODE     ---       #329
      01002066H   LINE      CODE     ---       #330
      01002067H   LINE      CODE     ---       #332
      01002068H   LINE      CODE     ---       #333
      01002069H   LINE      CODE     ---       #334
      0100206AH   LINE      CODE     ---       #336
      0100206BH   LINE      CODE     ---       #337
      0100206DH   LINE      CODE     ---       #338
      0100206EH   LINE      CODE     ---       #339
      0100206FH   LINE      CODE     ---       #340
      01002071H   LINE      CODE     ---       #341
      01002072H   LINE      CODE     ---       #343
      01002074H   LINE      CODE     ---       #344
      01002076H   LINE      CODE     ---       #345
      01002078H   LINE      CODE     ---       #348
      01002079H   LINE      CODE     ---       #349
      0100207BH   LINE      CODE     ---       #350
      0100207CH   LINE      CODE     ---       #351
      0100207EH   LINE      CODE     ---       #354
      0100207FH   LINE      CODE     ---       #355
      01002081H   LINE      CODE     ---       #356
      01002082H   LINE      CODE     ---       #359
      01002083H   LINE      CODE     ---       #360
      01002084H   LINE      CODE     ---       #361
      01002085H   LINE      CODE     ---       #362
      01002086H   LINE      CODE     ---       #363
      01002087H   LINE      CODE     ---       #366
      01002088H   LINE      CODE     ---       #367
      01002089H   LINE      CODE     ---       #368
      0100208AH   LINE      CODE     ---       #369
      0100208BH   LINE      CODE     ---       #370
      0100208CH   LINE      CODE     ---       #372
      0100208EH   LINE      CODE     ---       #373
      01002090H   LINE      CODE     ---       #374
      01002092H   LINE      CODE     ---       #379
      01002095H   LINE      CODE     ---       #382

      ---         MODULE    ---      ---       MAIN
      0100FA49H   PUBLIC    CODE     ---       HW_INIT
      0100FADAH   PUBLIC    CODE     ---       MAIN
      020006DCH   PUBLIC    XDATA    ---       _TICK_COUNTER
      0100FAE3H   SYMBOL    CODE     ---       ?C0001
      0100FA57H   SYMBOL    CODE     ---       ?C0002
      000000E0H   SYMBOL    DATA     ---       ACC
      000000F0H   SYMBOL    DATA     ---       B
      000000EEH   SYMBOL    DATA     ---       BANK_NUM
      000000EFH   SYMBOL    DATA     ---       BANK_SEL
      000000DBH   SYMBOL    DATA     ---       CHIPSC
      00000086H   SYMBOL    DATA     ---       CLKCON
      0000008FH   SYMBOL    DATA     ---       CLKSEL
      000000C2H   SYMBOL    DATA     ---       CRCDAT
LX51 LINKER/LOCATER V3.51                                                             01/27/2014  09:14:18  PAGE 35


      000000C0H   SYMBOL    DATA     ---       DESCTL
      000000F8H   SYMBOL    DATA     ---       DESD0
      000000F9H   SYMBOL    DATA     ---       DESD1
      000000FAH   SYMBOL    DATA     ---       DESD2
      000000FBH   SYMBOL    DATA     ---       DESD3
      000000FCH   SYMBOL    DATA     ---       DESD4
      000000FDH   SYMBOL    DATA     ---       DESD5
      000000FEH   SYMBOL    DATA     ---       DESD6
      000000FFH   SYMBOL    DATA     ---       DESD7
      000000C0H.5 SYMBOL    BIT      ---       DES_DATEN
      000000C0H.3 SYMBOL    BIT      ---       DES_END
      000000C0H.6 SYMBOL    BIT      ---       DES_KEY1EN
      000000C0H.7 SYMBOL    BIT      ---       DES_KEY2EN
      000000C0H.1 SYMBOL    BIT      ---       DES_MODE
      000000C0H.0 SYMBOL    BIT      ---       DES_START
      000000C0H.2 SYMBOL    BIT      ---       DES_TDES
      00000083H   SYMBOL    DATA     ---       DPH
      00000083H   SYMBOL    DATA     ---       DPH0
      00000085H   SYMBOL    DATA     ---       DPH1
      00000082H   SYMBOL    DATA     ---       DPL
      00000082H   SYMBOL    DATA     ---       DPL0
      00000084H   SYMBOL    DATA     ---       DPL1
      000000A2H   SYMBOL    DATA     ---       DPS
      000000E3H   SYMBOL    DATA     ---       FDCON
      000000EBH   SYMBOL    DATA     ---       FL_CON
      000000E7H   SYMBOL    DATA     ---       FL_PATCH
      000000E9H   SYMBOL    DATA     ---       FL_SDP1
      000000EAH   SYMBOL    DATA     ---       FL_SDP2
      000000E8H   SYMBOL    DATA     ---       FL_STS
      000000E8H.2 SYMBOL    BIT      ---       FL_STS_F_CHKFF_ERR
      000000E8H.1 SYMBOL    BIT      ---       FL_STS_F_OP_ERR
      000000E8H.0 SYMBOL    BIT      ---       FL_STS_F_OVER
      000000A8H   SYMBOL    DATA     ---       IE
      000000A8H.0 SYMBOL    BIT      ---       IE_DES
      000000A8H.7 SYMBOL    BIT      ---       IE_EA
      000000A8H.4 SYMBOL    BIT      ---       IE_FLASH
      000000A8H.3 SYMBOL    BIT      ---       IE_INT3
      000000A8H.5 SYMBOL    BIT      ---       IE_INT5
      000000A8H.1 SYMBOL    BIT      ---       IE_TMR0
      000000A8H.2 SYMBOL    BIT      ---       IE_UART
      000000A8H.6 SYMBOL    BIT      ---       IE_WDT
      000000B8H   SYMBOL    DATA     ---       IP
      000000C3H   SYMBOL    DATA     ---       MMU_SEL
      00000087H   SYMBOL    DATA     ---       PCON
      000000D0H   SYMBOL    DATA     ---       PSW
      000000E1H   SYMBOL    DATA     ---       RNGCTL
      000000E2H   SYMBOL    DATA     ---       RNGDAT
      00000080H   SYMBOL    DATA     ---       RP0
      00000090H   SYMBOL    DATA     ---       RP1
      000000A0H   SYMBOL    DATA     ---       RP2
      000000B0H   SYMBOL    DATA     ---       RP3
      00000080H   SYMBOL    DATA     ---       SFR80
      00000081H   SYMBOL    DATA     ---       SFR81
      00000082H   SYMBOL    DATA     ---       SFR82
      00000083H   SYMBOL    DATA     ---       SFR83
      00000084H   SYMBOL    DATA     ---       SFR84
      00000085H   SYMBOL    DATA     ---       SFR85
      00000086H   SYMBOL    DATA     ---       SFR86
      00000087H   SYMBOL    DATA     ---       SFR87
      00000088H   SYMBOL    DATA     ---       SFR88
      00000089H   SYMBOL    DATA     ---       SFR89
      0000008AH   SYMBOL    DATA     ---       SFR8A
      0000008BH   SYMBOL    DATA     ---       SFR8B
      0000008CH   SYMBOL    DATA     ---       SFR8C
      0000008DH   SYMBOL    DATA     ---       SFR8D
LX51 LINKER/LOCATER V3.51                                                             01/27/2014  09:14:18  PAGE 36


      0000008EH   SYMBOL    DATA     ---       SFR8E
      0000008FH   SYMBOL    DATA     ---       SFR8F
      00000090H   SYMBOL    DATA     ---       SFR90
      00000091H   SYMBOL    DATA     ---       SFR91
      00000092H   SYMBOL    DATA     ---       SFR92
      00000093H   SYMBOL    DATA     ---       SFR93
      00000094H   SYMBOL    DATA     ---       SFR94
      00000095H   SYMBOL    DATA     ---       SFR95
      00000096H   SYMBOL    DATA     ---       SFR96
      00000097H   SYMBOL    DATA     ---       SFR97
      00000098H   SYMBOL    DATA     ---       SFR98
      00000099H   SYMBOL    DATA     ---       SFR99
      0000009AH   SYMBOL    DATA     ---       SFR9A
      0000009BH   SYMBOL    DATA     ---       SFR9B
      0000009CH   SYMBOL    DATA     ---       SFR9C
      0000009DH   SYMBOL    DATA     ---       SFR9D
      0000009EH   SYMBOL    DATA     ---       SFR9E
      0000009FH   SYMBOL    DATA     ---       SFR9F
      000000A0H   SYMBOL    DATA     ---       SFRA0
      000000A1H   SYMBOL    DATA     ---       SFRA1
      000000A2H   SYMBOL    DATA     ---       SFRA2
      000000A3H   SYMBOL    DATA     ---       SFRA3
      000000A4H   SYMBOL    DATA     ---       SFRA4
      000000A5H   SYMBOL    DATA     ---       SFRA5
      000000A6H   SYMBOL    DATA     ---       SFRA6
      000000A7H   SYMBOL    DATA     ---       SFRA7
      000000A8H   SYMBOL    DATA     ---       SFRA8
      000000A9H   SYMBOL    DATA     ---       SFRA9
      000000AAH   SYMBOL    DATA     ---       SFRAA
      000000ABH   SYMBOL    DATA     ---       SFRAB
      000000ACH   SYMBOL    DATA     ---       SFRAC
      000000ADH   SYMBOL    DATA     ---       SFRAD
      000000AEH   SYMBOL    DATA     ---       SFRAE
      000000AFH   SYMBOL    DATA     ---       SFRAF
      000000B0H   SYMBOL    DATA     ---       SFRB0
      000000B1H   SYMBOL    DATA     ---       SFRB1
      000000B2H   SYMBOL    DATA     ---       SFRB2
      000000B3H   SYMBOL    DATA     ---       SFRB3
      000000B4H   SYMBOL    DATA     ---       SFRB4
      000000B5H   SYMBOL    DATA     ---       SFRB5
      000000B6H   SYMBOL    DATA     ---       SFRB6
      000000B7H   SYMBOL    DATA     ---       SFRB7
      000000B8H   SYMBOL    DATA     ---       SFRB8
      000000B9H   SYMBOL    DATA     ---       SFRB9
      000000BAH   SYMBOL    DATA     ---       SFRBA
      000000BBH   SYMBOL    DATA     ---       SFRBB
      000000BCH   SYMBOL    DATA     ---       SFRBC
      000000BDH   SYMBOL    DATA     ---       SFRBD
      000000BEH   SYMBOL    DATA     ---       SFRBE
      000000BFH   SYMBOL    DATA     ---       SFRBF
      000000C0H   SYMBOL    DATA     ---       SFRC0
      000000C1H   SYMBOL    DATA     ---       SFRC1
      000000C2H   SYMBOL    DATA     ---       SFRC2
      000000C3H   SYMBOL    DATA     ---       SFRC3
      000000C4H   SYMBOL    DATA     ---       SFRC4
      000000C5H   SYMBOL    DATA     ---       SFRC5
      000000C6H   SYMBOL    DATA     ---       SFRC6
      000000C7H   SYMBOL    DATA     ---       SFRC7
      000000C8H   SYMBOL    DATA     ---       SFRC8
      000000C9H   SYMBOL    DATA     ---       SFRC9
      000000CAH   SYMBOL    DATA     ---       SFRCA
      000000CBH   SYMBOL    DATA     ---       SFRCB
      000000CCH   SYMBOL    DATA     ---       SFRCC
      000000CDH   SYMBOL    DATA     ---       SFRCD
      000000CEH   SYMBOL    DATA     ---       SFRCE
LX51 LINKER/LOCATER V3.51                                                             01/27/2014  09:14:18  PAGE 37


      000000CFH   SYMBOL    DATA     ---       SFRCF
      000000D0H   SYMBOL    DATA     ---       SFRD0
      000000D1H   SYMBOL    DATA     ---       SFRD1
      000000D2H   SYMBOL    DATA     ---       SFRD2
      000000D3H   SYMBOL    DATA     ---       SFRD3
      000000D4H   SYMBOL    DATA     ---       SFRD4
      000000D5H   SYMBOL    DATA     ---       SFRD5
      000000D6H   SYMBOL    DATA     ---       SFRD6
      000000D7H   SYMBOL    DATA     ---       SFRD7
      000000D8H   SYMBOL    DATA     ---       SFRD8
      000000D9H   SYMBOL    DATA     ---       SFRD9
      000000DAH   SYMBOL    DATA     ---       SFRDA
      000000DBH   SYMBOL    DATA     ---       SFRDB
      000000DCH   SYMBOL    DATA     ---       SFRDC
      000000DDH   SYMBOL    DATA     ---       SFRDD
      000000DEH   SYMBOL    DATA     ---       SFRDE
      000000DFH   SYMBOL    DATA     ---       SFRDF
      000000E0H   SYMBOL    DATA     ---       SFRE0
      000000E1H   SYMBOL    DATA     ---       SFRE1
      000000E2H   SYMBOL    DATA     ---       SFRE2
      000000E3H   SYMBOL    DATA     ---       SFRE3
      000000E4H   SYMBOL    DATA     ---       SFRE4
      000000E5H   SYMBOL    DATA     ---       SFRE5
      000000E6H   SYMBOL    DATA     ---       SFRE6
      000000E7H   SYMBOL    DATA     ---       SFRE7
      000000E8H   SYMBOL    DATA     ---       SFRE8
      000000E9H   SYMBOL    DATA     ---       SFRE9
      000000EAH   SYMBOL    DATA     ---       SFREA
      000000EBH   SYMBOL    DATA     ---       SFREB
      000000ECH   SYMBOL    DATA     ---       SFREC
      000000EDH   SYMBOL    DATA     ---       SFRED
      000000EEH   SYMBOL    DATA     ---       SFREE
      000000EFH   SYMBOL    DATA     ---       SFREF
      000000F0H   SYMBOL    DATA     ---       SFRF0
      000000F1H   SYMBOL    DATA     ---       SFRF1
      000000F2H   SYMBOL    DATA     ---       SFRF2
      000000F3H   SYMBOL    DATA     ---       SFRF3
      000000F4H   SYMBOL    DATA     ---       SFRF4
      000000F5H   SYMBOL    DATA     ---       SFRF5
      000000F6H   SYMBOL    DATA     ---       SFRF6
      000000F7H   SYMBOL    DATA     ---       SFRF7
      000000F8H   SYMBOL    DATA     ---       SFRF8
      000000F9H   SYMBOL    DATA     ---       SFRF9
      000000FAH   SYMBOL    DATA     ---       SFRFA
      000000FBH   SYMBOL    DATA     ---       SFRFB
      000000FCH   SYMBOL    DATA     ---       SFRFC
      000000FDH   SYMBOL    DATA     ---       SFRFD
      000000FEH   SYMBOL    DATA     ---       SFRFE
      000000FFH   SYMBOL    DATA     ---       SFRFF
      00000097H   SYMBOL    DATA     ---       SLEEP
      00000081H   SYMBOL    DATA     ---       SP
      00000088H   SYMBOL    DATA     ---       TCON
      00000088H.5 SYMBOL    BIT      ---       TCON_TF0
      00000088H.4 SYMBOL    BIT      ---       TCON_TR0
      0000008CH   SYMBOL    DATA     ---       TH0
      0000008AH   SYMBOL    DATA     ---       TL0
      00000089H   SYMBOL    DATA     ---       TMOD
      000000DAH   SYMBOL    DATA     ---       UBRC
      000000D9H   SYMBOL    DATA     ---       UBUF
      000000DFH   SYMBOL    DATA     ---       UCR
      000000DEH   SYMBOL    DATA     ---       UCR2
      000000DDH   SYMBOL    DATA     ---       UCR3
      000000DCH   SYMBOL    DATA     ---       UIMSK
      000000D8H   SYMBOL    DATA     ---       USR
      000000D8H.0 SYMBOL    BIT      ---       USR_TBE
LX51 LINKER/LOCATER V3.51                                                             01/27/2014  09:14:18  PAGE 38


      000000DBH   SYMBOL    DATA     ---       VDCON
      000000A5H   SYMBOL    DATA     ---       WDTCON
      000000A6H   SYMBOL    DATA     ---       WDTRST

      0100FADAH   BLOCK     CODE     ---       LVL=0
      0100FADAH   LINE      CODE     ---       #309
      0100FADDH   LINE      CODE     ---       #313
      0100FAE0H   LINE      CODE     ---       #322
      0100FAE3H   LINE      CODE     ---       #327
      ---         BLOCKEND  ---      ---       LVL=0

      0100FA49H   BLOCK     CODE     ---       LVL=0
      0100FA49H   LINE      CODE     ---       #343
      0100FA4BH   LINE      CODE     ---       #346
      0100FA4EH   LINE      CODE     ---       #349
      0100FA51H   LINE      CODE     ---       #352
      0100FA54H   LINE      CODE     ---       #355
      0100FA57H   LINE      CODE     ---       #359
      ---         BLOCKEND  ---      ---       LVL=0

      ---         MODULE    ---      ---       TMR0_ISR
      01000129H   PUBLIC    CODE     ---       TMR0_ISR
      000000E0H   SYMBOL    DATA     ---       ACC
      000000F0H   SYMBOL    DATA     ---       B
      00000083H   SYMBOL    DATA     ---       DPH
      00000083H   SYMBOL    DATA     ---       DPH0
      00000082H   SYMBOL    DATA     ---       DPL
      00000082H   SYMBOL    DATA     ---       DPL0
      00000165H   SYMBOL    CODE     ---       EXIT_TMR0_ISR1
      0000019AH   SYMBOL    CODE     ---       EXIT_TMR0_ISR2
      0000019AH   SYMBOL    CODE     ---       EXIT_TMR0_ISR3
      000000A8H.1 SYMBOL    BIT      ---       IE_TMR0
      00000113H   SYMBOL    CODE     ---       INCREMENT_DX
      00000125H   SYMBOL    CODE     ---       INC_DX_0
      000000D0H   SYMBOL    DATA     ---       PSW
      0000003BH   SYMBOL    CODE     ---       SERVICE0
      0000003FH   SYMBOL    CODE     ---       SERVICE1
      00000063H   SYMBOL    CODE     ---       SERVICE10
      00000067H   SYMBOL    CODE     ---       SERVICE11
      0000006BH   SYMBOL    CODE     ---       SERVICE12
      0000006FH   SYMBOL    CODE     ---       SERVICE13
      00000073H   SYMBOL    CODE     ---       SERVICE14
      00000077H   SYMBOL    CODE     ---       SERVICE15
      0000007BH   SYMBOL    CODE     ---       SERVICE16
      0000007FH   SYMBOL    CODE     ---       SERVICE17
      00000083H   SYMBOL    CODE     ---       SERVICE18
      00000087H   SYMBOL    CODE     ---       SERVICE19
      0000008BH   SYMBOL    CODE     ---       SERVICE20
      0000008FH   SYMBOL    CODE     ---       SERVICE21
      00000093H   SYMBOL    CODE     ---       SERVICE22
      00000097H   SYMBOL    CODE     ---       SERVICE23
      0000009BH   SYMBOL    CODE     ---       SERVICE24
      0000009FH   SYMBOL    CODE     ---       SERVICE25
      000000A3H   SYMBOL    CODE     ---       SERVICE26
      000000A7H   SYMBOL    CODE     ---       SERVICE27
      000000ABH   SYMBOL    CODE     ---       SERVICE28
      000000AFH   SYMBOL    CODE     ---       SERVICE29
      00000047H   SYMBOL    CODE     ---       SERVICE3
      000000B3H   SYMBOL    CODE     ---       SERVICE30
      000000B7H   SYMBOL    CODE     ---       SERVICE31
      000000BBH   SYMBOL    CODE     ---       SERVICE32
      000000BFH   SYMBOL    CODE     ---       SERVICE33
      000000C3H   SYMBOL    CODE     ---       SERVICE34
      000000C7H   SYMBOL    CODE     ---       SERVICE35
      0000004BH   SYMBOL    CODE     ---       SERVICE4
LX51 LINKER/LOCATER V3.51                                                             01/27/2014  09:14:18  PAGE 39


      000000E3H   SYMBOL    CODE     ---       SERVICE42
      000000E7H   SYMBOL    CODE     ---       SERVICE43
      000000F3H   SYMBOL    CODE     ---       SERVICE46
      000000F7H   SYMBOL    CODE     ---       SERVICE47
      000000FBH   SYMBOL    CODE     ---       SERVICE48
      000000FFH   SYMBOL    CODE     ---       SERVICE49
      0000004FH   SYMBOL    CODE     ---       SERVICE5
      00000103H   SYMBOL    CODE     ---       SERVICE50
      00000107H   SYMBOL    CODE     ---       SERVICE51
      0000010BH   SYMBOL    CODE     ---       SERVICE52
      00000053H   SYMBOL    CODE     ---       SERVICE6
      00000057H   SYMBOL    CODE     ---       SERVICE7
      0000005BH   SYMBOL    CODE     ---       SERVICE8
      0000005FH   SYMBOL    CODE     ---       SERVICE9
      00000081H   SYMBOL    DATA     ---       SP
      00000088H.5 SYMBOL    BIT      ---       TCON_TF0
      0000008CH   SYMBOL    DATA     ---       TH0
      0000008AH   SYMBOL    DATA     ---       TL0
      00000001H   SYMBOL    NUMBER   ---       XBPSTACK
      00000800H   SYMBOL    NUMBER   ---       XBPSTACKTOP
      0100003BH   LINE      CODE     ---       #23
      0100003EH   LINE      CODE     ---       #24
      0100003FH   LINE      CODE     ---       #31
      01000042H   LINE      CODE     ---       #32
      01000047H   LINE      CODE     ---       #40
      0100004AH   LINE      CODE     ---       #41
      0100004BH   LINE      CODE     ---       #48
      0100004EH   LINE      CODE     ---       #49
      0100004FH   LINE      CODE     ---       #56
      01000052H   LINE      CODE     ---       #57
      01000053H   LINE      CODE     ---       #64
      01000056H   LINE      CODE     ---       #65
      01000057H   LINE      CODE     ---       #72
      0100005AH   LINE      CODE     ---       #73
      0100005BH   LINE      CODE     ---       #80
      0100005EH   LINE      CODE     ---       #81
      0100005FH   LINE      CODE     ---       #88
      01000062H   LINE      CODE     ---       #89
      01000063H   LINE      CODE     ---       #96
      01000066H   LINE      CODE     ---       #97
      01000067H   LINE      CODE     ---       #104
      0100006AH   LINE      CODE     ---       #105
      0100006BH   LINE      CODE     ---       #113
      0100006EH   LINE      CODE     ---       #114
      0100006FH   LINE      CODE     ---       #122
      01000072H   LINE      CODE     ---       #123
      01000073H   LINE      CODE     ---       #131
      01000076H   LINE      CODE     ---       #132
      01000077H   LINE      CODE     ---       #140
      0100007AH   LINE      CODE     ---       #141
      0100007BH   LINE      CODE     ---       #149
      0100007EH   LINE      CODE     ---       #150
      0100007FH   LINE      CODE     ---       #158
      01000082H   LINE      CODE     ---       #159
      01000083H   LINE      CODE     ---       #167
      01000086H   LINE      CODE     ---       #168
      01000087H   LINE      CODE     ---       #176
      0100008AH   LINE      CODE     ---       #177
      0100008BH   LINE      CODE     ---       #185
      0100008EH   LINE      CODE     ---       #186
      0100008FH   LINE      CODE     ---       #194
      01000092H   LINE      CODE     ---       #195
      01000093H   LINE      CODE     ---       #202
      01000096H   LINE      CODE     ---       #203
      01000097H   LINE      CODE     ---       #210
LX51 LINKER/LOCATER V3.51                                                             01/27/2014  09:14:18  PAGE 40


      0100009AH   LINE      CODE     ---       #211
      0100009BH   LINE      CODE     ---       #218
      0100009EH   LINE      CODE     ---       #219
      0100009FH   LINE      CODE     ---       #226
      010000A2H   LINE      CODE     ---       #227
      010000A3H   LINE      CODE     ---       #235
      010000A6H   LINE      CODE     ---       #236
      010000A7H   LINE      CODE     ---       #243
      010000AAH   LINE      CODE     ---       #244
      010000ABH   LINE      CODE     ---       #251
      010000AEH   LINE      CODE     ---       #252
      010000AFH   LINE      CODE     ---       #259
      010000B2H   LINE      CODE     ---       #260
      010000B3H   LINE      CODE     ---       #267
      010000B6H   LINE      CODE     ---       #268
      010000B7H   LINE      CODE     ---       #275
      010000BAH   LINE      CODE     ---       #276
      010000BBH   LINE      CODE     ---       #283
      010000BEH   LINE      CODE     ---       #284
      010000BFH   LINE      CODE     ---       #291
      010000C2H   LINE      CODE     ---       #292
      010000C3H   LINE      CODE     ---       #299
      010000C6H   LINE      CODE     ---       #300
      010000C7H   LINE      CODE     ---       #307
      010000CAH   LINE      CODE     ---       #308
      010000E3H   LINE      CODE     ---       #316
      010000E6H   LINE      CODE     ---       #317
      010000E7H   LINE      CODE     ---       #324
      010000EAH   LINE      CODE     ---       #325
      010000F3H   LINE      CODE     ---       #332
      010000F6H   LINE      CODE     ---       #333
      010000F7H   LINE      CODE     ---       #340
      010000FAH   LINE      CODE     ---       #341
      010000FBH   LINE      CODE     ---       #349
      010000FEH   LINE      CODE     ---       #350
      010000FFH   LINE      CODE     ---       #357
      01000102H   LINE      CODE     ---       #358
      01000103H   LINE      CODE     ---       #365
      01000106H   LINE      CODE     ---       #366
      01000107H   LINE      CODE     ---       #373
      0100010AH   LINE      CODE     ---       #374
      0100010BH   LINE      CODE     ---       #381
      0100010EH   LINE      CODE     ---       #382
      0100010FH   LINE      CODE     ---       #383
      01000110H   LINE      CODE     ---       #384
      01000111H   LINE      CODE     ---       #385
      01000112H   LINE      CODE     ---       #386
      01000113H   LINE      CODE     ---       #396
      01000115H   LINE      CODE     ---       #397
      01000116H   LINE      CODE     ---       #398
      01000117H   LINE      CODE     ---       #399
      01000118H   LINE      CODE     ---       #400
      01000119H   LINE      CODE     ---       #401
      0100011AH   LINE      CODE     ---       #402
      0100011CH   LINE      CODE     ---       #403
      0100011DH   LINE      CODE     ---       #404
      0100011FH   LINE      CODE     ---       #405
      01000121H   LINE      CODE     ---       #406
      01000123H   LINE      CODE     ---       #407
      01000125H   LINE      CODE     ---       #409
      01000126H   LINE      CODE     ---       #410
      01000127H   LINE      CODE     ---       #411
      01000128H   LINE      CODE     ---       #412
      01000129H   LINE      CODE     ---       #419
      0100012BH   LINE      CODE     ---       #420
LX51 LINKER/LOCATER V3.51                                                             01/27/2014  09:14:18  PAGE 41


      0100012DH   LINE      CODE     ---       #421
      0100012FH   LINE      CODE     ---       #422
      01000131H   LINE      CODE     ---       #423
      01000133H   LINE      CODE     ---       #424
      01000136H   LINE      CODE     ---       #426
      01000138H   LINE      CODE     ---       #427
      0100013AH   LINE      CODE     ---       #428
      0100013CH   LINE      CODE     ---       #433
      0100013EH   LINE      CODE     ---       #436
      01000141H   LINE      CODE     ---       #437
      01000142H   LINE      CODE     ---       #438
      01000145H   LINE      CODE     ---       #439
      01000148H   LINE      CODE     ---       #443
      0100014BH   LINE      CODE     ---       #444
      0100014CH   LINE      CODE     ---       #445
      0100014DH   LINE      CODE     ---       #446
      0100014EH   LINE      CODE     ---       #447
      0100014FH   LINE      CODE     ---       #448
      01000150H   LINE      CODE     ---       #449
      01000151H   LINE      CODE     ---       #450
      01000152H   LINE      CODE     ---       #453
      01000154H   LINE      CODE     ---       #454
      01000155H   LINE      CODE     ---       #457
      01000157H   LINE      CODE     ---       #458
      01000159H   LINE      CODE     ---       #461
      0100015CH   LINE      CODE     ---       #464
      0100015FH   LINE      CODE     ---       #467
      01000161H   LINE      CODE     ---       #470
      01000163H   LINE      CODE     ---       #473
      01000165H   LINE      CODE     ---       #477
      01000168H   LINE      CODE     ---       #478
      0100016AH   LINE      CODE     ---       #479
      0100016BH   LINE      CODE     ---       #483
      0100016EH   LINE      CODE     ---       #486
      01000171H   LINE      CODE     ---       #489
      01000173H   LINE      CODE     ---       #492
      01000175H   LINE      CODE     ---       #495
      01000177H   LINE      CODE     ---       #496
      01000179H   LINE      CODE     ---       #497
      0100017BH   LINE      CODE     ---       #498
      0100017DH   LINE      CODE     ---       #499
      0100017FH   LINE      CODE     ---       #500
      01000181H   LINE      CODE     ---       #501
      01000183H   LINE      CODE     ---       #502
      01000185H   LINE      CODE     ---       #503
      01000187H   LINE      CODE     ---       #504
      01000189H   LINE      CODE     ---       #509
      0100018CH   LINE      CODE     ---       #510
      0100018FH   LINE      CODE     ---       #511
      01000192H   LINE      CODE     ---       #512
      01000195H   LINE      CODE     ---       #513
      01000197H   LINE      CODE     ---       #514
      01000199H   LINE      CODE     ---       #515
      0100019AH   LINE      CODE     ---       #541
      0100019CH   LINE      CODE     ---       #542
      0100019EH   LINE      CODE     ---       #543
      010001A0H   LINE      CODE     ---       #544
      010001A2H   LINE      CODE     ---       #545
      010001A4H   LINE      CODE     ---       #546
      010001A6H   LINE      CODE     ---       #547
      010001A8H   LINE      CODE     ---       #548
      010001AAH   LINE      CODE     ---       #549
      01008000H   LINE      CODE     ---       #554

      ---         MODULE    ---      ---       ISO7816_MAIN
LX51 LINKER/LOCATER V3.51                                                             01/27/2014  09:14:18  PAGE 42


      0200030CH   PUBLIC    XDATA    BYTE      PPSFlag
      0200030AH   PUBLIC    XDATA    WORD      Foffset
      0200010AH   PUBLIC    XDATA    ---       FlashBuffer
      02000109H   PUBLIC    XDATA    BYTE      _iso7816_ins
      02000108H   PUBLIC    XDATA    BYTE      _iso7816_cla
      02000107H   PUBLIC    XDATA    BYTE      _iso7816_state
      02000000H   PUBLIC    XDATA    ---       iso7816_buffer
      0100FF90H   PUBLIC    CONST    ---       ATR
      0100F96AH   PUBLIC    CODE     ---       _PPS_Handler
      0100FA82H   PUBLIC    CODE     ---       Send_ATR
      0100C7A7H   PUBLIC    CODE     ---       ISO7816_main
      0100FA75H   PUBLIC    CODE     ---       ISO7816_init
      000000A8H   SFRSYM    DATA     BYTE      IE
      000000A8H.2 SFRSYM    DATA     BIT       IE_UART
      00000088H   SFRSYM    DATA     BYTE      TCON
      000000C0H   SFRSYM    DATA     BYTE      DESCTL
      000000E3H   SFRSYM    DATA     BYTE      FDCON
      000000E8H   SFRSYM    DATA     BYTE      FL_STS
      000000A8H.7 SFRSYM    DATA     BIT       IE_EA
      000000D8H   SFRSYM    DATA     BYTE      USR
      000000DBH   SFRSYM    DATA     BYTE      VDCON

      0100FA8FH   BLOCK     CODE     ---       LVL=0
      ---         BLOCKEND  ---      ---       LVL=0

      0100FA75H   BLOCK     CODE     ---       LVL=0
      0100FA75H   LINE      CODE     ---       #45
      0100FA75H   LINE      CODE     ---       #46
      0100FA77H   LINE      CODE     ---       #47
      0100FA79H   LINE      CODE     ---       #51
      0100FA7CH   LINE      CODE     ---       #52
      0100FA81H   LINE      CODE     ---       #53
      ---         BLOCKEND  ---      ---       LVL=0

      0100C7A7H   BLOCK     CODE     ---       LVL=0
      0200061DH   SYMBOL    XDATA    WORD      sw
      0100C7A7H   LINE      CODE     ---       #70
      0100C7A7H   LINE      CODE     ---       #71
      0100C7A7H   LINE      CODE     ---       #75
      0100C7A7H   LINE      CODE     ---       #76
      0100C7BEH   LINE      CODE     ---       #77
      0100C7BEH   LINE      CODE     ---       #78
      0100C7C1H   LINE      CODE     ---       #79
      0100C7C3H   LINE      CODE     ---       #80
      0100C7C8H   LINE      CODE     ---       #82
      0100C7D5H   LINE      CODE     ---       #83
      0100C7D8H   LINE      CODE     ---       #84
      0100C7DBH   LINE      CODE     ---       #85
      0100C7DEH   LINE      CODE     ---       #86
      0100C7DEH   LINE      CODE     ---       #87
      0100C7DEH   LINE      CODE     ---       #88
      0100C7E1H   LINE      CODE     ---       #89
      0100C7E1H   LINE      CODE     ---       #91
      0100C7E1H   LINE      CODE     ---       #92
      0100C7E1H   LINE      CODE     ---       #113
      0100C7E1H   LINE      CODE     ---       #114
      0100C7E1H   LINE      CODE     ---       #126
      0100C7E1H   LINE      CODE     ---       #127
      0100C7E1H   LINE      CODE     ---       #128
      0100C7E9H   LINE      CODE     ---       #129
      0100C7EFH   LINE      CODE     ---       #130
      0100C7F1H   LINE      CODE     ---       #131
      0100C7F1H   LINE      CODE     ---       #133
      0100C7F1H   LINE      CODE     ---       #134
      0100C7F1H   LINE      CODE     ---       #135
LX51 LINKER/LOCATER V3.51                                                             01/27/2014  09:14:18  PAGE 43


      0100C7F1H   LINE      CODE     ---       #136
      0100C7F1H   LINE      CODE     ---       #137
      0100C7F8H   LINE      CODE     ---       #138
      0100C7F8H   LINE      CODE     ---       #139
      0100C7FFH   LINE      CODE     ---       #140
      0100C801H   LINE      CODE     ---       #141
      0100C801H   LINE      CODE     ---       #142
      0100C80AH   LINE      CODE     ---       #143
      0100C80DH   LINE      CODE     ---       #158
      0100C815H   LINE      CODE     ---       #159
      0100C81DH   LINE      CODE     ---       #160
      0100C82EH   LINE      CODE     ---       #163
      0100C835H   LINE      CODE     ---       #164
      0100C840H   LINE      CODE     ---       #165
      0100C847H   LINE      CODE     ---       #166
      0100C84AH   LINE      CODE     ---       #167
      0100C84AH   LINE      CODE     ---       #168
      0100C84AH   LINE      CODE     ---       #169
      0100C84AH   LINE      CODE     ---       #170
      0100C84DH   LINE      CODE     ---       #171
      0100C86AH   LINE      CODE     ---       #174
      0100C86AH   LINE      CODE     ---       #175
      0100C86AH   LINE      CODE     ---       #176
      0100C870H   LINE      CODE     ---       #177
      0100C873H   LINE      CODE     ---       #178
      0100C876H   LINE      CODE     ---       #179
      0100C876H   LINE      CODE     ---       #180
      0100C876H   LINE      CODE     ---       #181
      0100C879H   LINE      CODE     ---       #182
      0100C88CH   LINE      CODE     ---       #183
      0100C892H   LINE      CODE     ---       #184
      0100C895H   LINE      CODE     ---       #185
      0100C898H   LINE      CODE     ---       #186
      0100C898H   LINE      CODE     ---       #187
      0100C898H   LINE      CODE     ---       #208
      ---         BLOCKEND  ---      ---       LVL=0

      0100FA82H   BLOCK     CODE     ---       LVL=0
      0200061FH   SYMBOL    XDATA    WORD      i
      0100FA82H   LINE      CODE     ---       #212
      0100FA82H   LINE      CODE     ---       #213
      0100FA82H   LINE      CODE     ---       #219
      ---         BLOCKEND  ---      ---       LVL=0

      0100F96AH   BLOCK     CODE     ---       LVL=0
      00000006H   SYMBOL    DATA     ---       buffer
      0100F96AH   LINE      CODE     ---       #263
      0100F96AH   LINE      CODE     ---       #264
      0100F974H   LINE      CODE     ---       #265
      0100F974H   LINE      CODE     ---       #266
      0100F977H   LINE      CODE     ---       #267
      0100F97CH   LINE      CODE     ---       #268
      0100F97CH   LINE      CODE     ---       #269
      0100F980H   LINE      CODE     ---       #270
      0100F980H   LINE      CODE     ---       #271
      ---         BLOCKEND  ---      ---       LVL=0

      ---         MODULE    ---      ---       ISO7816_API
      0100FEF6H   PUBLIC    CONST    ---       VectorTable
      0100FA16H   PUBLIC    CODE     ---       EndTimeoutSequence
      0100F981H   PUBLIC    CODE     ---       StartTimeoutSequence
      0100F14DH   PUBLIC    CODE     ---       ReturnToBL
      0100EC4BH   PUBLIC    CODE     ---       _?Random_Number_Generator
      0100BCC8H   PUBLIC    CODE     ---       _?MAC_Algorithm3
      0200064FH   PUBLIC    XDATA    BYTE      ?_DES_Operation?BYTE
LX51 LINKER/LOCATER V3.51                                                             01/27/2014  09:14:18  PAGE 44


      0100DBA0H   PUBLIC    CODE     ---       _DES_Operation
      0100F336H   PUBLIC    CODE     ---       _?TDES_Encrypt
      0100F2FCH   PUBLIC    CODE     ---       _?TDES_Decrypt
      0100F4C1H   PUBLIC    CODE     ---       _?DES_Encrypt
      0100F453H   PUBLIC    CODE     ---       _?DES_Decrypt
      0100AB9FH   PUBLIC    CODE     ---       _UpdateFlash
      0100EE67H   PUBLIC    CODE     ---       _ReadFlash
      0100EDD9H   PUBLIC    CODE     ---       _?Erase_Pages
      0100E442H   PUBLIC    CODE     ---       _?CalCRC
      0100F8FEH   PUBLIC    CODE     ---       _?SetBase
      0100F10EH   PUBLIC    CODE     ---       _?ISO_AutoTxNULL
      0100F836H   PUBLIC    CODE     ---       ISO_DelayETU
      0100F9AFH   PUBLIC    CODE     ---       Sleep_Mode
      0100F8C0H   PUBLIC    CODE     ---       _?Tx_Status
      0100F20AH   PUBLIC    CODE     ---       _?Tx_n_Bytes
      0100F937H   PUBLIC    CODE     ---       _?send_byte
      0100ED90H   PUBLIC    CODE     ---       _?Rx_n_Bytes
      0100FACFH   PUBLIC    CODE     ---       receive_byte
      0100DF04H   PUBLIC    CODE     ---       _?Set_PPS
      0100F0CDH   PUBLIC    CODE     ---       PPS
      0100FA9CH   PUBLIC    CODE     ---       PPS_ACK
      0100F52BH   PUBLIC    CODE     ---       _?IoInit
      000000A8H   SFRSYM    DATA     BYTE      IE
      000000A8H.1 SFRSYM    DATA     BIT       IE_TMR0
      000000C0H.3 SFRSYM    DATA     BIT       DES_END
      000000DEH   SFRSYM    DATA     BYTE      UCR2
      000000C0H.5 SFRSYM    DATA     BIT       DES_DATEN
      000000DAH   SFRSYM    DATA     BYTE      UBRC
      000000C2H   SFRSYM    DATA     BYTE      CRCDAT
      000000D9H   SFRSYM    DATA     BYTE      UBUF
      00000089H   SFRSYM    DATA     BYTE      TMOD
      00000088H   SFRSYM    DATA     BYTE      TCON
      000000C3H   SFRSYM    DATA     BYTE      MMU_SEL
      000000D8H   SFRSYM    DATA     BIT       USR_TBE
      00000086H   SFRSYM    DATA     BYTE      CLKCON
      000000C0H   SFRSYM    DATA     BYTE      DESCTL
      000000E2H   SFRSYM    DATA     BYTE      RNGDAT
      000000E1H   SFRSYM    DATA     BYTE      RNGCTL
      0000008CH   SFRSYM    DATA     BYTE      TH0
      000000C0H   SFRSYM    DATA     BIT       DES_START
      0000008AH   SFRSYM    DATA     BYTE      TL0
      000000F8H   SFRSYM    DATA     BYTE      DESD0
      000000F9H   SFRSYM    DATA     BYTE      DESD1
      000000FAH   SFRSYM    DATA     BYTE      DESD2
      000000FBH   SFRSYM    DATA     BYTE      DESD3
      000000FCH   SFRSYM    DATA     BYTE      DESD4
      000000FDH   SFRSYM    DATA     BYTE      DESD5
      000000FEH   SFRSYM    DATA     BYTE      DESD6
      000000FFH   SFRSYM    DATA     BYTE      DESD7
      00000088H.5 SFRSYM    DATA     BIT       TCON_TF0
      000000C0H.1 SFRSYM    DATA     BIT       DES_MODE
      000000DFH   SFRSYM    DATA     BYTE      UCR
      000000E3H   SFRSYM    DATA     BYTE      FDCON
      000000C0H.6 SFRSYM    DATA     BIT       DES_KEY1EN
      00000088H.4 SFRSYM    DATA     BIT       TCON_TR0
      000000C0H.7 SFRSYM    DATA     BIT       DES_KEY2EN
      000000E8H   SFRSYM    DATA     BYTE      FL_STS
      000000C0H.2 SFRSYM    DATA     BIT       DES_TDES
      000000B0H   SFRSYM    DATA     BYTE      rP3
      000000D8H   SFRSYM    DATA     BYTE      USR
      00000097H   SFRSYM    DATA     BYTE      SLEEP
      000000DBH   SFRSYM    DATA     BYTE      VDCON

      0100B6A5H   BLOCK     CODE     ---       LVL=0
      ---         BLOCKEND  ---      ---       LVL=0
LX51 LINKER/LOCATER V3.51                                                             01/27/2014  09:14:18  PAGE 45



      0100F52BH   BLOCK     CODE     ---       LVL=0
      00000000H   SYMBOL    XSTK     BYTE      FIDI
      0100F52BH   LINE      CODE     ---       #17
      0100F52EH   LINE      CODE     ---       #19
      0100F555H   LINE      CODE     ---       #20
      0100F555H   LINE      CODE     ---       #21
      0100F555H   LINE      CODE     ---       #22
      0100F555H   LINE      CODE     ---       #23
      0100F555H   LINE      CODE     ---       #24
      0100F555H   LINE      CODE     ---       #25
      0100F555H   LINE      CODE     ---       #26
      0100F555H   LINE      CODE     ---       #27
      0100F555H   LINE      CODE     ---       #28
      0100F557H   LINE      CODE     ---       #29
      ---         BLOCKEND  ---      ---       LVL=0

      0100FA9CH   BLOCK     CODE     ---       LVL=0
      0100FA9CH   LINE      CODE     ---       #35
      0100FA9CH   LINE      CODE     ---       #36
      0100FA9CH   LINE      CODE     ---       #37
      ---         BLOCKEND  ---      ---       LVL=0

      0100F0CDH   BLOCK     CODE     ---       LVL=0
      00000006H   SYMBOL    DATA     WORD      P12
      0100F0CDH   LINE      CODE     ---       #42
      0100F0CDH   LINE      CODE     ---       #43
      0100F0CDH   LINE      CODE     ---       #46
      0100F0D6H   LINE      CODE     ---       #47
      0100F0F0H   LINE      CODE     ---       #48
      0100F0F0H   LINE      CODE     ---       #49
      0100F0F7H   LINE      CODE     ---       #50
      0100F0FEH   LINE      CODE     ---       #51
      0100F105H   LINE      CODE     ---       #52
      0100F10DH   LINE      CODE     ---       #53
      0100F10DH   LINE      CODE     ---       #54
      0100F10DH   LINE      CODE     ---       #55
      ---         BLOCKEND  ---      ---       LVL=0

      0100DF04H   BLOCK     CODE     ---       LVL=0
      00000002H   SYMBOL    XSTK     ---       buffer
      00000000H   SYMBOL    XSTK     WORD      P12
      0100DF04H   LINE      CODE     ---       #59
      0100DF04H   LINE      CODE     ---       #62
      0100DF27H   LINE      CODE     ---       #67
      0100DF4AH   LINE      CODE     ---       #68
      0100DF51H   LINE      CODE     ---       #69
      0100DF58H   LINE      CODE     ---       #70
      0100DF5FH   LINE      CODE     ---       #71
      0100DF66H   LINE      CODE     ---       #72
      0100DF6DH   LINE      CODE     ---       #73
      0100DF74H   LINE      CODE     ---       #74
      0100DF7BH   LINE      CODE     ---       #75
      0100DF82H   LINE      CODE     ---       #76
      0100DF8AH   LINE      CODE     ---       #77
      0100DF8AH   LINE      CODE     ---       #79
      ---         BLOCKEND  ---      ---       LVL=0

      0100FACFH   BLOCK     CODE     ---       LVL=0
      0100FACFH   LINE      CODE     ---       #83
      0100FACFH   LINE      CODE     ---       #84
      0100FACFH   LINE      CODE     ---       #85
      0100FAD2H   LINE      CODE     ---       #86
      0100FAD7H   LINE      CODE     ---       #87
      0100FAD7H   LINE      CODE     ---       #88
LX51 LINKER/LOCATER V3.51                                                             01/27/2014  09:14:18  PAGE 46


      0100FAD9H   LINE      CODE     ---       #89
      ---         BLOCKEND  ---      ---       LVL=0

      0100ED90H   BLOCK     CODE     ---       LVL=0
      00000002H   SYMBOL    XSTK     INT       n
      00000000H   SYMBOL    XSTK     INT       i
      0100ED90H   LINE      CODE     ---       #93
      0100ED90H   LINE      CODE     ---       #95
      0100ED97H   LINE      CODE     ---       #97
      0100EDB6H   LINE      CODE     ---       #98
      0100EDD3H   LINE      CODE     ---       #99
      ---         BLOCKEND  ---      ---       LVL=0

      0100F937H   BLOCK     CODE     ---       LVL=0
      00000000H   SYMBOL    XSTK     CHAR      c
      0100F937H   LINE      CODE     ---       #103
      0100F93AH   LINE      CODE     ---       #105
      0100F93DH   LINE      CODE     ---       #106
      0100F940H   LINE      CODE     ---       #107
      0100F946H   LINE      CODE     ---       #108
      0100F949H   LINE      CODE     ---       #109
      0100F949H   LINE      CODE     ---       #110
      0100F94CH   LINE      CODE     ---       #111
      ---         BLOCKEND  ---      ---       LVL=0

      0100F20AH   BLOCK     CODE     ---       LVL=0
      00000002H   SYMBOL    XSTK     WORD      n
      00000004H   SYMBOL    XSTK     ---       databuf
      00000000H   SYMBOL    XSTK     WORD      i
      0100F20AH   LINE      CODE     ---       #115
      0100F20DH   LINE      CODE     ---       #119
      0100F228H   LINE      CODE     ---       #120
      0100F241H   LINE      CODE     ---       #121
      ---         BLOCKEND  ---      ---       LVL=0

      0100F8C0H   BLOCK     CODE     ---       LVL=0
      00000000H   SYMBOL    XSTK     WORD      sw
      0100F8C0H   LINE      CODE     ---       #125
      0100F8C8H   LINE      CODE     ---       #130
      0100F8D0H   LINE      CODE     ---       #131
      0100F8D9H   LINE      CODE     ---       #132
      ---         BLOCKEND  ---      ---       LVL=0

      0100F9AFH   BLOCK     CODE     ---       LVL=0
      00000007H   SYMBOL    DATA     BYTE      backupVDCON
      00000006H   SYMBOL    DATA     BYTE      backupFDCON
      0100F9AFH   LINE      CODE     ---       #136
      0100F9AFH   LINE      CODE     ---       #137
      0100F9AFH   LINE      CODE     ---       #138
      0100F9B1H   LINE      CODE     ---       #139
      0100F9B3H   LINE      CODE     ---       #141
      0100F9B6H   LINE      CODE     ---       #142
      0100F9B8H   LINE      CODE     ---       #144
      0100F9BBH   LINE      CODE     ---       #146
      0100F9BCH   LINE      CODE     ---       #147
      0100F9BDH   LINE      CODE     ---       #148
      0100F9BEH   LINE      CODE     ---       #151
      0100F9C0H   LINE      CODE     ---       #152
      0100F9C4H   LINE      CODE     ---       #153
      ---         BLOCKEND  ---      ---       LVL=0

      0100F836H   BLOCK     CODE     ---       LVL=0
      0100F836H   LINE      CODE     ---       #155
      0100F836H   LINE      CODE     ---       #156
      0100F840H   LINE      CODE     ---       #157
LX51 LINKER/LOCATER V3.51                                                             01/27/2014  09:14:18  PAGE 47


      0100F845H   LINE      CODE     ---       #158
      0100F845H   LINE      CODE     ---       #159
      0100F84BH   LINE      CODE     ---       #160
      0100F84FH   LINE      CODE     ---       #161
      0100F853H   LINE      CODE     ---       #162
      0100F85AH   LINE      CODE     ---       #163
      ---         BLOCKEND  ---      ---       LVL=0

      0100F10EH   BLOCK     CODE     ---       LVL=0
      00000000H   SYMBOL    XSTK     BYTE      mode
      00000001H   SYMBOL    XSTK     WORD      ETUcount
      0100F10EH   LINE      CODE     ---       #167
      0100F119H   LINE      CODE     ---       #169
      0100F121H   LINE      CODE     ---       #170
      0100F121H   LINE      CODE     ---       #171
      0100F12CH   LINE      CODE     ---       #172
      0100F134H   LINE      CODE     ---       #173
      0100F134H   LINE      CODE     ---       #174
      0100F13AH   LINE      CODE     ---       #175
      0100F13EH   LINE      CODE     ---       #176
      0100F140H   LINE      CODE     ---       #178
      0100F140H   LINE      CODE     ---       #179
      0100F147H   LINE      CODE     ---       #180
      0100F147H   LINE      CODE     ---       #181
      ---         BLOCKEND  ---      ---       LVL=0

      0100F8FEH   BLOCK     CODE     ---       LVL=0
      00000000H   SYMBOL    XSTK     BYTE      BankNum
      0100F8FEH   LINE      CODE     ---       #185
      0100F901H   LINE      CODE     ---       #187
      0100F90BH   LINE      CODE     ---       #188
      0100F90BH   LINE      CODE     ---       #189
      0100F90EH   LINE      CODE     ---       #190
      0100F910H   LINE      CODE     ---       #191
      0100F912H   LINE      CODE     ---       #193
      0100F912H   LINE      CODE     ---       #194
      0100F915H   LINE      CODE     ---       #196
      0100F915H   LINE      CODE     ---       #197
      ---         BLOCKEND  ---      ---       LVL=0

      0100E442H   BLOCK     CODE     ---       LVL=0
      00000002H   SYMBOL    XSTK     ---       SrcAddr
      00000005H   SYMBOL    XSTK     WORD      length
      00000000H   SYMBOL    XSTK     WORD      crcval
      0100E442H   LINE      CODE     ---       #201
      0100E44EH   LINE      CODE     ---       #204
      0100E45BH   LINE      CODE     ---       #205
      0100E45BH   LINE      CODE     ---       #206
      0100E46AH   LINE      CODE     ---       #207
      0100E471H   LINE      CODE     ---       #208
      0100E47EH   LINE      CODE     ---       #209
      0100E480H   LINE      CODE     ---       #210
      0100E48AH   LINE      CODE     ---       #211
      0100E49BH   LINE      CODE     ---       #212
      0100E4B3H   LINE      CODE     ---       #215
      0100E4BBH   LINE      CODE     ---       #216
      ---         BLOCKEND  ---      ---       LVL=0

      0100EDD9H   BLOCK     CODE     ---       LVL=0
      00000002H   SYMBOL    XSTK     WORD      FlashAddr
      00000004H   SYMBOL    XSTK     WORD      PageNum
      00000000H   SYMBOL    XSTK     WORD      i
      0100EDD9H   LINE      CODE     ---       #220
      0100EDE1H   LINE      CODE     ---       #224
      0100EDFCH   LINE      CODE     ---       #225
LX51 LINKER/LOCATER V3.51                                                             01/27/2014  09:14:18  PAGE 48


      0100EDFCH   LINE      CODE     ---       #226
      0100EE05H   LINE      CODE     ---       #228
      0100EE12H   LINE      CODE     ---       #233
      0100EE1AH   LINE      CODE     ---       #234
      ---         BLOCKEND  ---      ---       LVL=0

      0100EE67H   BLOCK     CODE     ---       LVL=0
      02000639H   SYMBOL    XDATA    ---       ramAddr
      0200063BH   SYMBOL    XDATA    WORD      FlashAddr
      0200063DH   SYMBOL    XDATA    WORD      length
      0100EE67H   LINE      CODE     ---       #238
      0100EE72H   LINE      CODE     ---       #239
      0100EE72H   LINE      CODE     ---       #240
      0100EE75H   LINE      CODE     ---       #241
      0100EE7DH   LINE      CODE     ---       #243
      0100EEACH   LINE      CODE     ---       #245
      ---         BLOCKEND  ---      ---       LVL=0

      0100AB9FH   BLOCK     CODE     ---       LVL=0
      02000639H   SYMBOL    XDATA    WORD      foffset
      0200063BH   SYMBOL    XDATA    ---       RAMbuf
      0200063DH   SYMBOL    XDATA    BYTE      length
      0200063EH   SYMBOL    XDATA    WORD      FlashAddr
      02000640H   SYMBOL    XDATA    WORD      FlashAddrEnd
      02000642H   SYMBOL    XDATA    WORD      dataleft
      02000644H   SYMBOL    XDATA    WORD      toUpdate
      02000646H   SYMBOL    XDATA    BYTE      updtcntr
      0100AB9FH   LINE      CODE     ---       #249
      0100ABA8H   LINE      CODE     ---       #250
      0100ABA8H   LINE      CODE     ---       #252
      0100ABB3H   LINE      CODE     ---       #253
      0100ABB5H   LINE      CODE     ---       #254
      0100ABC5H   LINE      CODE     ---       #255
      0100ABDBH   LINE      CODE     ---       #259
      0100ABE9H   LINE      CODE     ---       #260
      0100ABE9H   LINE      CODE     ---       #262
      0100AC05H   LINE      CODE     ---       #263
      0100AC08H   LINE      CODE     ---       #264
      0100AC08H   LINE      CODE     ---       #268
      0100AC18H   LINE      CODE     ---       #269
      0100AC18H   LINE      CODE     ---       #272
      0100AC22H   LINE      CODE     ---       #273
      0100AC2CH   LINE      CODE     ---       #275
      0100AC47H   LINE      CODE     ---       #276
      0100AC47H   LINE      CODE     ---       #277
      0100AC69H   LINE      CODE     ---       #280
      0100AC7BH   LINE      CODE     ---       #283
      0100ACA0H   LINE      CODE     ---       #284
      0100ACACH   LINE      CODE     ---       #285
      0100ACB1H   LINE      CODE     ---       #286
      0100ACB1H   LINE      CODE     ---       #287
      0100ACBDH   LINE      CODE     ---       #288
      0100ACBDH   LINE      CODE     ---       #290
      0100ACBDH   LINE      CODE     ---       #291
      0100ACC5H   LINE      CODE     ---       #293
      0100ACC5H   LINE      CODE     ---       #294
      0100ACC5H   LINE      CODE     ---       #297
      0100ACC5H   LINE      CODE     ---       #298
      0100ACD9H   LINE      CODE     ---       #299
      0100ACD9H   LINE      CODE     ---       #301
      0100ACD9H   LINE      CODE     ---       #302
      0100ACE1H   LINE      CODE     ---       #304
      0100ACE1H   LINE      CODE     ---       #305
      0100ACE1H   LINE      CODE     ---       #308
      0100ACE1H   LINE      CODE     ---       #312
LX51 LINKER/LOCATER V3.51                                                             01/27/2014  09:14:18  PAGE 49


      0100ACE1H   LINE      CODE     ---       #314
      0100ACF4H   LINE      CODE     ---       #315
      0100ACFFH   LINE      CODE     ---       #316
      0100AD12H   LINE      CODE     ---       #317
      0100AD12H   LINE      CODE     ---       #319
      0100AD12H   LINE      CODE     ---       #320
      0100AD15H   LINE      CODE     ---       #321
      0100AD15H   LINE      CODE     ---       #322
      0100AD17H   LINE      CODE     ---       #323
      ---         BLOCKEND  ---      ---       LVL=0

      0100F453H   BLOCK     CODE     ---       LVL=0
      00000000H   SYMBOL    XSTK     ---       key
      00000003H   SYMBOL    XSTK     ---       inbuf
      00000006H   SYMBOL    XSTK     ---       outbuf
      0100F453H   LINE      CODE     ---       #326
      0100F456H   LINE      CODE     ---       #395
      0100F484H   LINE      CODE     ---       #396
      ---         BLOCKEND  ---      ---       LVL=0

      0100F4C1H   BLOCK     CODE     ---       LVL=0
      00000000H   SYMBOL    XSTK     ---       key
      00000003H   SYMBOL    XSTK     ---       inbuf
      00000006H   SYMBOL    XSTK     ---       outbuf
      0100F4C1H   LINE      CODE     ---       #398
      0100F4C4H   LINE      CODE     ---       #466
      0100F4F1H   LINE      CODE     ---       #467
      ---         BLOCKEND  ---      ---       LVL=0

      0100F2FCH   BLOCK     CODE     ---       LVL=0
      00000000H   SYMBOL    XSTK     ---       key1
      00000003H   SYMBOL    XSTK     ---       key2
      00000006H   SYMBOL    XSTK     ---       inbuf
      00000009H   SYMBOL    XSTK     ---       outbuf
      0100F2FCH   LINE      CODE     ---       #469
      0100F2FFH   LINE      CODE     ---       #470
      0100F330H   LINE      CODE     ---       #471
      ---         BLOCKEND  ---      ---       LVL=0

      0100F336H   BLOCK     CODE     ---       LVL=0
      00000000H   SYMBOL    XSTK     ---       key1
      00000003H   SYMBOL    XSTK     ---       key2
      00000006H   SYMBOL    XSTK     ---       inbuf
      00000009H   SYMBOL    XSTK     ---       outbuf
      0100F336H   LINE      CODE     ---       #473
      0100F339H   LINE      CODE     ---       #474
      0100F36AH   LINE      CODE     ---       #475
      ---         BLOCKEND  ---      ---       LVL=0

      0100DBA0H   BLOCK     CODE     ---       LVL=0
      00000007H   SYMBOL    DATA     BYTE      mode
      00000005H   SYMBOL    DATA     BYTE      oper
      00000001H   SYMBOL    DATA     ---       inbuf
      02000654H   SYMBOL    XDATA    ---       key1
      02000657H   SYMBOL    XDATA    ---       key2
      0200065AH   SYMBOL    XDATA    ---       outbuf
      0100DBA0H   LINE      CODE     ---       #484
      0100DBA0H   LINE      CODE     ---       #485
      0100DBA0H   LINE      CODE     ---       #486
      0100DBA3H   LINE      CODE     ---       #487
      0100DBA5H   LINE      CODE     ---       #488
      0100DBA5H   LINE      CODE     ---       #489
      0100DBA5H   LINE      CODE     ---       #490
      0100DBA5H   LINE      CODE     ---       #491
      0100DBA5H   LINE      CODE     ---       #492
LX51 LINKER/LOCATER V3.51                                                             01/27/2014  09:14:18  PAGE 50


      0100DBA5H   LINE      CODE     ---       #493
      0100DBA5H   LINE      CODE     ---       #494
      0100DBA5H   LINE      CODE     ---       #495
      0100DBA8H   LINE      CODE     ---       #496
      0100DBAAH   LINE      CODE     ---       #498
      0100DBAFH   LINE      CODE     ---       #499
      0100DBAFH   LINE      CODE     ---       #500
      0100DBB1H   LINE      CODE     ---       #501
      0100DBB1H   LINE      CODE     ---       #502
      0100DBB1H   LINE      CODE     ---       #503
      0100DBB1H   LINE      CODE     ---       #504
      0100DBB1H   LINE      CODE     ---       #505
      0100DBB1H   LINE      CODE     ---       #506
      0100DBB1H   LINE      CODE     ---       #507
      0100DBB1H   LINE      CODE     ---       #508
      0100DBB4H   LINE      CODE     ---       #509
      0100DBB6H   LINE      CODE     ---       #511
      0100DBB8H   LINE      CODE     ---       #512
      0100DBBBH   LINE      CODE     ---       #513
      0100DBBBH   LINE      CODE     ---       #514
      0100DBBBH   LINE      CODE     ---       #515
      0100DBBBH   LINE      CODE     ---       #516
      0100DBBBH   LINE      CODE     ---       #517
      0100DBBBH   LINE      CODE     ---       #518
      0100DBBBH   LINE      CODE     ---       #519
      0100DBBEH   LINE      CODE     ---       #520
      0100DBC0H   LINE      CODE     ---       #522
      0100DBC3H   LINE      CODE     ---       #523
      0100DBC5H   LINE      CODE     ---       #524
      0100DBC9H   LINE      CODE     ---       #525
      0100DBCBH   LINE      CODE     ---       #526
      0100DBCDH   LINE      CODE     ---       #527
      0100DBCFH   LINE      CODE     ---       #529
      0100DBCFH   LINE      CODE     ---       #530
      0100DBD2H   LINE      CODE     ---       #531
      0100DBD2H   LINE      CODE     ---       #532
      0100DBD2H   LINE      CODE     ---       #533
      0100DBD2H   LINE      CODE     ---       #534
      0100DBD2H   LINE      CODE     ---       #535
      0100DBD2H   LINE      CODE     ---       #536
      0100DBD2H   LINE      CODE     ---       #537
      0100DBD2H   LINE      CODE     ---       #538
      0100DBD5H   LINE      CODE     ---       #539
      0100DBD8H   LINE      CODE     ---       #541
      0100DBDBH   LINE      CODE     ---       #542
      0100DBDDH   LINE      CODE     ---       #543
      0100DBE1H   LINE      CODE     ---       #544
      0100DBE3H   LINE      CODE     ---       #545
      0100DBE5H   LINE      CODE     ---       #546
      0100DBE5H   LINE      CODE     ---       #547
      0100DBE7H   LINE      CODE     ---       #548
      0100DBEAH   LINE      CODE     ---       #549
      0100DBEAH   LINE      CODE     ---       #553
      0100DBF8H   LINE      CODE     ---       #554
      0100DC00H   LINE      CODE     ---       #555
      0100DC08H   LINE      CODE     ---       #556
      0100DC10H   LINE      CODE     ---       #557
      0100DC18H   LINE      CODE     ---       #558
      0100DC20H   LINE      CODE     ---       #559
      0100DC28H   LINE      CODE     ---       #560
      0100DC2DH   LINE      CODE     ---       #561
      0100DC2FH   LINE      CODE     ---       #562
      0100DC32H   LINE      CODE     ---       #563
      ---         BLOCKEND  ---      ---       LVL=0

LX51 LINKER/LOCATER V3.51                                                             01/27/2014  09:14:18  PAGE 51


      0100BCC8H   BLOCK     CODE     ---       LVL=0
      0000000AH   SYMBOL    XSTK     BYTE      len
      0000000BH   SYMBOL    XSTK     ---       key
      0000000EH   SYMBOL    XSTK     ---       message
      00000011H   SYMBOL    XSTK     ---       output
      00000000H   SYMBOL    XSTK     BYTE      i
      00000001H   SYMBOL    XSTK     BYTE      j
      00000002H   SYMBOL    XSTK     ---       xx
      0100BCC8H   LINE      CODE     ---       #565
      0100BCD4H   LINE      CODE     ---       #571
      0100BCE5H   LINE      CODE     ---       #574
      0100BCFDH   LINE      CODE     ---       #576
      0100BD0AH   LINE      CODE     ---       #577
      0100BD42H   LINE      CODE     ---       #578
      0100BD4BH   LINE      CODE     ---       #581
      0100BD68H   LINE      CODE     ---       #584
      0100BD71H   LINE      CODE     ---       #585
      0100BD7BH   LINE      CODE     ---       #587
      0100BDB5H   LINE      CODE     ---       #589
      0100BDBEH   LINE      CODE     ---       #591
      0100BDDEH   LINE      CODE     ---       #593
      0100BDE7H   LINE      CODE     ---       #595
      ---         BLOCKEND  ---      ---       LVL=0

      0100EC4BH   BLOCK     CODE     ---       LVL=0
      00000001H   SYMBOL    XSTK     ---       RNGBuf
      00000004H   SYMBOL    XSTK     BYTE      length
      00000000H   SYMBOL    XSTK     BYTE      WaitTime
      0100EC4BH   LINE      CODE     ---       #599
      0100EC5AH   LINE      CODE     ---       #602
      0100EC5DH   LINE      CODE     ---       #604
      0100EC65H   LINE      CODE     ---       #605
      0100EC65H   LINE      CODE     ---       #606
      0100EC6BH   LINE      CODE     ---       #607
      0100EC75H   LINE      CODE     ---       #608
      0100EC75H   LINE      CODE     ---       #609
      0100EC76H   LINE      CODE     ---       #610
      0100EC77H   LINE      CODE     ---       #611
      0100EC78H   LINE      CODE     ---       #612
      0100EC79H   LINE      CODE     ---       #613
      0100EC7AH   LINE      CODE     ---       #615
      0100EC7BH   LINE      CODE     ---       #616
      0100EC7CH   LINE      CODE     ---       #617
      0100EC7DH   LINE      CODE     ---       #618
      0100EC7EH   LINE      CODE     ---       #619
      0100EC7FH   LINE      CODE     ---       #620
      0100EC81H   LINE      CODE     ---       #621
      0100EC8DH   LINE      CODE     ---       #622
      0100EC93H   LINE      CODE     ---       #623
      0100EC98H   LINE      CODE     ---       #624
      0100EC9AH   LINE      CODE     ---       #626
      0100EC9DH   LINE      CODE     ---       #627
      ---         BLOCKEND  ---      ---       LVL=0

      0100F14DH   BLOCK     CODE     ---       LVL=0
      0100F14DH   LINE      CODE     ---       #631
      0100F14DH   LINE      CODE     ---       #632
      0100F14DH   LINE      CODE     ---       #633
      0100F150H   LINE      CODE     ---       #634
      0100F153H   LINE      CODE     ---       #635
      0100F156H   LINE      CODE     ---       #636
      0100F15FH   LINE      CODE     ---       #639
      0100F16AH   LINE      CODE     ---       #641
      0100F17DH   LINE      CODE     ---       #642
      ---         BLOCKEND  ---      ---       LVL=0
LX51 LINKER/LOCATER V3.51                                                             01/27/2014  09:14:18  PAGE 52



      0100F981H   BLOCK     CODE     ---       LVL=0
      0100F981H   LINE      CODE     ---       #645
      0100F981H   LINE      CODE     ---       #646
      0100F988H   LINE      CODE     ---       #647
      0100F98BH   LINE      CODE     ---       #648
      0100F98EH   LINE      CODE     ---       #649
      0100F991H   LINE      CODE     ---       #650
      0100F993H   LINE      CODE     ---       #651
      0100F995H   LINE      CODE     ---       #652
      0100F997H   LINE      CODE     ---       #653
      ---         BLOCKEND  ---      ---       LVL=0

      0100FA16H   BLOCK     CODE     ---       LVL=0
      0100FA16H   LINE      CODE     ---       #655
      0100FA16H   LINE      CODE     ---       #656
      0100FA1DH   LINE      CODE     ---       #657
      0100FA1FH   LINE      CODE     ---       #658
      0100FA21H   LINE      CODE     ---       #659
      0100FA23H   LINE      CODE     ---       #660
      0100FA25H   LINE      CODE     ---       #661
      0100FA27H   LINE      CODE     ---       #662
      ---         BLOCKEND  ---      ---       LVL=0

      ---         MODULE    ---      ---       ISO7816_INTERRUPT
      0100FAFDH   PUBLIC    CODE     ---       DES_ISR
      0100FB03H   PUBLIC    CODE     ---       FLASH_ISR
      0100FB00H   PUBLIC    CODE     ---       INT3_ISR
      0100FB06H   PUBLIC    CODE     ---       INT5_ISR
      0100D42EH   PUBLIC    CODE     ---       UART_ISR
      0100EEADH   PUBLIC    CODE     ---       WDT_ISR
      0100FAFFH   SYMBOL    CODE     ---       ?C0001
      0100D492H   SYMBOL    CODE     ---       ?C0002
      0100D471H   SYMBOL    CODE     ---       ?C0003
      0100D490H   SYMBOL    CODE     ---       ?C0004
      0100D4C8H   SYMBOL    CODE     ---       ?C0005
      0100D4C8H   SYMBOL    CODE     ---       ?C0006
      0100D4C8H   SYMBOL    CODE     ---       ?C0007
      0100D4CAH   SYMBOL    CODE     ---       ?C0008
      0100FB02H   SYMBOL    CODE     ---       ?C0009
      0100FB05H   SYMBOL    CODE     ---       ?C0010
      0100FB08H   SYMBOL    CODE     ---       ?C0011
      0100EED7H   SYMBOL    CODE     ---       ?C0012
      000000E0H   SYMBOL    DATA     ---       ACC
      000000F0H   SYMBOL    DATA     ---       B
      000000EEH   SYMBOL    DATA     ---       BANK_NUM
      000000EFH   SYMBOL    DATA     ---       BANK_SEL
      000000DBH   SYMBOL    DATA     ---       CHIPSC
      00000086H   SYMBOL    DATA     ---       CLKCON
      0000008FH   SYMBOL    DATA     ---       CLKSEL
      000000C2H   SYMBOL    DATA     ---       CRCDAT
      000000C0H   SYMBOL    DATA     ---       DESCTL
      000000F8H   SYMBOL    DATA     ---       DESD0
      000000F9H   SYMBOL    DATA     ---       DESD1
      000000FAH   SYMBOL    DATA     ---       DESD2
      000000FBH   SYMBOL    DATA     ---       DESD3
      000000FCH   SYMBOL    DATA     ---       DESD4
      000000FDH   SYMBOL    DATA     ---       DESD5
      000000FEH   SYMBOL    DATA     ---       DESD6
      000000FFH   SYMBOL    DATA     ---       DESD7
      000000C0H.5 SYMBOL    BIT      ---       DES_DATEN
      000000C0H.3 SYMBOL    BIT      ---       DES_END
      000000C0H.6 SYMBOL    BIT      ---       DES_KEY1EN
      000000C0H.7 SYMBOL    BIT      ---       DES_KEY2EN
      000000C0H.1 SYMBOL    BIT      ---       DES_MODE
LX51 LINKER/LOCATER V3.51                                                             01/27/2014  09:14:18  PAGE 53


      000000C0H.0 SYMBOL    BIT      ---       DES_START
      000000C0H.2 SYMBOL    BIT      ---       DES_TDES
      00000083H   SYMBOL    DATA     ---       DPH
      00000083H   SYMBOL    DATA     ---       DPH0
      00000085H   SYMBOL    DATA     ---       DPH1
      00000082H   SYMBOL    DATA     ---       DPL
      00000082H   SYMBOL    DATA     ---       DPL0
      00000084H   SYMBOL    DATA     ---       DPL1
      000000A2H   SYMBOL    DATA     ---       DPS
      000000E3H   SYMBOL    DATA     ---       FDCON
      000000EBH   SYMBOL    DATA     ---       FL_CON
      000000E7H   SYMBOL    DATA     ---       FL_PATCH
      000000E9H   SYMBOL    DATA     ---       FL_SDP1
      000000EAH   SYMBOL    DATA     ---       FL_SDP2
      000000E8H   SYMBOL    DATA     ---       FL_STS
      000000E8H.2 SYMBOL    BIT      ---       FL_STS_F_CHKFF_ERR
      000000E8H.1 SYMBOL    BIT      ---       FL_STS_F_OP_ERR
      000000E8H.0 SYMBOL    BIT      ---       FL_STS_F_OVER
      000000A8H   SYMBOL    DATA     ---       IE
      000000A8H.0 SYMBOL    BIT      ---       IE_DES
      000000A8H.7 SYMBOL    BIT      ---       IE_EA
      000000A8H.4 SYMBOL    BIT      ---       IE_FLASH
      000000A8H.3 SYMBOL    BIT      ---       IE_INT3
      000000A8H.5 SYMBOL    BIT      ---       IE_INT5
      000000A8H.1 SYMBOL    BIT      ---       IE_TMR0
      000000A8H.2 SYMBOL    BIT      ---       IE_UART
      000000A8H.6 SYMBOL    BIT      ---       IE_WDT
      000000B8H   SYMBOL    DATA     ---       IP
      00000000H   SYMBOL    NUMBER   ---       ISO7816_INTERRUPT
      000000C3H   SYMBOL    DATA     ---       MMU_SEL
      00000087H   SYMBOL    DATA     ---       PCON
      000000D0H   SYMBOL    DATA     ---       PSW
      020006E6H   SYMBOL    XDATA    ---       RCV_INDEX
      000000E1H   SYMBOL    DATA     ---       RNGCTL
      000000E2H   SYMBOL    DATA     ---       RNGDAT
      00000080H   SYMBOL    DATA     ---       RP0
      00000090H   SYMBOL    DATA     ---       RP1
      000000A0H   SYMBOL    DATA     ---       RP2
      000000B0H   SYMBOL    DATA     ---       RP3
      00000080H   SYMBOL    DATA     ---       SFR80
      00000081H   SYMBOL    DATA     ---       SFR81
      00000082H   SYMBOL    DATA     ---       SFR82
      00000083H   SYMBOL    DATA     ---       SFR83
      00000084H   SYMBOL    DATA     ---       SFR84
      00000085H   SYMBOL    DATA     ---       SFR85
      00000086H   SYMBOL    DATA     ---       SFR86
      00000087H   SYMBOL    DATA     ---       SFR87
      00000088H   SYMBOL    DATA     ---       SFR88
      00000089H   SYMBOL    DATA     ---       SFR89
      0000008AH   SYMBOL    DATA     ---       SFR8A
      0000008BH   SYMBOL    DATA     ---       SFR8B
      0000008CH   SYMBOL    DATA     ---       SFR8C
      0000008DH   SYMBOL    DATA     ---       SFR8D
      0000008EH   SYMBOL    DATA     ---       SFR8E
      0000008FH   SYMBOL    DATA     ---       SFR8F
      00000090H   SYMBOL    DATA     ---       SFR90
      00000091H   SYMBOL    DATA     ---       SFR91
      00000092H   SYMBOL    DATA     ---       SFR92
      00000093H   SYMBOL    DATA     ---       SFR93
      00000094H   SYMBOL    DATA     ---       SFR94
      00000095H   SYMBOL    DATA     ---       SFR95
      00000096H   SYMBOL    DATA     ---       SFR96
      00000097H   SYMBOL    DATA     ---       SFR97
      00000098H   SYMBOL    DATA     ---       SFR98
      00000099H   SYMBOL    DATA     ---       SFR99
LX51 LINKER/LOCATER V3.51                                                             01/27/2014  09:14:18  PAGE 54


      0000009AH   SYMBOL    DATA     ---       SFR9A
      0000009BH   SYMBOL    DATA     ---       SFR9B
      0000009CH   SYMBOL    DATA     ---       SFR9C
      0000009DH   SYMBOL    DATA     ---       SFR9D
      0000009EH   SYMBOL    DATA     ---       SFR9E
      0000009FH   SYMBOL    DATA     ---       SFR9F
      000000A0H   SYMBOL    DATA     ---       SFRA0
      000000A1H   SYMBOL    DATA     ---       SFRA1
      000000A2H   SYMBOL    DATA     ---       SFRA2
      000000A3H   SYMBOL    DATA     ---       SFRA3
      000000A4H   SYMBOL    DATA     ---       SFRA4
      000000A5H   SYMBOL    DATA     ---       SFRA5
      000000A6H   SYMBOL    DATA     ---       SFRA6
      000000A7H   SYMBOL    DATA     ---       SFRA7
      000000A8H   SYMBOL    DATA     ---       SFRA8
      000000A9H   SYMBOL    DATA     ---       SFRA9
      000000AAH   SYMBOL    DATA     ---       SFRAA
      000000ABH   SYMBOL    DATA     ---       SFRAB
      000000ACH   SYMBOL    DATA     ---       SFRAC
      000000ADH   SYMBOL    DATA     ---       SFRAD
      000000AEH   SYMBOL    DATA     ---       SFRAE
      000000AFH   SYMBOL    DATA     ---       SFRAF
      000000B0H   SYMBOL    DATA     ---       SFRB0
      000000B1H   SYMBOL    DATA     ---       SFRB1
      000000B2H   SYMBOL    DATA     ---       SFRB2
      000000B3H   SYMBOL    DATA     ---       SFRB3
      000000B4H   SYMBOL    DATA     ---       SFRB4
      000000B5H   SYMBOL    DATA     ---       SFRB5
      000000B6H   SYMBOL    DATA     ---       SFRB6
      000000B7H   SYMBOL    DATA     ---       SFRB7
      000000B8H   SYMBOL    DATA     ---       SFRB8
      000000B9H   SYMBOL    DATA     ---       SFRB9
      000000BAH   SYMBOL    DATA     ---       SFRBA
      000000BBH   SYMBOL    DATA     ---       SFRBB
      000000BCH   SYMBOL    DATA     ---       SFRBC
      000000BDH   SYMBOL    DATA     ---       SFRBD
      000000BEH   SYMBOL    DATA     ---       SFRBE
      000000BFH   SYMBOL    DATA     ---       SFRBF
      000000C0H   SYMBOL    DATA     ---       SFRC0
      000000C1H   SYMBOL    DATA     ---       SFRC1
      000000C2H   SYMBOL    DATA     ---       SFRC2
      000000C3H   SYMBOL    DATA     ---       SFRC3
      000000C4H   SYMBOL    DATA     ---       SFRC4
      000000C5H   SYMBOL    DATA     ---       SFRC5
      000000C6H   SYMBOL    DATA     ---       SFRC6
      000000C7H   SYMBOL    DATA     ---       SFRC7
      000000C8H   SYMBOL    DATA     ---       SFRC8
      000000C9H   SYMBOL    DATA     ---       SFRC9
      000000CAH   SYMBOL    DATA     ---       SFRCA
      000000CBH   SYMBOL    DATA     ---       SFRCB
      000000CCH   SYMBOL    DATA     ---       SFRCC
      000000CDH   SYMBOL    DATA     ---       SFRCD
      000000CEH   SYMBOL    DATA     ---       SFRCE
      000000CFH   SYMBOL    DATA     ---       SFRCF
      000000D0H   SYMBOL    DATA     ---       SFRD0
      000000D1H   SYMBOL    DATA     ---       SFRD1
      000000D2H   SYMBOL    DATA     ---       SFRD2
      000000D3H   SYMBOL    DATA     ---       SFRD3
      000000D4H   SYMBOL    DATA     ---       SFRD4
      000000D5H   SYMBOL    DATA     ---       SFRD5
      000000D6H   SYMBOL    DATA     ---       SFRD6
      000000D7H   SYMBOL    DATA     ---       SFRD7
      000000D8H   SYMBOL    DATA     ---       SFRD8
      000000D9H   SYMBOL    DATA     ---       SFRD9
      000000DAH   SYMBOL    DATA     ---       SFRDA
LX51 LINKER/LOCATER V3.51                                                             01/27/2014  09:14:18  PAGE 55


      000000DBH   SYMBOL    DATA     ---       SFRDB
      000000DCH   SYMBOL    DATA     ---       SFRDC
      000000DDH   SYMBOL    DATA     ---       SFRDD
      000000DEH   SYMBOL    DATA     ---       SFRDE
      000000DFH   SYMBOL    DATA     ---       SFRDF
      000000E0H   SYMBOL    DATA     ---       SFRE0
      000000E1H   SYMBOL    DATA     ---       SFRE1
      000000E2H   SYMBOL    DATA     ---       SFRE2
      000000E3H   SYMBOL    DATA     ---       SFRE3
      000000E4H   SYMBOL    DATA     ---       SFRE4
      000000E5H   SYMBOL    DATA     ---       SFRE5
      000000E6H   SYMBOL    DATA     ---       SFRE6
      000000E7H   SYMBOL    DATA     ---       SFRE7
      000000E8H   SYMBOL    DATA     ---       SFRE8
      000000E9H   SYMBOL    DATA     ---       SFRE9
      000000EAH   SYMBOL    DATA     ---       SFREA
      000000EBH   SYMBOL    DATA     ---       SFREB
      000000ECH   SYMBOL    DATA     ---       SFREC
      000000EDH   SYMBOL    DATA     ---       SFRED
      000000EEH   SYMBOL    DATA     ---       SFREE
      000000EFH   SYMBOL    DATA     ---       SFREF
      000000F0H   SYMBOL    DATA     ---       SFRF0
      000000F1H   SYMBOL    DATA     ---       SFRF1
      000000F2H   SYMBOL    DATA     ---       SFRF2
      000000F3H   SYMBOL    DATA     ---       SFRF3
      000000F4H   SYMBOL    DATA     ---       SFRF4
      000000F5H   SYMBOL    DATA     ---       SFRF5
      000000F6H   SYMBOL    DATA     ---       SFRF6
      000000F7H   SYMBOL    DATA     ---       SFRF7
      000000F8H   SYMBOL    DATA     ---       SFRF8
      000000F9H   SYMBOL    DATA     ---       SFRF9
      000000FAH   SYMBOL    DATA     ---       SFRFA
      000000FBH   SYMBOL    DATA     ---       SFRFB
      000000FCH   SYMBOL    DATA     ---       SFRFC
      000000FDH   SYMBOL    DATA     ---       SFRFD
      000000FEH   SYMBOL    DATA     ---       SFRFE
      000000FFH   SYMBOL    DATA     ---       SFRFF
      00000097H   SYMBOL    DATA     ---       SLEEP
      00000081H   SYMBOL    DATA     ---       SP
      00000088H   SYMBOL    DATA     ---       TCON
      00000088H.5 SYMBOL    BIT      ---       TCON_TF0
      00000088H.4 SYMBOL    BIT      ---       TCON_TR0
      0000008CH   SYMBOL    DATA     ---       TH0
      0000008AH   SYMBOL    DATA     ---       TL0
      00000089H   SYMBOL    DATA     ---       TMOD
      000000DAH   SYMBOL    DATA     ---       UBRC
      000000D9H   SYMBOL    DATA     ---       UBUF
      000000DFH   SYMBOL    DATA     ---       UCR
      000000DEH   SYMBOL    DATA     ---       UCR2
      000000DDH   SYMBOL    DATA     ---       UCR3
      000000DCH   SYMBOL    DATA     ---       UIMSK
      000000D8H   SYMBOL    DATA     ---       USR
      000000D8H.0 SYMBOL    BIT      ---       USR_TBE
      000000DBH   SYMBOL    DATA     ---       VDCON
      000000A5H   SYMBOL    DATA     ---       WDTCON
      000000A6H   SYMBOL    DATA     ---       WDTRST

      0100FAFDH   BLOCK     CODE     ---       LVL=0
      0100FAFDH   LINE      CODE     ---       #261
      0100FAFFH   LINE      CODE     ---       #266
      ---         BLOCKEND  ---      ---       LVL=0

      0100D42EH   BLOCK     CODE     ---       LVL=0
      0100D42EH   LINE      CODE     ---       #281
      0100D430H   LINE      CODE     ---       #282
LX51 LINKER/LOCATER V3.51                                                             01/27/2014  09:14:18  PAGE 56


      0100D432H   LINE      CODE     ---       #283
      0100D434H   LINE      CODE     ---       #284
      0100D436H   LINE      CODE     ---       #285
      0100D439H   LINE      CODE     ---       #286
      0100D43BH   LINE      CODE     ---       #287
      0100D43DH   LINE      CODE     ---       #293
      0100D43FH   LINE      CODE     ---       #298
      0100D442H   LINE      CODE     ---       #299
      0100D443H   LINE      CODE     ---       #300
      0100D444H   LINE      CODE     ---       #301
      0100D445H   LINE      CODE     ---       #302
      0100D447H   LINE      CODE     ---       #303
      0100D449H   LINE      CODE     ---       #306
      0100D44CH   LINE      CODE     ---       #307
      0100D44DH   LINE      CODE     ---       #308
      0100D44EH   LINE      CODE     ---       #309
      0100D44FH   LINE      CODE     ---       #310
      0100D450H   LINE      CODE     ---       #311
      0100D452H   LINE      CODE     ---       #312
      0100D453H   LINE      CODE     ---       #313
      0100D455H   LINE      CODE     ---       #314
      0100D456H   LINE      CODE     ---       #315
      0100D458H   LINE      CODE     ---       #316
      0100D45AH   LINE      CODE     ---       #317
      0100D45CH   LINE      CODE     ---       #318
      0100D45DH   LINE      CODE     ---       #321
      0100D460H   LINE      CODE     ---       #322
      0100D461H   LINE      CODE     ---       #323
      0100D462H   LINE      CODE     ---       #324
      0100D463H   LINE      CODE     ---       #325
      0100D466H   LINE      CODE     ---       #338
      0100D469H   LINE      CODE     ---       #339
      0100D46AH   LINE      CODE     ---       #340
      0100D46BH   LINE      CODE     ---       #344
      0100D46EH   LINE      CODE     ---       #345
      0100D470H   LINE      CODE     ---       #346
      0100D471H   LINE      CODE     ---       #352
      0100D474H   LINE      CODE     ---       #353
      0100D475H   LINE      CODE     ---       #354
      0100D476H   LINE      CODE     ---       #355
      0100D477H   LINE      CODE     ---       #356
      0100D479H   LINE      CODE     ---       #357
      0100D47BH   LINE      CODE     ---       #358
      0100D47EH   LINE      CODE     ---       #359
      0100D47FH   LINE      CODE     ---       #360
      0100D480H   LINE      CODE     ---       #361
      0100D481H   LINE      CODE     ---       #362
      0100D483H   LINE      CODE     ---       #363
      0100D485H   LINE      CODE     ---       #366
      0100D488H   LINE      CODE     ---       #367
      0100D489H   LINE      CODE     ---       #368
      0100D48AH   LINE      CODE     ---       #371
      0100D48DH   LINE      CODE     ---       #372
      0100D48FH   LINE      CODE     ---       #373
      0100D490H   LINE      CODE     ---       #380
      0100D492H   LINE      CODE     ---       #382
      0100D495H   LINE      CODE     ---       #383
      0100D496H   LINE      CODE     ---       #384
      0100D497H   LINE      CODE     ---       #385
      0100D498H   LINE      CODE     ---       #386
      0100D49BH   LINE      CODE     ---       #390
      0100D49EH   LINE      CODE     ---       #391
      0100D49FH   LINE      CODE     ---       #392
      0100D4A0H   LINE      CODE     ---       #393
      0100D4A1H   LINE      CODE     ---       #394
LX51 LINKER/LOCATER V3.51                                                             01/27/2014  09:14:18  PAGE 57


      0100D4A2H   LINE      CODE     ---       #395
      0100D4A4H   LINE      CODE     ---       #396
      0100D4A5H   LINE      CODE     ---       #397
      0100D4A7H   LINE      CODE     ---       #398
      0100D4A8H   LINE      CODE     ---       #399
      0100D4AAH   LINE      CODE     ---       #400
      0100D4ACH   LINE      CODE     ---       #401
      0100D4AEH   LINE      CODE     ---       #402
      0100D4AFH   LINE      CODE     ---       #405
      0100D4B2H   LINE      CODE     ---       #406
      0100D4B3H   LINE      CODE     ---       #407
      0100D4B4H   LINE      CODE     ---       #408
      0100D4B7H   LINE      CODE     ---       #409
      0100D4B8H   LINE      CODE     ---       #410
      0100D4B9H   LINE      CODE     ---       #411
      0100D4BAH   LINE      CODE     ---       #412
      0100D4BDH   LINE      CODE     ---       #416
      0100D4C0H   LINE      CODE     ---       #417
      0100D4C2H   LINE      CODE     ---       #418
      0100D4C3H   LINE      CODE     ---       #421
      0100D4C6H   LINE      CODE     ---       #422
      0100D4C7H   LINE      CODE     ---       #423
      0100D4C8H   LINE      CODE     ---       #439
      0100D4CAH   LINE      CODE     ---       #444
      0100D4CCH   LINE      CODE     ---       #445
      0100D4CEH   LINE      CODE     ---       #446
      0100D4D0H   LINE      CODE     ---       #447
      0100D4D2H   LINE      CODE     ---       #448
      0100D4D4H   LINE      CODE     ---       #449
      0100D4D6H   LINE      CODE     ---       #450
      ---         BLOCKEND  ---      ---       LVL=0

      0100FB00H   BLOCK     CODE     ---       LVL=0
      0100FB00H   LINE      CODE     ---       #466
      0100FB02H   LINE      CODE     ---       #471
      0100FB03H   LINE      CODE     ---       #487
      0100FB05H   LINE      CODE     ---       #492
      0100FB06H   LINE      CODE     ---       #508
      0100FB08H   LINE      CODE     ---       #513
      ---         BLOCKEND  ---      ---       LVL=0

      0100EEADH   BLOCK     CODE     ---       LVL=0
      0100EEADH   LINE      CODE     ---       #524
      0100EEAFH   LINE      CODE     ---       #525
      0100EEB1H   LINE      CODE     ---       #526
      0100EEB3H   LINE      CODE     ---       #527
      0100EEB5H   LINE      CODE     ---       #528
      0100EEB7H   LINE      CODE     ---       #529
      0100EEBAH   LINE      CODE     ---       #530
      0100EEBCH   LINE      CODE     ---       #531
      0100EEBEH   LINE      CODE     ---       #532
      0100EEC0H   LINE      CODE     ---       #533
      0100EEC2H   LINE      CODE     ---       #534
      0100EEC4H   LINE      CODE     ---       #535
      0100EEC6H   LINE      CODE     ---       #536
      0100EEC8H   LINE      CODE     ---       #537
      0100EECAH   LINE      CODE     ---       #543
      0100EECCH   LINE      CODE     ---       #546
      0100EECEH   LINE      CODE     ---       #547
      0100EED0H   LINE      CODE     ---       #548
      0100EED2H   LINE      CODE     ---       #549
      0100EED5H   LINE      CODE     ---       #552
      0100EED7H   LINE      CODE     ---       #557
      0100EED9H   LINE      CODE     ---       #558
      0100EEDBH   LINE      CODE     ---       #559
LX51 LINKER/LOCATER V3.51                                                             01/27/2014  09:14:18  PAGE 58


      0100EEDDH   LINE      CODE     ---       #560
      0100EEDFH   LINE      CODE     ---       #561
      0100EEE1H   LINE      CODE     ---       #562
      0100EEE3H   LINE      CODE     ---       #563
      0100EEE5H   LINE      CODE     ---       #564
      0100EEE7H   LINE      CODE     ---       #565
      0100EEE9H   LINE      CODE     ---       #566
      0100EEEBH   LINE      CODE     ---       #567
      0100EEEDH   LINE      CODE     ---       #568
      0100EEEFH   LINE      CODE     ---       #569
      0100EEF1H   LINE      CODE     ---       #570
      ---         BLOCKEND  ---      ---       LVL=0

      ---         MODULE    ---      ---       NORFLASH
      0100E53EH   PUBLIC    CODE     ---       _Write_Bytes
      0100F41BH   PUBLIC    CODE     ---       _Erase_Page
      000000E9H   SFRSYM    DATA     BYTE      FL_SDP1
      000000EAH   SFRSYM    DATA     BYTE      FL_SDP2
      000000A8H   SFRSYM    DATA     BYTE      IE
      000000E8H.2 SFRSYM    DATA     BIT       FL_STS_F_CHKFF_ERR
      000000E8H   SFRSYM    DATA     BIT       FL_STS_F_OVER
      00000088H   SFRSYM    DATA     BYTE      TCON
      000000C0H   SFRSYM    DATA     BYTE      DESCTL
      000000EBH   SFRSYM    DATA     BYTE      FL_CON
      000000E8H.1 SFRSYM    DATA     BIT       FL_STS_F_OP_ERR
      000000E8H   SFRSYM    DATA     BYTE      FL_STS
      000000D8H   SFRSYM    DATA     BYTE      USR

      0100FAE4H   BLOCK     CODE     ---       LVL=0
      ---         BLOCKEND  ---      ---       LVL=0

      0100F41BH   BLOCK     CODE     ---       LVL=0
      00000082H   SYMBOL    DATA     ---       pDest
      00000007H   SYMBOL    DATA     BYTE      counter
      0100F41BH   LINE      CODE     ---       #9
      0100F41FH   LINE      CODE     ---       #10
      0100F41FH   LINE      CODE     ---       #11
      0100F421H   LINE      CODE     ---       #13
      0100F424H   LINE      CODE     ---       #16
      0100F424H   LINE      CODE     ---       #17
      0100F427H   LINE      CODE     ---       #18
      0100F42AH   LINE      CODE     ---       #20
      0100F42DH   LINE      CODE     ---       #22
      0100F430H   LINE      CODE     ---       #24
      0100F432H   LINE      CODE     ---       #25
      0100F435H   LINE      CODE     ---       #26
      0100F435H   LINE      CODE     ---       #27
      0100F435H   LINE      CODE     ---       #28
      0100F435H   LINE      CODE     ---       #29
      0100F438H   LINE      CODE     ---       #30
      0100F43BH   LINE      CODE     ---       #31
      0100F43BH   LINE      CODE     ---       #32
      0100F43EH   LINE      CODE     ---       #33
      0100F43EH   LINE      CODE     ---       #34
      0100F440H   LINE      CODE     ---       #36
      0100F444H   LINE      CODE     ---       #37
      0100F444H   LINE      CODE     ---       #38
      0100F447H   LINE      CODE     ---       #39
      0100F44AH   LINE      CODE     ---       #40
      0100F44AH   LINE      CODE     ---       #42
      0100F44BH   LINE      CODE     ---       #43
      0100F44DH   LINE      CODE     ---       #44
      0100F44DH   LINE      CODE     ---       #46
      0100F44DH   LINE      CODE     ---       #47
      0100F450H   LINE      CODE     ---       #48
LX51 LINKER/LOCATER V3.51                                                             01/27/2014  09:14:18  PAGE 59


      0100F452H   LINE      CODE     ---       #71
      ---         BLOCKEND  ---      ---       LVL=0

      0100E53EH   BLOCK     CODE     ---       LVL=0
      02000647H   SYMBOL    XDATA    ---       pDest
      02000649H   SYMBOL    XDATA    ---       pSrc
      0200064BH   SYMBOL    XDATA    WORD      len
      0200064DH   SYMBOL    XDATA    WORD      i
      0100E53EH   LINE      CODE     ---       #75
      0100E552H   LINE      CODE     ---       #76
      0100E552H   LINE      CODE     ---       #79
      0100E56CH   LINE      CODE     ---       #80
      0100E56CH   LINE      CODE     ---       #81
      0100E56FH   LINE      CODE     ---       #83
      0100E572H   LINE      CODE     ---       #84
      0100E575H   LINE      CODE     ---       #86
      0100E59AH   LINE      CODE     ---       #88
      0100E59DH   LINE      CODE     ---       #90
      0100E5A0H   LINE      CODE     ---       #91
      0100E5A0H   LINE      CODE     ---       #92
      0100E5A0H   LINE      CODE     ---       #93
      0100E5A0H   LINE      CODE     ---       #94
      0100E5A3H   LINE      CODE     ---       #95
      0100E5A6H   LINE      CODE     ---       #96
      0100E5A6H   LINE      CODE     ---       #97
      0100E5A8H   LINE      CODE     ---       #98
      0100E5B4H   LINE      CODE     ---       #99
      0100E5B4H   LINE      CODE     ---       #100
      0100E5B7H   LINE      CODE     ---       #101
      0100E5B9H   LINE      CODE     ---       #102
      ---         BLOCKEND  ---      ---       LVL=0

      ---         MODULE    ---      ---       FILE
      0100E8E2H   PUBLIC    CODE     ---       _?_rehabilitate
      0100E949H   PUBLIC    CODE     ---       _?_invalidate
      0100A89CH   PUBLIC    CODE     ---       _?_remove
      0100C5A2H   PUBLIC    CODE     ---       _?_createdirectory
      0100CA94H   PUBLIC    CODE     ---       _?_createfilecyclic
      0100C6A7H   PUBLIC    CODE     ---       _?_createfilerec
      0100C49CH   PUBLIC    CODE     ---       _?_createfilebin
      01009776H   PUBLIC    CODE     ---       _?_increase
      0100696CH   PUBLIC    CODE     ---       _?_seek
      0100F284H   PUBLIC    CODE     ---       _?_writerec_prev
      0100F3A9H   PUBLIC    CODE     ---       _?_writerec_next
      0100996CH   PUBLIC    CODE     ---       _?_writerec
      0100DDE7H   PUBLIC    CODE     ---       _?_writebin
      0100F247H   PUBLIC    CODE     ---       _?_readrec_prev
      0100F370H   PUBLIC    CODE     ---       _?_readrec_next
      0100AE8EH   PUBLIC    CODE     ---       _?_readrec
      0100DD58H   PUBLIC    CODE     ---       _?_readbin
      0100ECA3H   PUBLIC    CODE     ---       _?_check_access
      0100A3E7H   PUBLIC    CODE     ---       _?_select
      0100C165H   PUBLIC    CODE     ---       _?file_check_status
      0100E635H   PUBLIC    CODE     ---       _?file_dealloc_all_child
      0100D9D9H   PUBLIC    CODE     ---       _?file_find_entry
      01007EF6H   PUBLIC    CODE     ---       _?file_remove_entry
      0100CB86H   PUBLIC    CODE     ---       _?file_add_entry
      0100F799H   PUBLIC    CODE     ---       _?file_get_current_header
      0100F58FH   PUBLIC    CODE     ---       _?file_get_efheader
      0100F55DH   PUBLIC    CODE     ---       _?file_get_dfheader
      0100F5F3H   PUBLIC    CODE     ---       _?file_get_header
      000000A8H   SFRSYM    DATA     BYTE      IE
      00000088H   SFRSYM    DATA     BYTE      TCON
      000000C0H   SFRSYM    DATA     BYTE      DESCTL
      000000E8H   SFRSYM    DATA     BYTE      FL_STS
LX51 LINKER/LOCATER V3.51                                                             01/27/2014  09:14:18  PAGE 60


      000000D8H   SFRSYM    DATA     BYTE      USR

      01007029H   BLOCK     CODE     ---       LVL=0
      ---         BLOCKEND  ---      ---       LVL=0

      0100F5F3H   BLOCK     CODE     ---       LVL=0
      00000003H   SYMBOL    XSTK     WORD      address
      00000000H   SYMBOL    XSTK     ---       newfile
      0100F5F3H   LINE      CODE     ---       #466
      0100F5F6H   LINE      CODE     ---       #469
      0100F604H   LINE      CODE     ---       #470
      0100F618H   LINE      CODE     ---       #471
      0100F61EH   LINE      CODE     ---       #472
      ---         BLOCKEND  ---      ---       LVL=0

      0100F55DH   BLOCK     CODE     ---       LVL=0
      00000003H   SYMBOL    XSTK     WORD      address
      00000000H   SYMBOL    XSTK     ---       newfile
      0100F55DH   LINE      CODE     ---       #485
      0100F560H   LINE      CODE     ---       #488
      0100F56EH   LINE      CODE     ---       #489
      0100F583H   LINE      CODE     ---       #490
      0100F589H   LINE      CODE     ---       #491
      ---         BLOCKEND  ---      ---       LVL=0

      0100F58FH   BLOCK     CODE     ---       LVL=0
      00000003H   SYMBOL    XSTK     WORD      address
      00000000H   SYMBOL    XSTK     ---       newfile
      0100F58FH   LINE      CODE     ---       #496
      0100F592H   LINE      CODE     ---       #499
      0100F5A0H   LINE      CODE     ---       #500
      0100F5B5H   LINE      CODE     ---       #501
      0100F5BBH   LINE      CODE     ---       #502
      ---         BLOCKEND  ---      ---       LVL=0

      0100F799H   BLOCK     CODE     ---       LVL=0
      00000000H   SYMBOL    XSTK     ---       handle
      0100F799H   LINE      CODE     ---       #504
      0100F79CH   LINE      CODE     ---       #505
      0100F7AFH   LINE      CODE     ---       #506
      0100F7B4H   LINE      CODE     ---       #507
      0100F7B4H   LINE      CODE     ---       #508
      0100F7BDH   LINE      CODE     ---       #509
      ---         BLOCKEND  ---      ---       LVL=0

      0100CB86H   BLOCK     CODE     ---       LVL=0
      0000000AH   SYMBOL    XSTK     ---       handle
      0000000DH   SYMBOL    XSTK     WORD      address
      00000000H   SYMBOL    XSTK     WORD      ptr
      00000002H   SYMBOL    XSTK     WORD      status
      00000004H   SYMBOL    XSTK     ---       head
      00000007H   SYMBOL    XSTK     ---       temp
      0100CB86H   LINE      CODE     ---       #515
      0100CB8CH   LINE      CODE     ---       #518
      0100CB92H   LINE      CODE     ---       #521
      0100CBA2H   LINE      CODE     ---       #522
      0100CBB1H   LINE      CODE     ---       #523
      0100CBBEH   LINE      CODE     ---       #525
      0100CBC5H   LINE      CODE     ---       #526
      0100CBE0H   LINE      CODE     ---       #527
      0100CBE0H   LINE      CODE     ---       #528
      0100CBE0H   LINE      CODE     ---       #529
      0100CBE2H   LINE      CODE     ---       #530
      0100CBE2H   LINE      CODE     ---       #531
      0100CBEDH   LINE      CODE     ---       #532
LX51 LINKER/LOCATER V3.51                                                             01/27/2014  09:14:18  PAGE 61


      0100CBF7H   LINE      CODE     ---       #533
      0100CC00H   LINE      CODE     ---       #534
      0100CC0EH   LINE      CODE     ---       #535
      0100CC1BH   LINE      CODE     ---       #537
      0100CC22H   LINE      CODE     ---       #538
      0100CC39H   LINE      CODE     ---       #539
      0100CC39H   LINE      CODE     ---       #540
      0100CC39H   LINE      CODE     ---       #541
      0100CC3BH   LINE      CODE     ---       #542
      0100CC3BH   LINE      CODE     ---       #543
      0100CC4EH   LINE      CODE     ---       #544
      0100CC50H   LINE      CODE     ---       #545
      0100CC59H   LINE      CODE     ---       #546
      0100CC62H   LINE      CODE     ---       #547
      0100CC68H   LINE      CODE     ---       #548
      ---         BLOCKEND  ---      ---       LVL=0

      01007EF6H   BLOCK     CODE     ---       LVL=0
      0000000AH   SYMBOL    XSTK     ---       handle
      0000000DH   SYMBOL    XSTK     WORD      address
      00000000H   SYMBOL    XSTK     WORD      ptr
      00000002H   SYMBOL    XSTK     WORD      status
      00000004H   SYMBOL    XSTK     ---       head
      00000007H   SYMBOL    XSTK     ---       temp
      01007EF6H   LINE      CODE     ---       #555
      01007EFCH   LINE      CODE     ---       #558
      01007F02H   LINE      CODE     ---       #561
      01007F12H   LINE      CODE     ---       #562
      01007F21H   LINE      CODE     ---       #563
      01007F34H   LINE      CODE     ---       #564
      01007F46H   LINE      CODE     ---       #565
      01007F61H   LINE      CODE     ---       #566
      01007F61H   LINE      CODE     ---       #567
      01007F61H   LINE      CODE     ---       #568
      01007F63H   LINE      CODE     ---       #569
      01007F63H   LINE      CODE     ---       #570
      01007F6EH   LINE      CODE     ---       #571
      01007F78H   LINE      CODE     ---       #572
      01007F81H   LINE      CODE     ---       #573
      01007F8FH   LINE      CODE     ---       #574
      01007FA2H   LINE      CODE     ---       #575
      01007FB4H   LINE      CODE     ---       #576
      01007FCBH   LINE      CODE     ---       #577
      01007FCBH   LINE      CODE     ---       #578
      01007FCBH   LINE      CODE     ---       #579
      01007FCDH   LINE      CODE     ---       #580
      01007FCDH   LINE      CODE     ---       #581
      01007FE0H   LINE      CODE     ---       #582
      01007FE2H   LINE      CODE     ---       #583
      01007FEBH   LINE      CODE     ---       #584
      01007FF4H   LINE      CODE     ---       #585
      01007FFAH   LINE      CODE     ---       #586
      ---         BLOCKEND  ---      ---       LVL=0

      0100D9D9H   BLOCK     CODE     ---       LVL=0
      00000005H   SYMBOL    XSTK     ---       handle
      00000008H   SYMBOL    XSTK     WORD      fid
      00000000H   SYMBOL    XSTK     WORD      ptr
      00000002H   SYMBOL    XSTK     ---       head
      0100D9D9H   LINE      CODE     ---       #592
      0100D9DFH   LINE      CODE     ---       #596
      0100D9F3H   LINE      CODE     ---       #597
      0100DA00H   LINE      CODE     ---       #598
      0100DA0AH   LINE      CODE     ---       #599
      0100DA15H   LINE      CODE     ---       #600
LX51 LINKER/LOCATER V3.51                                                             01/27/2014  09:14:18  PAGE 62


      0100DA28H   LINE      CODE     ---       #601
      0100DA3BH   LINE      CODE     ---       #602
      0100DA3EH   LINE      CODE     ---       #603
      0100DA48H   LINE      CODE     ---       #604
      0100DA48H   LINE      CODE     ---       #605
      0100DA5DH   LINE      CODE     ---       #606
      0100DA5FH   LINE      CODE     ---       #607
      0100DA6AH   LINE      CODE     ---       #608
      0100DA6DH   LINE      CODE     ---       #609
      ---         BLOCKEND  ---      ---       LVL=0

      0100E635H   BLOCK     CODE     ---       LVL=0
      00000005H   SYMBOL    XSTK     WORD      address
      00000000H   SYMBOL    XSTK     WORD      temp_address
      00000002H   SYMBOL    XSTK     ---       temp
      0100E635H   LINE      CODE     ---       #612
      0100E640H   LINE      CODE     ---       #624
      0100E652H   LINE      CODE     ---       #625
      0100E65FH   LINE      CODE     ---       #628
      0100E66AH   LINE      CODE     ---       #633
      0100E675H   LINE      CODE     ---       #634
      0100E67FH   LINE      CODE     ---       #636
      0100E68AH   LINE      CODE     ---       #637
      0100E68AH   LINE      CODE     ---       #638
      0100E695H   LINE      CODE     ---       #642
      0100E6A4H   LINE      CODE     ---       #643
      0100E6A7H   LINE      CODE     ---       #645
      0100E6A9H   LINE      CODE     ---       #647
      ---         BLOCKEND  ---      ---       LVL=0

      0100C165H   BLOCK     CODE     ---       LVL=0
      00000001H   SYMBOL    XSTK     ---       head
      00000004H   SYMBOL    XSTK     BYTE      op
      00000000H   SYMBOL    XSTK     BYTE      chv_no
      0100C165H   LINE      CODE     ---       #649
      0100C16EH   LINE      CODE     ---       #651
      0100C17FH   LINE      CODE     ---       #652
      0100C1A0H   LINE      CODE     ---       #653
      0100C1A0H   LINE      CODE     ---       #654
      0100C1ADH   LINE      CODE     ---       #655
      0100C1B8H   LINE      CODE     ---       #656
      0100C1B8H   LINE      CODE     ---       #657
      0100C1B8H   LINE      CODE     ---       #658
      0100C1CBH   LINE      CODE     ---       #659
      0100C1D2H   LINE      CODE     ---       #660
      0100C1D2H   LINE      CODE     ---       #661
      0100C1D2H   LINE      CODE     ---       #662
      0100C1E5H   LINE      CODE     ---       #663
      0100C1F4H   LINE      CODE     ---       #664
      0100C1FEH   LINE      CODE     ---       #665
      0100C1FEH   LINE      CODE     ---       #666
      0100C1FEH   LINE      CODE     ---       #667
      0100C208H   LINE      CODE     ---       #668
      0100C214H   LINE      CODE     ---       #669
      0100C216H   LINE      CODE     ---       #670
      0100C216H   LINE      CODE     ---       #671
      0100C22AH   LINE      CODE     ---       #672
      0100C232H   LINE      CODE     ---       #673
      0100C232H   LINE      CODE     ---       #674
      0100C232H   LINE      CODE     ---       #675
      0100C23FH   LINE      CODE     ---       #676
      0100C23FH   LINE      CODE     ---       #677
      0100C241H   LINE      CODE     ---       #678
      0100C241H   LINE      CODE     ---       #679
      0100C241H   LINE      CODE     ---       #680
LX51 LINKER/LOCATER V3.51                                                             01/27/2014  09:14:18  PAGE 63


      0100C241H   LINE      CODE     ---       #681
      0100C241H   LINE      CODE     ---       #682
      0100C241H   LINE      CODE     ---       #683
      0100C241H   LINE      CODE     ---       #684
      0100C256H   LINE      CODE     ---       #685
      0100C26BH   LINE      CODE     ---       #686
      0100C26BH   LINE      CODE     ---       #687
      0100C271H   LINE      CODE     ---       #688
      0100C271H   LINE      CODE     ---       #689
      0100C275H   LINE      CODE     ---       #690
      ---         BLOCKEND  ---      ---       LVL=0

      0100A3E7H   BLOCK     CODE     ---       LVL=0
      00000010H   SYMBOL    XSTK     ---       handle
      00000013H   SYMBOL    XSTK     WORD      fid
      00000002H   SYMBOL    XSTK     ---       head
      00000009H   SYMBOL    XSTK     WORD      ptr
      0000000BH   SYMBOL    XSTK     WORD      cptr
      0000000DH   SYMBOL    XSTK     WORD      cparent
      0000000FH   SYMBOL    XSTK     BYTE      select_type
      0100A3E7H   LINE      CODE     ---       #694
      0100A3F0H   LINE      CODE     ---       #712
      0100A3F6H   LINE      CODE     ---       #713
      0100A401H   LINE      CODE     ---       #714
      0100A404H   LINE      CODE     ---       #715
      0100A411H   LINE      CODE     ---       #716
      0100A41EH   LINE      CODE     ---       #717
      0100A42BH   LINE      CODE     ---       #718
      0100A42EH   LINE      CODE     ---       #719
      0100A42EH   LINE      CODE     ---       #720
      0100A43DH   LINE      CODE     ---       #721
      0100A43DH   LINE      CODE     ---       #723
      0100A458H   LINE      CODE     ---       #724
      0100A466H   LINE      CODE     ---       #725
      0100A48CH   LINE      CODE     ---       #726
      0100A495H   LINE      CODE     ---       #738
      0100A4A2H   LINE      CODE     ---       #740
      0100A4B6H   LINE      CODE     ---       #747
      0100A4CAH   LINE      CODE     ---       #754
      0100A4D6H   LINE      CODE     ---       #763
      0100A4DDH   LINE      CODE     ---       #764
      0100A4EDH   LINE      CODE     ---       #765
      0100A4F4H   LINE      CODE     ---       #766
      0100A4F4H   LINE      CODE     ---       #769
      0100A4F9H   LINE      CODE     ---       #778
      0100A500H   LINE      CODE     ---       #779
      0100A510H   LINE      CODE     ---       #780
      0100A526H   LINE      CODE     ---       #781
      0100A52CH   LINE      CODE     ---       #782
      0100A52EH   LINE      CODE     ---       #784
      0100A52EH   LINE      CODE     ---       #791
      0100A530H   LINE      CODE     ---       #792
      0100A530H   LINE      CODE     ---       #793
      0100A530H   LINE      CODE     ---       #795
      0100A540H   LINE      CODE     ---       #799
      0100A543H   LINE      CODE     ---       #802
      0100A563H   LINE      CODE     ---       #803
      0100A570H   LINE      CODE     ---       #804
      0100A576H   LINE      CODE     ---       #808
      0100A579H   LINE      CODE     ---       #809
      0100A579H   LINE      CODE     ---       #814
      0100A57DH   LINE      CODE     ---       #815
      ---         BLOCKEND  ---      ---       LVL=0

      0100ECA3H   BLOCK     CODE     ---       LVL=0
LX51 LINKER/LOCATER V3.51                                                             01/27/2014  09:14:18  PAGE 64


      00000005H   SYMBOL    XSTK     ---       handle
      00000008H   SYMBOL    XSTK     BYTE      mode
      00000000H   SYMBOL    XSTK     ---       head
      00000003H   SYMBOL    XSTK     WORD      status
      0100ECA3H   LINE      CODE     ---       #817
      0100ECACH   LINE      CODE     ---       #819
      0100ECB5H   LINE      CODE     ---       #820
      0100ECC7H   LINE      CODE     ---       #821
      0100ECDEH   LINE      CODE     ---       #822
      0100ECE7H   LINE      CODE     ---       #823
      0100ECEEH   LINE      CODE     ---       #824
      ---         BLOCKEND  ---      ---       LVL=0

      0100DD58H   BLOCK     CODE     ---       LVL=0
      00000005H   SYMBOL    XSTK     ---       handle
      00000008H   SYMBOL    XSTK     WORD      offset
      0000000AH   SYMBOL    XSTK     ---       buffer
      0000000DH   SYMBOL    XSTK     WORD      size
      00000000H   SYMBOL    XSTK     WORD      status
      00000002H   SYMBOL    XSTK     ---       head
      0100DD58H   LINE      CODE     ---       #826
      0100DD5EH   LINE      CODE     ---       #827
      0100DD64H   LINE      CODE     ---       #829
      0100DD78H   LINE      CODE     ---       #832
      0100DD94H   LINE      CODE     ---       #833
      0100DDCEH   LINE      CODE     ---       #834
      0100DDD9H   LINE      CODE     ---       #835
      0100DDE1H   LINE      CODE     ---       #836
      ---         BLOCKEND  ---      ---       LVL=0

      0100AE8EH   BLOCK     CODE     ---       LVL=0
      00000007H   SYMBOL    XSTK     ---       handle
      0000000AH   SYMBOL    XSTK     WORD      rec_no
      0000000CH   SYMBOL    XSTK     ---       buffer
      0000000FH   SYMBOL    XSTK     BYTE      size
      00000000H   SYMBOL    XSTK     WORD      status
      00000002H   SYMBOL    XSTK     WORD      total_rec
      00000004H   SYMBOL    XSTK     ---       head
      0100AE8EH   LINE      CODE     ---       #838
      0100AE97H   LINE      CODE     ---       #839
      0100AE9DH   LINE      CODE     ---       #842
      0100AEACH   LINE      CODE     ---       #845
      0100AEC8H   LINE      CODE     ---       #846
      0100AEE0H   LINE      CODE     ---       #847
      0100AEF4H   LINE      CODE     ---       #848
      0100AEF4H   LINE      CODE     ---       #849
      0100AF07H   LINE      CODE     ---       #850
      0100AF19H   LINE      CODE     ---       #851
      0100AF49H   LINE      CODE     ---       #852
      0100AF57H   LINE      CODE     ---       #853
      0100AF5AH   LINE      CODE     ---       #854
      0100AF5DH   LINE      CODE     ---       #855
      0100AF5DH   LINE      CODE     ---       #856
      0100AF67H   LINE      CODE     ---       #857
      0100AF69H   LINE      CODE     ---       #858
      0100AF69H   LINE      CODE     ---       #860
      0100AF89H   LINE      CODE     ---       #861
      0100AFA7H   LINE      CODE     ---       #862
      0100AFD7H   LINE      CODE     ---       #864
      0100AFD9H   LINE      CODE     ---       #865
      0100AFD9H   LINE      CODE     ---       #866
      0100AFE3H   LINE      CODE     ---       #867
      0100AFE3H   LINE      CODE     ---       #868
      0100AFE3H   LINE      CODE     ---       #869
      0100AFECH   LINE      CODE     ---       #870
LX51 LINKER/LOCATER V3.51                                                             01/27/2014  09:14:18  PAGE 65


      0100AFF4H   LINE      CODE     ---       #871
      ---         BLOCKEND  ---      ---       LVL=0

      0100F370H   BLOCK     CODE     ---       LVL=0
      00000002H   SYMBOL    XSTK     ---       handle
      00000005H   SYMBOL    XSTK     ---       buffer
      00000008H   SYMBOL    XSTK     BYTE      size
      00000000H   SYMBOL    XSTK     WORD      rec_no
      0100F370H   LINE      CODE     ---       #873
      0100F376H   LINE      CODE     ---       #874
      0100F382H   LINE      CODE     ---       #875
      0100F385H   LINE      CODE     ---       #876
      0100F3A3H   LINE      CODE     ---       #877
      ---         BLOCKEND  ---      ---       LVL=0

      0100F247H   BLOCK     CODE     ---       LVL=0
      00000002H   SYMBOL    XSTK     ---       handle
      00000005H   SYMBOL    XSTK     ---       buffer
      00000008H   SYMBOL    XSTK     BYTE      size
      00000000H   SYMBOL    XSTK     WORD      rec_no
      0100F247H   LINE      CODE     ---       #879
      0100F24DH   LINE      CODE     ---       #880
      0100F259H   LINE      CODE     ---       #881
      0100F260H   LINE      CODE     ---       #882
      0100F27EH   LINE      CODE     ---       #883
      ---         BLOCKEND  ---      ---       LVL=0

      0100DDE7H   BLOCK     CODE     ---       LVL=0
      00000005H   SYMBOL    XSTK     ---       handle
      00000008H   SYMBOL    XSTK     WORD      offset
      0000000AH   SYMBOL    XSTK     ---       buffer
      0000000DH   SYMBOL    XSTK     WORD      size
      00000000H   SYMBOL    XSTK     WORD      status
      00000002H   SYMBOL    XSTK     ---       head
      0100DDE7H   LINE      CODE     ---       #885
      0100DDEDH   LINE      CODE     ---       #886
      0100DDF3H   LINE      CODE     ---       #888
      0100DE07H   LINE      CODE     ---       #891
      0100DE23H   LINE      CODE     ---       #892
      0100DE5DH   LINE      CODE     ---       #893
      0100DE68H   LINE      CODE     ---       #894
      0100DE70H   LINE      CODE     ---       #895
      ---         BLOCKEND  ---      ---       LVL=0

      0100996CH   BLOCK     CODE     ---       LVL=0
      00000007H   SYMBOL    XSTK     ---       handle
      0000000AH   SYMBOL    XSTK     WORD      rec_no
      0000000CH   SYMBOL    XSTK     ---       buffer
      0000000FH   SYMBOL    XSTK     BYTE      size
      00000000H   SYMBOL    XSTK     WORD      status
      00000002H   SYMBOL    XSTK     WORD      total_rec
      00000004H   SYMBOL    XSTK     ---       head
      0100996CH   LINE      CODE     ---       #897
      01009975H   LINE      CODE     ---       #898
      0100997BH   LINE      CODE     ---       #901
      0100998AH   LINE      CODE     ---       #904
      010099A4H   LINE      CODE     ---       #905
      010099BBH   LINE      CODE     ---       #906
      010099BBH   LINE      CODE     ---       #907
      010099CCH   LINE      CODE     ---       #908
      010099DFH   LINE      CODE     ---       #909
      01009A12H   LINE      CODE     ---       #910
      01009A25H   LINE      CODE     ---       #911
      01009A28H   LINE      CODE     ---       #912
      01009A2BH   LINE      CODE     ---       #913
LX51 LINKER/LOCATER V3.51                                                             01/27/2014  09:14:18  PAGE 66


      01009A35H   LINE      CODE     ---       #914
      01009A35H   LINE      CODE     ---       #915
      01009A38H   LINE      CODE     ---       #916
      01009A38H   LINE      CODE     ---       #917
      01009A50H   LINE      CODE     ---       #918
      01009A7CH   LINE      CODE     ---       #919
      01009A9DH   LINE      CODE     ---       #920
      01009ACDH   LINE      CODE     ---       #921
      01009ADBH   LINE      CODE     ---       #922
      01009AE8H   LINE      CODE     ---       #923
      01009AF1H   LINE      CODE     ---       #924
      01009AF5H   LINE      CODE     ---       #925
      01009B21H   LINE      CODE     ---       #926
      01009B21H   LINE      CODE     ---       #927
      01009B23H   LINE      CODE     ---       #928
      01009B2CH   LINE      CODE     ---       #929
      01009B2CH   LINE      CODE     ---       #930
      01009B2EH   LINE      CODE     ---       #931
      01009B2EH   LINE      CODE     ---       #932
      01009B38H   LINE      CODE     ---       #933
      01009B38H   LINE      CODE     ---       #934
      01009B38H   LINE      CODE     ---       #935
      01009B41H   LINE      CODE     ---       #936
      01009B49H   LINE      CODE     ---       #937
      ---         BLOCKEND  ---      ---       LVL=0

      0100F3A9H   BLOCK     CODE     ---       LVL=0
      00000002H   SYMBOL    XSTK     ---       handle
      00000005H   SYMBOL    XSTK     ---       buffer
      00000008H   SYMBOL    XSTK     BYTE      size
      00000000H   SYMBOL    XSTK     WORD      rec_no
      0100F3A9H   LINE      CODE     ---       #939
      0100F3AFH   LINE      CODE     ---       #940
      0100F3BBH   LINE      CODE     ---       #941
      0100F3BEH   LINE      CODE     ---       #942
      0100F3DCH   LINE      CODE     ---       #943
      ---         BLOCKEND  ---      ---       LVL=0

      0100F284H   BLOCK     CODE     ---       LVL=0
      00000002H   SYMBOL    XSTK     ---       handle
      00000005H   SYMBOL    XSTK     ---       buffer
      00000008H   SYMBOL    XSTK     BYTE      size
      00000000H   SYMBOL    XSTK     WORD      rec_no
      0100F284H   LINE      CODE     ---       #945
      0100F28AH   LINE      CODE     ---       #946
      0100F296H   LINE      CODE     ---       #947
      0100F29DH   LINE      CODE     ---       #948
      0100F2BBH   LINE      CODE     ---       #949
      ---         BLOCKEND  ---      ---       LVL=0

      0100696CH   BLOCK     CODE     ---       LVL=0
      0000000DH   SYMBOL    XSTK     ---       handle
      00000010H   SYMBOL    XSTK     BYTE      type
      00000011H   SYMBOL    XSTK     ---       buffer
      00000014H   SYMBOL    XSTK     ---       pattern
      00000017H   SYMBOL    XSTK     BYTE      size
      00000000H   SYMBOL    XSTK     WORD      status
      00000002H   SYMBOL    XSTK     WORD      total_rec
      020006DEH   SYMBOL    XDATA    WORD      rec_no
      00000004H   SYMBOL    XSTK     ---       kmpstates
      00000007H   SYMBOL    XSTK     ---       temp
      0000000AH   SYMBOL    XSTK     ---       head
      0100696CH   LINE      CODE     ---       #951
      01006978H   LINE      CODE     ---       #952
      0100697EH   LINE      CODE     ---       #955
LX51 LINKER/LOCATER V3.51                                                             01/27/2014  09:14:18  PAGE 67


      01006984H   LINE      CODE     ---       #956
      01006990H   LINE      CODE     ---       #959
      010069A2H   LINE      CODE     ---       #962
      010069BFH   LINE      CODE     ---       #963
      010069DCH   LINE      CODE     ---       #964
      010069F4H   LINE      CODE     ---       #965
      01006A05H   LINE      CODE     ---       #966
      01006A12H   LINE      CODE     ---       #967
      01006A21H   LINE      CODE     ---       #968
      01006A45H   LINE      CODE     ---       #969
      01006A6CH   LINE      CODE     ---       #970
      01006A86H   LINE      CODE     ---       #971
      01006AA8H   LINE      CODE     ---       #972
      01006AA8H   LINE      CODE     ---       #973
      01006AAFH   LINE      CODE     ---       #974
      01006ABDH   LINE      CODE     ---       #975
      01006B04H   LINE      CODE     ---       #977
      01006B15H   LINE      CODE     ---       #978
      01006B18H   LINE      CODE     ---       #979
      01006B1AH   LINE      CODE     ---       #983
      01006B1AH   LINE      CODE     ---       #984
      01006B21H   LINE      CODE     ---       #985
      01006B2DH   LINE      CODE     ---       #986
      01006B7AH   LINE      CODE     ---       #987
      01006B8BH   LINE      CODE     ---       #988
      01006B92H   LINE      CODE     ---       #989
      01006B94H   LINE      CODE     ---       #993
      01006B94H   LINE      CODE     ---       #994
      01006B96H   LINE      CODE     ---       #995
      01006BA1H   LINE      CODE     ---       #996
      01006BE8H   LINE      CODE     ---       #997
      01006BF8H   LINE      CODE     ---       #998
      01006BFBH   LINE      CODE     ---       #999
      01006BFDH   LINE      CODE     ---       #1000
      01006C03H   LINE      CODE     ---       #1001
      01006C03H   LINE      CODE     ---       #1002
      01006C06H   LINE      CODE     ---       #1003
      01006C06H   LINE      CODE     ---       #1004
      01006C08H   LINE      CODE     ---       #1005
      01006C11H   LINE      CODE     ---       #1006
      01006C5EH   LINE      CODE     ---       #1007
      01006C7DH   LINE      CODE     ---       #1008
      01006C87H   LINE      CODE     ---       #1009
      01006C8AH   LINE      CODE     ---       #1010
      01006C90H   LINE      CODE     ---       #1011
      01006C9AH   LINE      CODE     ---       #1012
      01006C9CH   LINE      CODE     ---       #1013
      01006C9CH   LINE      CODE     ---       #1014
      01006CA5H   LINE      CODE     ---       #1015
      01006CA5H   LINE      CODE     ---       #1016
      01006CA5H   LINE      CODE     ---       #1023
      01006CA5H   LINE      CODE     ---       #1024
      01006CAEH   LINE      CODE     ---       #1025
      01006CB7H   LINE      CODE     ---       #1026
      01006CC0H   LINE      CODE     ---       #1028
      01006CC8H   LINE      CODE     ---       #1029
      ---         BLOCKEND  ---      ---       LVL=0

      01009776H   BLOCK     CODE     ---       LVL=0
      00000009H   SYMBOL    XSTK     ---       handle
      0000000CH   SYMBOL    XSTK     DWORD     ival
      00000010H   SYMBOL    XSTK     ---       res
      00000013H   SYMBOL    XSTK     BYTE      size
      00000000H   SYMBOL    XSTK     WORD      status
      00000002H   SYMBOL    XSTK     DWORD     value
LX51 LINKER/LOCATER V3.51                                                             01/27/2014  09:14:18  PAGE 68


      00000006H   SYMBOL    XSTK     ---       head
      01009776H   LINE      CODE     ---       #1031
      01009788H   LINE      CODE     ---       #1032
      01009790H   LINE      CODE     ---       #1034
      0100979CH   LINE      CODE     ---       #1039
      010097A8H   LINE      CODE     ---       #1040
      010097BAH   LINE      CODE     ---       #1043
      010097D1H   LINE      CODE     ---       #1044
      010097EEH   LINE      CODE     ---       #1045
      0100980DH   LINE      CODE     ---       #1047
      0100984BH   LINE      CODE     ---       #1048
      010098A7H   LINE      CODE     ---       #1049
      010098C6H   LINE      CODE     ---       #1050
      010098E9H   LINE      CODE     ---       #1051
      01009900H   LINE      CODE     ---       #1052
      0100991AH   LINE      CODE     ---       #1053
      01009929H   LINE      CODE     ---       #1054
      0100995CH   LINE      CODE     ---       #1055
      01009962H   LINE      CODE     ---       #1057
      01009966H   LINE      CODE     ---       #1058
      ---         BLOCKEND  ---      ---       LVL=0

      0100C49CH   BLOCK     CODE     ---       LVL=0
      0000000AH   SYMBOL    XSTK     ---       handle
      0000000DH   SYMBOL    XSTK     WORD      fid
      0000000FH   SYMBOL    XSTK     BYTE      acc_rw
      00000010H   SYMBOL    XSTK     BYTE      acc_io
      00000011H   SYMBOL    XSTK     INT       acc_ri
      00000013H   SYMBOL    XSTK     WORD      size
      00000000H   SYMBOL    XSTK     WORD      status
      00000002H   SYMBOL    XSTK     ---       head
      00000005H   SYMBOL    XSTK     ---       dir
      00000008H   SYMBOL    XSTK     WORD      address
      0100C49CH   LINE      CODE     ---       #1060
      0100C4A2H   LINE      CODE     ---       #1069
      0100C4B4H   LINE      CODE     ---       #1070
      0100C4C4H   LINE      CODE     ---       #1071
      0100C4D6H   LINE      CODE     ---       #1072
      0100C4E0H   LINE      CODE     ---       #1073
      0100C4F0H   LINE      CODE     ---       #1074
      0100C4F3H   LINE      CODE     ---       #1075
      0100C4F3H   LINE      CODE     ---       #1076
      0100C4F6H   LINE      CODE     ---       #1077
      0100C4FEH   LINE      CODE     ---       #1078
      0100C508H   LINE      CODE     ---       #1079
      0100C509H   LINE      CODE     ---       #1080
      0100C509H   LINE      CODE     ---       #1081
      0100C509H   LINE      CODE     ---       #1082
      0100C509H   LINE      CODE     ---       #1083
      0100C510H   LINE      CODE     ---       #1084
      0100C513H   LINE      CODE     ---       #1085
      0100C51AH   LINE      CODE     ---       #1086
      0100C51EH   LINE      CODE     ---       #1087
      0100C525H   LINE      CODE     ---       #1088
      0100C533H   LINE      CODE     ---       #1089
      0100C53CH   LINE      CODE     ---       #1090
      0100C55AH   LINE      CODE     ---       #1091
      0100C568H   LINE      CODE     ---       #1092
      0100C580H   LINE      CODE     ---       #1093
      0100C580H   LINE      CODE     ---       #1094
      0100C58BH   LINE      CODE     ---       #1095
      0100C594H   LINE      CODE     ---       #1096
      0100C59CH   LINE      CODE     ---       #1097
      ---         BLOCKEND  ---      ---       LVL=0

LX51 LINKER/LOCATER V3.51                                                             01/27/2014  09:14:18  PAGE 69


      0100C6A7H   BLOCK     CODE     ---       LVL=0
      0000000AH   SYMBOL    XSTK     ---       handle
      0000000DH   SYMBOL    XSTK     WORD      fid
      0000000FH   SYMBOL    XSTK     BYTE      acc_rw
      00000010H   SYMBOL    XSTK     BYTE      acc_io
      00000011H   SYMBOL    XSTK     BYTE      acc_ri
      00000012H   SYMBOL    XSTK     BYTE      total_rec
      00000013H   SYMBOL    XSTK     BYTE      rec_size
      00000000H   SYMBOL    XSTK     WORD      status
      00000002H   SYMBOL    XSTK     ---       head
      00000005H   SYMBOL    XSTK     ---       dir
      00000008H   SYMBOL    XSTK     WORD      address
      0100C6A7H   LINE      CODE     ---       #1099
      0100C6ADH   LINE      CODE     ---       #1108
      0100C6BDH   LINE      CODE     ---       #1109
      0100C6CDH   LINE      CODE     ---       #1110
      0100C6DFH   LINE      CODE     ---       #1111
      0100C6E9H   LINE      CODE     ---       #1112
      0100C6F9H   LINE      CODE     ---       #1113
      0100C6FCH   LINE      CODE     ---       #1114
      0100C6FCH   LINE      CODE     ---       #1115
      0100C6FFH   LINE      CODE     ---       #1116
      0100C6FFH   LINE      CODE     ---       #1117
      0100C705H   LINE      CODE     ---       #1118
      0100C709H   LINE      CODE     ---       #1119
      0100C709H   LINE      CODE     ---       #1120
      0100C709H   LINE      CODE     ---       #1121
      0100C716H   LINE      CODE     ---       #1122
      0100C71BH   LINE      CODE     ---       #1123
      0100C721H   LINE      CODE     ---       #1124
      0100C723H   LINE      CODE     ---       #1125
      0100C723H   LINE      CODE     ---       #1126
      0100C72AH   LINE      CODE     ---       #1127
      0100C738H   LINE      CODE     ---       #1128
      0100C741H   LINE      CODE     ---       #1129
      0100C75FH   LINE      CODE     ---       #1130
      0100C76DH   LINE      CODE     ---       #1131
      0100C785H   LINE      CODE     ---       #1132
      0100C785H   LINE      CODE     ---       #1133
      0100C790H   LINE      CODE     ---       #1134
      0100C799H   LINE      CODE     ---       #1135
      0100C7A1H   LINE      CODE     ---       #1136
      ---         BLOCKEND  ---      ---       LVL=0

      0100CA94H   BLOCK     CODE     ---       LVL=0
      0000000AH   SYMBOL    XSTK     ---       handle
      0000000DH   SYMBOL    XSTK     WORD      fid
      0000000FH   SYMBOL    XSTK     BYTE      acc_rw
      00000010H   SYMBOL    XSTK     BYTE      acc_io
      00000011H   SYMBOL    XSTK     BYTE      acc_ri
      00000012H   SYMBOL    XSTK     BYTE      total_rec
      00000013H   SYMBOL    XSTK     BYTE      rec_size
      00000000H   SYMBOL    XSTK     WORD      status
      00000002H   SYMBOL    XSTK     ---       head
      00000005H   SYMBOL    XSTK     ---       dir
      00000008H   SYMBOL    XSTK     WORD      address
      0100CA94H   LINE      CODE     ---       #1138
      0100CA9AH   LINE      CODE     ---       #1147
      0100CAAAH   LINE      CODE     ---       #1148
      0100CABAH   LINE      CODE     ---       #1149
      0100CACCH   LINE      CODE     ---       #1150
      0100CAD6H   LINE      CODE     ---       #1151
      0100CAE6H   LINE      CODE     ---       #1152
      0100CAE9H   LINE      CODE     ---       #1153
      0100CAE9H   LINE      CODE     ---       #1154
LX51 LINKER/LOCATER V3.51                                                             01/27/2014  09:14:18  PAGE 70


      0100CAECH   LINE      CODE     ---       #1155
      0100CAECH   LINE      CODE     ---       #1156
      0100CAF2H   LINE      CODE     ---       #1157
      0100CAF4H   LINE      CODE     ---       #1158
      0100CAF4H   LINE      CODE     ---       #1159
      0100CAF4H   LINE      CODE     ---       #1160
      0100CAF4H   LINE      CODE     ---       #1161
      0100CAFAH   LINE      CODE     ---       #1162
      0100CB00H   LINE      CODE     ---       #1163
      0100CB02H   LINE      CODE     ---       #1164
      0100CB02H   LINE      CODE     ---       #1165
      0100CB09H   LINE      CODE     ---       #1166
      0100CB17H   LINE      CODE     ---       #1167
      0100CB20H   LINE      CODE     ---       #1168
      0100CB3EH   LINE      CODE     ---       #1169
      0100CB4CH   LINE      CODE     ---       #1170
      0100CB64H   LINE      CODE     ---       #1171
      0100CB64H   LINE      CODE     ---       #1172
      0100CB6FH   LINE      CODE     ---       #1173
      0100CB78H   LINE      CODE     ---       #1174
      0100CB80H   LINE      CODE     ---       #1175
      ---         BLOCKEND  ---      ---       LVL=0

      0100C5A2H   BLOCK     CODE     ---       LVL=0
      0000000AH   SYMBOL    XSTK     ---       handle
      0000000DH   SYMBOL    XSTK     WORD      fid
      0000000FH   SYMBOL    XSTK     BYTE      filechar
      00000000H   SYMBOL    XSTK     WORD      status
      00000002H   SYMBOL    XSTK     ---       head
      00000005H   SYMBOL    XSTK     ---       dir
      00000008H   SYMBOL    XSTK     WORD      address
      0100C5A2H   LINE      CODE     ---       #1177
      0100C5A8H   LINE      CODE     ---       #1186
      0100C5B2H   LINE      CODE     ---       #1187
      0100C5C2H   LINE      CODE     ---       #1188
      0100C5D4H   LINE      CODE     ---       #1189
      0100C5DEH   LINE      CODE     ---       #1190
      0100C5EEH   LINE      CODE     ---       #1191
      0100C5F1H   LINE      CODE     ---       #1192
      0100C5F1H   LINE      CODE     ---       #1193
      0100C5F4H   LINE      CODE     ---       #1194
      0100C5FCH   LINE      CODE     ---       #1195
      0100C604H   LINE      CODE     ---       #1196
      0100C60EH   LINE      CODE     ---       #1197
      0100C612H   LINE      CODE     ---       #1198
      0100C619H   LINE      CODE     ---       #1199
      0100C61EH   LINE      CODE     ---       #1200
      0100C625H   LINE      CODE     ---       #1201
      0100C633H   LINE      CODE     ---       #1202
      0100C641H   LINE      CODE     ---       #1203
      0100C65FH   LINE      CODE     ---       #1204
      0100C66DH   LINE      CODE     ---       #1205
      0100C685H   LINE      CODE     ---       #1206
      0100C685H   LINE      CODE     ---       #1207
      0100C690H   LINE      CODE     ---       #1208
      0100C699H   LINE      CODE     ---       #1209
      0100C6A1H   LINE      CODE     ---       #1210
      ---         BLOCKEND  ---      ---       LVL=0

      0100A89CH   BLOCK     CODE     ---       LVL=0
      0000000AH   SYMBOL    XSTK     ---       handle
      0000000DH   SYMBOL    XSTK     WORD      file_id
      00000000H   SYMBOL    XSTK     WORD      status
      00000002H   SYMBOL    XSTK     ---       head
      00000005H   SYMBOL    XSTK     ---       dir
LX51 LINKER/LOCATER V3.51                                                             01/27/2014  09:14:18  PAGE 71


      00000008H   SYMBOL    XSTK     WORD      address
      0100A89CH   LINE      CODE     ---       #1212
      0100A8A2H   LINE      CODE     ---       #1221
      0100A8B6H   LINE      CODE     ---       #1222
      0100A8CAH   LINE      CODE     ---       #1223
      0100A8DFH   LINE      CODE     ---       #1224
      0100A8EBH   LINE      CODE     ---       #1225
      0100A8F6H   LINE      CODE     ---       #1226
      0100A8F6H   LINE      CODE     ---       #1227
      0100A903H   LINE      CODE     ---       #1228
      0100A915H   LINE      CODE     ---       #1229
      0100A928H   LINE      CODE     ---       #1230
      0100A941H   LINE      CODE     ---       #1231
      0100A953H   LINE      CODE     ---       #1232
      0100A962H   LINE      CODE     ---       #1233
      0100A962H   LINE      CODE     ---       #1234
      0100A970H   LINE      CODE     ---       #1238
      0100A97AH   LINE      CODE     ---       #1239
      0100A97CH   LINE      CODE     ---       #1240
      0100A97CH   LINE      CODE     ---       #1241
      0100A987H   LINE      CODE     ---       #1242
      0100A987H   LINE      CODE     ---       #1243
      0100A987H   LINE      CODE     ---       #1244
      0100A987H   LINE      CODE     ---       #1245
      0100A987H   LINE      CODE     ---       #1246
      0100A99BH   LINE      CODE     ---       #1247
      0100A9BFH   LINE      CODE     ---       #1248
      0100A9CDH   LINE      CODE     ---       #1249
      0100A9DDH   LINE      CODE     ---       #1250
      0100A9EBH   LINE      CODE     ---       #1251
      0100A9FDH   LINE      CODE     ---       #1252
      0100A9FDH   LINE      CODE     ---       #1253
      0100AA08H   LINE      CODE     ---       #1254
      0100AA11H   LINE      CODE     ---       #1255
      0100AA19H   LINE      CODE     ---       #1256
      ---         BLOCKEND  ---      ---       LVL=0

      0100E949H   BLOCK     CODE     ---       LVL=0
      00000005H   SYMBOL    XSTK     ---       handle
      00000000H   SYMBOL    XSTK     WORD      status
      00000002H   SYMBOL    XSTK     ---       head
      0100E949H   LINE      CODE     ---       #1258
      0100E94FH   LINE      CODE     ---       #1259
      0100E955H   LINE      CODE     ---       #1261
      0100E969H   LINE      CODE     ---       #1264
      0100E978H   LINE      CODE     ---       #1265
      0100E996H   LINE      CODE     ---       #1266
      0100E9A1H   LINE      CODE     ---       #1267
      0100E9A9H   LINE      CODE     ---       #1268
      ---         BLOCKEND  ---      ---       LVL=0

      0100E8E2H   BLOCK     CODE     ---       LVL=0
      00000005H   SYMBOL    XSTK     ---       handle
      00000000H   SYMBOL    XSTK     WORD      status
      00000002H   SYMBOL    XSTK     ---       head
      0100E8E2H   LINE      CODE     ---       #1270
      0100E8E8H   LINE      CODE     ---       #1271
      0100E8EEH   LINE      CODE     ---       #1273
      0100E902H   LINE      CODE     ---       #1276
      0100E912H   LINE      CODE     ---       #1277
      0100E930H   LINE      CODE     ---       #1278
      0100E93BH   LINE      CODE     ---       #1279
      0100E943H   LINE      CODE     ---       #1280
      ---         BLOCKEND  ---      ---       LVL=0

LX51 LINKER/LOCATER V3.51                                                             01/27/2014  09:14:18  PAGE 72


      ---         MODULE    ---      ---       FS
      020006C1H   PUBLIC    XDATA    ---       fs_info
      0100FA15H   PUBLIC    CODE     ---       _fsh_mask
      0100AA1FH   PUBLIC    CODE     ---       _?fs_dealloc
      0100850CH   PUBLIC    CODE     ---       _?fs_alloc
      01009B4FH   PUBLIC    CODE     ---       _?fs_format
      0100E5BAH   PUBLIC    CODE     ---       _?fs_get_allocated_space
      0100BB99H   PUBLIC    CODE     ---       _?fs_generate_FSH
      0100F655H   PUBLIC    CODE     ---       _?fs_freespace
      0100F713H   PUBLIC    CODE     ---       fs_init
      000000A8H   SFRSYM    DATA     BYTE      IE
      00000088H   SFRSYM    DATA     BYTE      TCON
      000000C0H   SFRSYM    DATA     BYTE      DESCTL
      000000E8H   SFRSYM    DATA     BYTE      FL_STS
      000000D8H   SFRSYM    DATA     BYTE      USR

      0100B2C0H   BLOCK     CODE     ---       LVL=0
      ---         BLOCKEND  ---      ---       LVL=0

      0100F713H   BLOCK     CODE     ---       LVL=0
      0100F713H   LINE      CODE     ---       #569
      0100F713H   LINE      CODE     ---       #572
      0100F71CH   LINE      CODE     ---       #573
      0100F72EH   LINE      CODE     ---       #575
      0100F72EH   LINE      CODE     ---       #576
      0100F737H   LINE      CODE     ---       #580
      0100F73AH   LINE      CODE     ---       #581
      0100F73DH   LINE      CODE     ---       #582
      0100F73DH   LINE      CODE     ---       #584
      0100F73FH   LINE      CODE     ---       #585
      ---         BLOCKEND  ---      ---       LVL=0

      0100F655H   BLOCK     CODE     ---       LVL=0
      00000000H   SYMBOL    XSTK     DWORD     freespace
      0100F655H   LINE      CODE     ---       #587
      0100F65BH   LINE      CODE     ---       #592
      0100F679H   LINE      CODE     ---       #594
      0100F67FH   LINE      CODE     ---       #595
      ---         BLOCKEND  ---      ---       LVL=0

      0100BB99H   BLOCK     CODE     ---       LVL=0
      00000042H   SYMBOL    XSTK     ---       buffer
      00000000H   SYMBOL    XSTK     ---       temp
      00000040H   SYMBOL    XSTK     BYTE      i
      00000041H   SYMBOL    XSTK     BYTE      j
      0100BB99H   LINE      CODE     ---       #598
      0100BBA8H   LINE      CODE     ---       #602
      0100BBADH   LINE      CODE     ---       #603
      0100BBBAH   LINE      CODE     ---       #604
      0100BBCCH   LINE      CODE     ---       #605
      0100BBE5H   LINE      CODE     ---       #607
      0100BBF0H   LINE      CODE     ---       #608
      0100BC05H   LINE      CODE     ---       #609
      0100BC13H   LINE      CODE     ---       #610
      0100BC2EH   LINE      CODE     ---       #611
      0100BC36H   LINE      CODE     ---       #612
      0100BC36H   LINE      CODE     ---       #614
      0100BC42H   LINE      CODE     ---       #615
      0100BC50H   LINE      CODE     ---       #616
      0100BC84H   LINE      CODE     ---       #617
      0100BC8CH   LINE      CODE     ---       #618
      0100BC95H   LINE      CODE     ---       #620
      0100BCA3H   LINE      CODE     ---       #621
      0100BCB8H   LINE      CODE     ---       #622
      0100BCC0H   LINE      CODE     ---       #623
LX51 LINKER/LOCATER V3.51                                                             01/27/2014  09:14:18  PAGE 73


      0100BCC2H   LINE      CODE     ---       #624
      ---         BLOCKEND  ---      ---       LVL=0

      0100E5BAH   BLOCK     CODE     ---       LVL=0
      00000000H   SYMBOL    XSTK     WORD      alloc_pos
      00000002H   SYMBOL    XSTK     WORD      allocated_space
      00000008H   SYMBOL    XSTK     ---       fs_chdr
      0100E5BAH   LINE      CODE     ---       #631
      0100E5C0H   LINE      CODE     ---       #633
      0100E5C7H   LINE      CODE     ---       #637
      0100E5CEH   LINE      CODE     ---       #639
      0100E5D8H   LINE      CODE     ---       #640
      0100E5DAH   LINE      CODE     ---       #641
      0100E5E5H   LINE      CODE     ---       #642
      0100E5FAH   LINE      CODE     ---       #644
      0100E602H   LINE      CODE     ---       #645
      0100E602H   LINE      CODE     ---       #651
      0100E617H   LINE      CODE     ---       #652
      0100E61EH   LINE      CODE     ---       #653
      0100E62DH   LINE      CODE     ---       #654
      0100E62FH   LINE      CODE     ---       #655
      ---         BLOCKEND  ---      ---       LVL=0

      01009B4FH   BLOCK     CODE     ---       LVL=0
      0000000DH   SYMBOL    XSTK     DWORD     size
      00000000H   SYMBOL    XSTK     WORD      status
      00000002H   SYMBOL    XSTK     ---       head
      00000007H   SYMBOL    XSTK     ---       _chunkroot
      0000000BH   SYMBOL    XSTK     WORD      address
      01009B4FH   LINE      CODE     ---       #658
      01009B5EH   LINE      CODE     ---       #670
      01009B61H   LINE      CODE     ---       #671
      01009B67H   LINE      CODE     ---       #672
      01009B6BH   LINE      CODE     ---       #673
      01009B6FH   LINE      CODE     ---       #674
      01009B73H   LINE      CODE     ---       #675
      01009B77H   LINE      CODE     ---       #676
      01009B7AH   LINE      CODE     ---       #677
      01009B89H   LINE      CODE     ---       #678
      01009B92H   LINE      CODE     ---       #679
      01009BA3H   LINE      CODE     ---       #681
      01009BA7H   LINE      CODE     ---       #682
      01009BAEH   LINE      CODE     ---       #683
      01009BBBH   LINE      CODE     ---       #684
      01009BC0H   LINE      CODE     ---       #685
      01009BD3H   LINE      CODE     ---       #686
      01009BE4H   LINE      CODE     ---       #687
      01009BEBH   LINE      CODE     ---       #688
      01009BF1H   LINE      CODE     ---       #689
      01009BFBH   LINE      CODE     ---       #690
      01009C0DH   LINE      CODE     ---       #691
      01009C1EH   LINE      CODE     ---       #693
      01009C22H   LINE      CODE     ---       #694
      01009C31H   LINE      CODE     ---       #695
      01009C3CH   LINE      CODE     ---       #696
      01009C44H   LINE      CODE     ---       #697
      01009C47H   LINE      CODE     ---       #698
      01009C52H   LINE      CODE     ---       #699
      01009C5AH   LINE      CODE     ---       #700
      01009C62H   LINE      CODE     ---       #701
      01009C6AH   LINE      CODE     ---       #702
      01009C71H   LINE      CODE     ---       #703
      01009C78H   LINE      CODE     ---       #704
      01009C80H   LINE      CODE     ---       #705
      01009C91H   LINE      CODE     ---       #706
LX51 LINKER/LOCATER V3.51                                                             01/27/2014  09:14:18  PAGE 74


      01009C9FH   LINE      CODE     ---       #711
      01009CA7H   LINE      CODE     ---       #712
      01009CACH   LINE      CODE     ---       #713
      01009CB5H   LINE      CODE     ---       #714
      01009CC1H   LINE      CODE     ---       #715
      01009CC6H   LINE      CODE     ---       #716
      01009CCBH   LINE      CODE     ---       #717
      01009CD3H   LINE      CODE     ---       #718
      01009CD6H   LINE      CODE     ---       #719
      01009CD6H   LINE      CODE     ---       #720
      01009CE1H   LINE      CODE     ---       #721
      01009CE9H   LINE      CODE     ---       #723
      ---         BLOCKEND  ---      ---       LVL=0

      0100850CH   BLOCK     CODE     ---       LVL=0
      0000000FH   SYMBOL    XSTK     WORD      size
      00000000H   SYMBOL    XSTK     WORD      alloc_pos
      00000002H   SYMBOL    XSTK     WORD      alloc_pos_temp
      00000004H   SYMBOL    XSTK     WORD      candidate_pos
      00000006H   SYMBOL    XSTK     ---       alloc_ptr
      00000009H   SYMBOL    XSTK     ---       alloc_ptr_temp
      0000000CH   SYMBOL    XSTK     ---       candidate
      0100850CH   LINE      CODE     ---       #731
      01008515H   LINE      CODE     ---       #736
      0100851FH   LINE      CODE     ---       #737
      01008528H   LINE      CODE     ---       #738
      01008537H   LINE      CODE     ---       #739
      01008540H   LINE      CODE     ---       #742
      01008550H   LINE      CODE     ---       #748
      01008550H   LINE      CODE     ---       #749
      0100855DH   LINE      CODE     ---       #750
      0100856DH   LINE      CODE     ---       #752
      010085A6H   LINE      CODE     ---       #753
      010085AFH   LINE      CODE     ---       #754
      010085B8H   LINE      CODE     ---       #755
      010085BEH   LINE      CODE     ---       #756
      010085C4H   LINE      CODE     ---       #757
      010085C4H   LINE      CODE     ---       #758
      010085DBH   LINE      CODE     ---       #761
      010085E6H   LINE      CODE     ---       #763
      010085F1H   LINE      CODE     ---       #764
      01008602H   LINE      CODE     ---       #765
      01008605H   LINE      CODE     ---       #766
      0100860EH   LINE      CODE     ---       #767
      01008611H   LINE      CODE     ---       #768
      01008611H   LINE      CODE     ---       #781
      01008611H   LINE      CODE     ---       #782
      01008611H   LINE      CODE     ---       #783
      01008617H   LINE      CODE     ---       #784
      0100861DH   LINE      CODE     ---       #785
      0100861DH   LINE      CODE     ---       #788
      0100862EH   LINE      CODE     ---       #789
      01008650H   LINE      CODE     ---       #791
      0100865CH   LINE      CODE     ---       #792
      01008662H   LINE      CODE     ---       #793
      010086A1H   LINE      CODE     ---       #796
      010086C1H   LINE      CODE     ---       #802
      010086D4H   LINE      CODE     ---       #803
      010086E4H   LINE      CODE     ---       #804
      010086F3H   LINE      CODE     ---       #805
      01008700H   LINE      CODE     ---       #806
      01008709H   LINE      CODE     ---       #807
      01008715H   LINE      CODE     ---       #808
      0100871EH   LINE      CODE     ---       #809
      0100871EH   LINE      CODE     ---       #823
LX51 LINKER/LOCATER V3.51                                                             01/27/2014  09:14:18  PAGE 75


      0100871EH   LINE      CODE     ---       #824
      0100871EH   LINE      CODE     ---       #825
      01008724H   LINE      CODE     ---       #826
      0100872AH   LINE      CODE     ---       #827
      0100872AH   LINE      CODE     ---       #828
      0100872AH   LINE      CODE     ---       #829
      ---         BLOCKEND  ---      ---       LVL=0

      0100AA1FH   BLOCK     CODE     ---       LVL=0
      00000011H   SYMBOL    XSTK     WORD      address
      00000000H   SYMBOL    XSTK     WORD      alloc_pos
      00000002H   SYMBOL    XSTK     WORD      alloc_prev_pos
      00000004H   SYMBOL    XSTK     WORD      alloc_next_pos
      00000006H   SYMBOL    XSTK     WORD      status
      00000008H   SYMBOL    XSTK     ---       alloc_ptr
      0000000BH   SYMBOL    XSTK     ---       alloc_prev
      0000000EH   SYMBOL    XSTK     ---       alloc_next
      0100AA1FH   LINE      CODE     ---       #837
      0100AA28H   LINE      CODE     ---       #848
      0100AA32H   LINE      CODE     ---       #849
      0100AA3BH   LINE      CODE     ---       #850
      0100AA4AH   LINE      CODE     ---       #851
      0100AA59H   LINE      CODE     ---       #852
      0100AA6BH   LINE      CODE     ---       #853
      0100AA7FH   LINE      CODE     ---       #854
      0100AA92H   LINE      CODE     ---       #855
      0100AAA1H   LINE      CODE     ---       #856
      0100AAB1H   LINE      CODE     ---       #858
      0100AAC7H   LINE      CODE     ---       #859
      0100AAD3H   LINE      CODE     ---       #860
      0100AAECH   LINE      CODE     ---       #874
      0100AAFCH   LINE      CODE     ---       #880
      0100AAFCH   LINE      CODE     ---       #881
      0100AB0BH   LINE      CODE     ---       #882
      0100AB1BH   LINE      CODE     ---       #889
      0100AB1BH   LINE      CODE     ---       #890
      0100AB24H   LINE      CODE     ---       #891
      0100AB2AH   LINE      CODE     ---       #892
      0100AB2DH   LINE      CODE     ---       #893
      0100AB3BH   LINE      CODE     ---       #894
      0100AB45H   LINE      CODE     ---       #895
      0100AB58H   LINE      CODE     ---       #896
      0100AB62H   LINE      CODE     ---       #897
      0100AB7AH   LINE      CODE     ---       #898
      0100AB7AH   LINE      CODE     ---       #900
      0100AB7AH   LINE      CODE     ---       #901
      0100AB83H   LINE      CODE     ---       #902
      0100AB8CH   LINE      CODE     ---       #903
      0100AB95H   LINE      CODE     ---       #904
      0100AB99H   LINE      CODE     ---       #909
      ---         BLOCKEND  ---      ---       LVL=0

      ---         MODULE    ---      ---       SECURITY
      020006D3H   PUBLIC    XDATA    ---       _chv_status
      0100FFA1H   PUBLIC    CONST    ---       chv_padding
      0100FA39H   PUBLIC    CODE     ---       _chv_set_status
      0100F85BH   PUBLIC    CODE     ---       _?chv_get_status
      0100D93EH   PUBLIC    CODE     ---       _?chv_change
      0100D381H   PUBLIC    CODE     ---       _?chv_unblock
      0100DE76H   PUBLIC    CODE     ---       _?chv_disable
      0100D8A2H   PUBLIC    CODE     ---       _?chv_enable
      0100E01CH   PUBLIC    CODE     ---       _?chv_verify
      0100DB0BH   PUBLIC    CODE     ---       _?chv_create
      0100DA73H   PUBLIC    CODE     ---       _?chv_init
      0100F7EAH   PUBLIC    CODE     ---       _?chv_get_config
LX51 LINKER/LOCATER V3.51                                                             01/27/2014  09:14:18  PAGE 76


      000000A8H   SFRSYM    DATA     BYTE      IE
      00000088H   SFRSYM    DATA     BYTE      TCON
      000000C0H   SFRSYM    DATA     BYTE      DESCTL
      000000E8H   SFRSYM    DATA     BYTE      FL_STS
      000000D8H   SFRSYM    DATA     BYTE      USR

      0100BA5FH   BLOCK     CODE     ---       LVL=0
      ---         BLOCKEND  ---      ---       LVL=0

      0100F7EAH   BLOCK     CODE     ---       LVL=0
      00000000H   SYMBOL    XSTK     BYTE      chv_no
      00000001H   SYMBOL    XSTK     ---       buffer
      0100F7EAH   LINE      CODE     ---       #470
      0100F7EDH   LINE      CODE     ---       #472
      0100F7F3H   LINE      CODE     ---       #474
      0100F80AH   LINE      CODE     ---       #476
      ---         BLOCKEND  ---      ---       LVL=0

      0100DA73H   BLOCK     CODE     ---       LVL=0
      00000000H   SYMBOL    XSTK     BYTE      i
      00000001H   SYMBOL    XSTK     ---       chv_buffer
      00000004H   SYMBOL    XSTK     ---       chv
      0100DA73H   LINE      CODE     ---       #478
      0100DA79H   LINE      CODE     ---       #482
      0100DA87H   LINE      CODE     ---       #484
      0100DA97H   LINE      CODE     ---       #485
      0100DAAEH   LINE      CODE     ---       #486
      0100DABDH   LINE      CODE     ---       #487
      0100DAC9H   LINE      CODE     ---       #488
      0100DAD8H   LINE      CODE     ---       #489
      0100DADAH   LINE      CODE     ---       #490
      0100DAE4H   LINE      CODE     ---       #491
      0100DAE4H   LINE      CODE     ---       #492
      0100DAF3H   LINE      CODE     ---       #493
      0100DAFBH   LINE      CODE     ---       #494
      0100DB05H   LINE      CODE     ---       #496
      ---         BLOCKEND  ---      ---       LVL=0

      0100DB0BH   BLOCK     CODE     ---       LVL=0
      00000016H   SYMBOL    XSTK     BYTE      chv_no
      00000017H   SYMBOL    XSTK     ---       pin
      0000001AH   SYMBOL    XSTK     ---       puk
      0000001DH   SYMBOL    XSTK     BYTE      pin_max_retry
      0000001EH   SYMBOL    XSTK     BYTE      puk_max_retry
      00000015H   SYMBOL    XSTK     ---       chv
      0100DB0BH   LINE      CODE     ---       #498
      0100DB14H   LINE      CODE     ---       #501
      0100DB19H   LINE      CODE     ---       #503
      0100DB1FH   LINE      CODE     ---       #504
      0100DB20H   LINE      CODE     ---       #505
      0100DB28H   LINE      CODE     ---       #506
      0100DB34H   LINE      CODE     ---       #507
      0100DB4BH   LINE      CODE     ---       #508
      0100DB50H   LINE      CODE     ---       #509
      0100DB6EH   LINE      CODE     ---       #510
      0100DB73H   LINE      CODE     ---       #511
      0100DB83H   LINE      CODE     ---       #512
      0100DB88H   LINE      CODE     ---       #513
      0100DB94H   LINE      CODE     ---       #514
      0100DB9AH   LINE      CODE     ---       #516
      ---         BLOCKEND  ---      ---       LVL=0

      0100E01CH   BLOCK     CODE     ---       LVL=0
      00000016H   SYMBOL    XSTK     BYTE      chv_no
      00000017H   SYMBOL    XSTK     ---       pin
LX51 LINKER/LOCATER V3.51                                                             01/27/2014  09:14:18  PAGE 77


      00000001H   SYMBOL    XSTK     ---       chv
      0100E01CH   LINE      CODE     ---       #518
      0100E01CH   LINE      CODE     ---       #521
      0100E01CH   LINE      CODE     ---       #526
      0100E022H   LINE      CODE     ---       #527
      0100E030H   LINE      CODE     ---       #528
      0100E03CH   LINE      CODE     ---       #529
      0100E04BH   LINE      CODE     ---       #530
      0100E04FH   LINE      CODE     ---       #531
      0100E055H   LINE      CODE     ---       #532
      0100E05FH   LINE      CODE     ---       #533
      0100E061H   LINE      CODE     ---       #534
      0100E061H   LINE      CODE     ---       #535
      0100E067H   LINE      CODE     ---       #536
      0100E06DH   LINE      CODE     ---       #538
      0100E073H   LINE      CODE     ---       #539
      0100E073H   LINE      CODE     ---       #540
      0100E07DH   LINE      CODE     ---       #541
      0100E07DH   LINE      CODE     ---       #542
      0100E07DH   LINE      CODE     ---       #543
      0100E08AH   LINE      CODE     ---       #545
      0100E090H   LINE      CODE     ---       #546
      0100E090H   LINE      CODE     ---       #547
      0100E096H   LINE      CODE     ---       #549
      0100E09CH   LINE      CODE     ---       #550
      0100E09CH   LINE      CODE     ---       #552
      0100E0A0H   LINE      CODE     ---       #553
      ---         BLOCKEND  ---      ---       LVL=0

      0100D8A2H   BLOCK     CODE     ---       LVL=0
      00000016H   SYMBOL    XSTK     BYTE      chv_no
      00000017H   SYMBOL    XSTK     ---       pin
      00000001H   SYMBOL    XSTK     ---       chv
      0100D8A2H   LINE      CODE     ---       #555
      0100D8A2H   LINE      CODE     ---       #558
      0100D8A2H   LINE      CODE     ---       #563
      0100D8A8H   LINE      CODE     ---       #564
      0100D8B7H   LINE      CODE     ---       #565
      0100D8C3H   LINE      CODE     ---       #566
      0100D8D2H   LINE      CODE     ---       #567
      0100D8D2H   LINE      CODE     ---       #568
      0100D8D9H   LINE      CODE     ---       #569
      0100D8E2H   LINE      CODE     ---       #570
      0100D8EAH   LINE      CODE     ---       #571
      0100D8F7H   LINE      CODE     ---       #572
      0100D8F9H   LINE      CODE     ---       #573
      0100D8F9H   LINE      CODE     ---       #574
      0100D8FFH   LINE      CODE     ---       #575
      0100D905H   LINE      CODE     ---       #577
      0100D90BH   LINE      CODE     ---       #578
      0100D90BH   LINE      CODE     ---       #579
      0100D915H   LINE      CODE     ---       #580
      0100D915H   LINE      CODE     ---       #581
      0100D915H   LINE      CODE     ---       #582
      0100D922H   LINE      CODE     ---       #584
      0100D928H   LINE      CODE     ---       #585
      0100D928H   LINE      CODE     ---       #586
      0100D92EH   LINE      CODE     ---       #588
      0100D934H   LINE      CODE     ---       #589
      0100D934H   LINE      CODE     ---       #591
      0100D938H   LINE      CODE     ---       #592
      ---         BLOCKEND  ---      ---       LVL=0

      0100DE76H   BLOCK     CODE     ---       LVL=0
      00000016H   SYMBOL    XSTK     BYTE      chv_no
LX51 LINKER/LOCATER V3.51                                                             01/27/2014  09:14:18  PAGE 78


      00000017H   SYMBOL    XSTK     ---       pin
      00000001H   SYMBOL    XSTK     ---       chv
      0100DE76H   LINE      CODE     ---       #594
      0100DE76H   LINE      CODE     ---       #597
      0100DE76H   LINE      CODE     ---       #602
      0100DE7CH   LINE      CODE     ---       #603
      0100DE8AH   LINE      CODE     ---       #604
      0100DE96H   LINE      CODE     ---       #605
      0100DEA5H   LINE      CODE     ---       #606
      0100DEA5H   LINE      CODE     ---       #607
      0100DEACH   LINE      CODE     ---       #608
      0100DEB7H   LINE      CODE     ---       #609
      0100DEBDH   LINE      CODE     ---       #610
      0100DEBFH   LINE      CODE     ---       #611
      0100DEBFH   LINE      CODE     ---       #612
      0100DEC5H   LINE      CODE     ---       #613
      0100DECBH   LINE      CODE     ---       #615
      0100DED1H   LINE      CODE     ---       #616
      0100DED1H   LINE      CODE     ---       #617
      0100DEDBH   LINE      CODE     ---       #618
      0100DEDBH   LINE      CODE     ---       #619
      0100DEDBH   LINE      CODE     ---       #620
      0100DEE8H   LINE      CODE     ---       #622
      0100DEEEH   LINE      CODE     ---       #623
      0100DEEEH   LINE      CODE     ---       #624
      0100DEF4H   LINE      CODE     ---       #626
      0100DEFAH   LINE      CODE     ---       #627
      0100DEFAH   LINE      CODE     ---       #629
      0100DEFEH   LINE      CODE     ---       #630
      ---         BLOCKEND  ---      ---       LVL=0

      0100D381H   BLOCK     CODE     ---       LVL=0
      00000016H   SYMBOL    XSTK     BYTE      chv_no
      00000017H   SYMBOL    XSTK     ---       pin
      0000001AH   SYMBOL    XSTK     ---       puk
      00000002H   SYMBOL    XSTK     ---       chv
      0100D381H   LINE      CODE     ---       #632
      0100D381H   LINE      CODE     ---       #635
      0100D381H   LINE      CODE     ---       #640
      0100D387H   LINE      CODE     ---       #641
      0100D396H   LINE      CODE     ---       #643
      0100D3A9H   LINE      CODE     ---       #644
      0100D3C8H   LINE      CODE     ---       #645
      0100D3CDH   LINE      CODE     ---       #646
      0100D3D5H   LINE      CODE     ---       #647
      0100D3E3H   LINE      CODE     ---       #648
      0100D3EFH   LINE      CODE     ---       #649
      0100D3F5H   LINE      CODE     ---       #650
      0100D3F7H   LINE      CODE     ---       #651
      0100D3FDH   LINE      CODE     ---       #652
      0100D40CH   LINE      CODE     ---       #653
      0100D412H   LINE      CODE     ---       #655
      0100D418H   LINE      CODE     ---       #656
      0100D418H   LINE      CODE     ---       #657
      0100D41EH   LINE      CODE     ---       #658
      0100D424H   LINE      CODE     ---       #659
      0100D424H   LINE      CODE     ---       #661
      0100D428H   LINE      CODE     ---       #662
      ---         BLOCKEND  ---      ---       LVL=0

      0100D93EH   BLOCK     CODE     ---       LVL=0
      00000016H   SYMBOL    XSTK     BYTE      chv_no
      00000017H   SYMBOL    XSTK     ---       old
      0000001AH   SYMBOL    XSTK     ---       new
      00000001H   SYMBOL    XSTK     ---       chv
LX51 LINKER/LOCATER V3.51                                                             01/27/2014  09:14:18  PAGE 79


      0100D93EH   LINE      CODE     ---       #664
      0100D93EH   LINE      CODE     ---       #667
      0100D93EH   LINE      CODE     ---       #672
      0100D944H   LINE      CODE     ---       #673
      0100D953H   LINE      CODE     ---       #674
      0100D95FH   LINE      CODE     ---       #675
      0100D96EH   LINE      CODE     ---       #676
      0100D971H   LINE      CODE     ---       #677
      0100D97DH   LINE      CODE     ---       #678
      0100D98CH   LINE      CODE     ---       #679
      0100D992H   LINE      CODE     ---       #680
      0100D994H   LINE      CODE     ---       #681
      0100D994H   LINE      CODE     ---       #682
      0100D99AH   LINE      CODE     ---       #683
      0100D9A0H   LINE      CODE     ---       #685
      0100D9A6H   LINE      CODE     ---       #686
      0100D9A6H   LINE      CODE     ---       #687
      0100D9B0H   LINE      CODE     ---       #688
      0100D9B0H   LINE      CODE     ---       #689
      0100D9B0H   LINE      CODE     ---       #690
      0100D9BDH   LINE      CODE     ---       #692
      0100D9C3H   LINE      CODE     ---       #693
      0100D9C3H   LINE      CODE     ---       #694
      0100D9C9H   LINE      CODE     ---       #696
      0100D9CFH   LINE      CODE     ---       #697
      0100D9CFH   LINE      CODE     ---       #699
      0100D9D3H   LINE      CODE     ---       #700
      ---         BLOCKEND  ---      ---       LVL=0

      0100F85BH   BLOCK     CODE     ---       LVL=0
      00000000H   SYMBOL    XSTK     BYTE      chv_no
      0100F85BH   LINE      CODE     ---       #702
      0100F85EH   LINE      CODE     ---       #703
      0100F864H   LINE      CODE     ---       #704
      0100F86BH   LINE      CODE     ---       #705
      0100F875H   LINE      CODE     ---       #706
      0100F875H   LINE      CODE     ---       #707
      0100F877H   LINE      CODE     ---       #708
      0100F877H   LINE      CODE     ---       #709
      ---         BLOCKEND  ---      ---       LVL=0

      0100FA39H   BLOCK     CODE     ---       LVL=0
      00000007H   SYMBOL    DATA     BYTE      chv_no
      00000005H   SYMBOL    DATA     BYTE      status
      0100FA39H   LINE      CODE     ---       #711
      0100FA39H   LINE      CODE     ---       #712
      0100FA3AH   LINE      CODE     ---       #713
      0100FA40H   LINE      CODE     ---       #714
      0100FA48H   LINE      CODE     ---       #715
      0100FA48H   LINE      CODE     ---       #716
      ---         BLOCKEND  ---      ---       LVL=0

      ---         MODULE    ---      ---       MIDGARD
      0100D805H   PUBLIC    CODE     ---       _?m_free
      0100ECF4H   PUBLIC    CODE     ---       _?m_get_allocated_space
      0100A718H   PUBLIC    CODE     ---       _?m_alloc
      0100F2C1H   PUBLIC    CODE     ---       _?m_init_alloc
      000000A8H   SFRSYM    DATA     BYTE      IE
      00000088H   SFRSYM    DATA     BYTE      TCON
      000000C0H   SFRSYM    DATA     BYTE      DESCTL
      000000E8H   SFRSYM    DATA     BYTE      FL_STS
      000000D8H   SFRSYM    DATA     BYTE      USR
      0200051DH   SYMBOL    XDATA    ---       alloc_buffer

      0100E6AFH   BLOCK     CODE     ---       LVL=0
LX51 LINKER/LOCATER V3.51                                                             01/27/2014  09:14:18  PAGE 80


      ---         BLOCKEND  ---      ---       LVL=0

      0100F2C1H   BLOCK     CODE     ---       LVL=0
      0100F2C1H   LINE      CODE     ---       #22
      0100F2C1H   LINE      CODE     ---       #26
      0100F2C6H   LINE      CODE     ---       #27
      0100F2E1H   LINE      CODE     ---       #31
      0100F2F6H   LINE      CODE     ---       #34
      0100F2FBH   LINE      CODE     ---       #35
      ---         BLOCKEND  ---      ---       LVL=0

      0100A718H   BLOCK     CODE     ---       LVL=0
      00000009H   SYMBOL    XSTK     WORD      size
      00000000H   SYMBOL    XSTK     ---       alloc_ptr
      00000003H   SYMBOL    XSTK     ---       alloc_ptr_temp
      00000006H   SYMBOL    XSTK     ---       candidate
      0100A718H   LINE      CODE     ---       #41
      0100A726H   LINE      CODE     ---       #49
      0100A72FH   LINE      CODE     ---       #50
      0100A737H   LINE      CODE     ---       #57
      0100A737H   LINE      CODE     ---       #58
      0100A742H   LINE      CODE     ---       #62
      0100A751H   LINE      CODE     ---       #63
      0100A783H   LINE      CODE     ---       #69
      0100A78CH   LINE      CODE     ---       #73
      0100A7A1H   LINE      CODE     ---       #74
      0100A7A8H   LINE      CODE     ---       #88
      0100A7AEH   LINE      CODE     ---       #89
      0100A7AEH   LINE      CODE     ---       #91
      0100A7B7H   LINE      CODE     ---       #92
      0100A7C0H   LINE      CODE     ---       #93
      0100A81CH   LINE      CODE     ---       #99
      0100A841H   LINE      CODE     ---       #104
      0100A851H   LINE      CODE     ---       #105
      0100A866H   LINE      CODE     ---       #109
      0100A87EH   LINE      CODE     ---       #126
      0100A896H   LINE      CODE     ---       #127
      0100A896H   LINE      CODE     ---       #128
      0100A896H   LINE      CODE     ---       #129
      ---         BLOCKEND  ---      ---       LVL=0

      0100ECF4H   BLOCK     CODE     ---       LVL=0
      00000000H   SYMBOL    XSTK     WORD      alloc_space
      00000002H   SYMBOL    XSTK     ---       alloc_ptr
      0100ECF4H   LINE      CODE     ---       #135
      0100ECFAH   LINE      CODE     ---       #136
      0100ED01H   LINE      CODE     ---       #138
      0100ED04H   LINE      CODE     ---       #140
      0100ED06H   LINE      CODE     ---       #141
      0100ED13H   LINE      CODE     ---       #142
      0100ED1CH   LINE      CODE     ---       #143
      0100ED26H   LINE      CODE     ---       #144
      0100ED26H   LINE      CODE     ---       #147
      0100ED2FH   LINE      CODE     ---       #148
      0100ED3AH   LINE      CODE     ---       #149
      0100ED3CH   LINE      CODE     ---       #150
      ---         BLOCKEND  ---      ---       LVL=0

      0100D805H   BLOCK     CODE     ---       LVL=0
      00000006H   SYMBOL    XSTK     ---       ptr
      00000000H   SYMBOL    XSTK     ---       alloc_ptr
      00000003H   SYMBOL    XSTK     ---       temp
      0100D805H   LINE      CODE     ---       #152
      0100D811H   LINE      CODE     ---       #198
      0100D816H   LINE      CODE     ---       #201
LX51 LINKER/LOCATER V3.51                                                             01/27/2014  09:14:18  PAGE 81


      0100D821H   LINE      CODE     ---       #203
      0100D851H   LINE      CODE     ---       #204
      0100D85DH   LINE      CODE     ---       #205
      0100D872H   LINE      CODE     ---       #206
      0100D879H   LINE      CODE     ---       #207
      0100D88DH   LINE      CODE     ---       #209
      0100D88DH   LINE      CODE     ---       #210
      0100D899H   LINE      CODE     ---       #211
      0100D89CH   LINE      CODE     ---       #217
      ---         BLOCKEND  ---      ---       LVL=0

      ---         MODULE    ---      ---       A3A8
      0100DCC6H   PUBLIC    CODE     ---       _?Authenticate_GSM
      01005DFCH   PUBLIC    CODE     ---       _?auth_A3A8
      000000A8H   SFRSYM    DATA     BYTE      IE
      00000088H   SFRSYM    DATA     BYTE      TCON
      000000C0H   SFRSYM    DATA     BYTE      DESCTL
      000000E8H   SFRSYM    DATA     BYTE      FL_STS
      000000D8H   SFRSYM    DATA     BYTE      USR
      0100FEECH   SYMBOL    CONST    ---       table
      0100FB0CH   SYMBOL    CONST    ---       table_0
      0100FD0CH   SYMBOL    CONST    ---       table_1
      0100FE0CH   SYMBOL    CONST    ---       table_2
      0100FE8CH   SYMBOL    CONST    ---       table_3
      0100FECCH   SYMBOL    CONST    ---       table_4

      0100D21EH   BLOCK     CODE     ---       LVL=0
      ---         BLOCKEND  ---      ---       LVL=0

      01005DFCH   BLOCK     CODE     ---       LVL=0
      00000012H   SYMBOL    XSTK     ---       rand
      00000015H   SYMBOL    XSTK     ---       key
      00000018H   SYMBOL    XSTK     ---       simoutput
      00000000H   SYMBOL    XSTK     WORD      i
      00000002H   SYMBOL    XSTK     WORD      j
      00000004H   SYMBOL    XSTK     WORD      k
      00000006H   SYMBOL    XSTK     WORD      l
      00000008H   SYMBOL    XSTK     WORD      m
      0000000AH   SYMBOL    XSTK     WORD      n
      0000000CH   SYMBOL    XSTK     WORD      y
      0000000EH   SYMBOL    XSTK     WORD      z
      00000010H   SYMBOL    XSTK     WORD      next_bt
      01005DFCH   LINE      CODE     ---       #155
      01005E05H   LINE      CODE     ---       #164
      01005E1DH   LINE      CODE     ---       #165
      01005E3EH   LINE      CODE     ---       #168
      01005E58H   LINE      CODE     ---       #170
      01005E6CH   LINE      CODE     ---       #171
      01005E89H   LINE      CODE     ---       #173
      01005EA0H   LINE      CODE     ---       #174
      01005EC2H   LINE      CODE     ---       #175
      01005EF5H   LINE      CODE     ---       #176
      01005F23H   LINE      CODE     ---       #177
      01005F46H   LINE      CODE     ---       #178
      01005F83H   LINE      CODE     ---       #179
      01005FC4H   LINE      CODE     ---       #180
      01006011H   LINE      CODE     ---       #181
      01006041H   LINE      CODE     ---       #182
      0100605BH   LINE      CODE     ---       #184
      0100606FH   LINE      CODE     ---       #185
      01006080H   LINE      CODE     ---       #186
      010060D7H   LINE      CODE     ---       #188
      010060E9H   LINE      CODE     ---       #189
      01006101H   LINE      CODE     ---       #190
      0100610DH   LINE      CODE     ---       #191
LX51 LINKER/LOCATER V3.51                                                             01/27/2014  09:14:18  PAGE 82


      0100611CH   LINE      CODE     ---       #192
      0100614EH   LINE      CODE     ---       #193
      0100618BH   LINE      CODE     ---       #194
      01006190H   LINE      CODE     ---       #195
      0100619BH   LINE      CODE     ---       #196
      010061A4H   LINE      CODE     ---       #207
      010061BBH   LINE      CODE     ---       #208
      010061ECH   LINE      CODE     ---       #209
      01006203H   LINE      CODE     ---       #210
      0100626AH   LINE      CODE     ---       #212
      0100628CH   LINE      CODE     ---       #213
      01006293H   LINE      CODE     ---       #217
      01006295H   LINE      CODE     ---       #218
      ---         BLOCKEND  ---      ---       LVL=0

      0100DCC6H   BLOCK     CODE     ---       LVL=0
      00000019H   SYMBOL    XSTK     ---       rand
      0000001CH   SYMBOL    XSTK     ---       output
      00000000H   SYMBOL    XSTK     ---       auth_fs
      00000008H   SYMBOL    XSTK     BYTE      len
      00000009H   SYMBOL    XSTK     ---       key
      0100DCC6H   LINE      CODE     ---       #447
      0100DCCFH   LINE      CODE     ---       #451
      0100DCD4H   LINE      CODE     ---       #454
      0100DCDFH   LINE      CODE     ---       #455
      0100DCEBH   LINE      CODE     ---       #456
      0100DCFBH   LINE      CODE     ---       #457
      0100DD28H   LINE      CODE     ---       #460
      0100DD45H   LINE      CODE     ---       #463
      0100DD45H   LINE      CODE     ---       #465
      0100DD4AH   LINE      CODE     ---       #466
      ---         BLOCKEND  ---      ---       LVL=0

      ---         MODULE    ---      ---       CRC
      0100CC6EH   PUBLIC    CODE     ---       _?FileCRC32
      0100E877H   PUBLIC    CODE     ---       _?CalCRC32
      000000A8H   SFRSYM    DATA     BYTE      IE
      00000088H   SFRSYM    DATA     BYTE      TCON
      000000C0H   SFRSYM    DATA     BYTE      DESCTL
      000000E8H   SFRSYM    DATA     BYTE      FL_STS
      000000D8H   SFRSYM    DATA     BYTE      USR
      0100D2D3H   SYMBOL    CODE     ---       _?lGenCRC32

      0100EEF2H   BLOCK     CODE     ---       LVL=0
      ---         BLOCKEND  ---      ---       LVL=0

      0100D2D3H   BLOCK     CODE     ---       LVL=0
      00000005H   SYMBOL    XSTK     DWORD     lOldCRC
      00000009H   SYMBOL    XSTK     BYTE      ByteVal
      00000000H   SYMBOL    XSTK     DWORD     TabVal
      00000004H   SYMBOL    XSTK     BYTE      j
      0100D2D3H   LINE      CODE     ---       #7
      0100D2E2H   LINE      CODE     ---       #10
      0100D304H   LINE      CODE     ---       #11
      0100D313H   LINE      CODE     ---       #12
      0100D324H   LINE      CODE     ---       #13
      0100D342H   LINE      CODE     ---       #14
      0100D344H   LINE      CODE     ---       #15
      0100D35AH   LINE      CODE     ---       #16
      0100D35AH   LINE      CODE     ---       #17
      0100D362H   LINE      CODE     ---       #18
      0100D37BH   LINE      CODE     ---       #19
      ---         BLOCKEND  ---      ---       LVL=0

      0100E877H   BLOCK     CODE     ---       LVL=0
LX51 LINKER/LOCATER V3.51                                                             01/27/2014  09:14:18  PAGE 83


      00000006H   SYMBOL    XSTK     ---       SrcAddr
      00000009H   SYMBOL    XSTK     WORD      length
      00000000H   SYMBOL    XSTK     DWORD     crc32
      00000004H   SYMBOL    XSTK     WORD      ii
      0100E877H   LINE      CODE     ---       #22
      0100E880H   LINE      CODE     ---       #25
      0100E88AH   LINE      CODE     ---       #26
      0100E8A1H   LINE      CODE     ---       #27
      0100E8C7H   LINE      CODE     ---       #28
      0100E8D6H   LINE      CODE     ---       #29
      0100E8DCH   LINE      CODE     ---       #30
      ---         BLOCKEND  ---      ---       LVL=0

      0100CC6EH   BLOCK     CODE     ---       LVL=0
      00000017H   SYMBOL    XSTK     ---       handle
      0000001AH   SYMBOL    XSTK     WORD      length
      0000001CH   SYMBOL    XSTK     WORD      offset
      00000000H   SYMBOL    XSTK     DWORD     crc32
      00000004H   SYMBOL    XSTK     WORD      ii
      00000006H   SYMBOL    XSTK     BYTE      jj
      00000007H   SYMBOL    XSTK     ---       buffer
      0100CC6EH   LINE      CODE     ---       #34
      0100CC77H   LINE      CODE     ---       #39
      0100CC81H   LINE      CODE     ---       #40
      0100CC9CH   LINE      CODE     ---       #41
      0100CCD2H   LINE      CODE     ---       #42
      0100CCFFH   LINE      CODE     ---       #43
      0100CD1BH   LINE      CODE     ---       #44
      0100CD23H   LINE      CODE     ---       #45
      0100CD30H   LINE      CODE     ---       #46
      0100CD3FH   LINE      CODE     ---       #47
      0100CD45H   LINE      CODE     ---       #48
      ---         BLOCKEND  ---      ---       LVL=0

      ---         MODULE    ---      ---       MEM
      010089E6H   PUBLIC    CODE     ---       _?ls_printf
      000000A8H   SFRSYM    DATA     BYTE      IE
      00000088H   SFRSYM    DATA     BYTE      TCON
      000000C0H   SFRSYM    DATA     BYTE      DESCTL
      000000E8H   SFRSYM    DATA     BYTE      FL_STS
      000000D8H   SFRSYM    DATA     BYTE      USR

      0100E12FH   BLOCK     CODE     ---       LVL=0
      ---         BLOCKEND  ---      ---       LVL=0

      010089E6H   BLOCK     CODE     ---       LVL=0
      00000013H   SYMBOL    XSTK     ---       ptr
      00000016H   SYMBOL    XSTK     ---       fmt
      00000000H   SYMBOL    XSTK     ---       arg_ptr
      00000003H   SYMBOL    XSTK     BYTE      p
      00000004H   SYMBOL    XSTK     ---       buf
      00000007H   SYMBOL    XSTK     ---       buffer
      0000000DH   SYMBOL    XSTK     WORD      i
      0000000FH   SYMBOL    XSTK     WORD      j
      00000011H   SYMBOL    XSTK     WORD      k
      010089E6H   LINE      CODE     ---       #83
      010089F5H   LINE      CODE     ---       #88
      01008A09H   LINE      CODE     ---       #90
      01008A22H   LINE      CODE     ---       #91
      01008A39H   LINE      CODE     ---       #92
      01008A4BH   LINE      CODE     ---       #93
      01008A4BH   LINE      CODE     ---       #94
      01008A54H   LINE      CODE     ---       #95
      01008A74H   LINE      CODE     ---       #96
      01008A74H   LINE      CODE     ---       #97
LX51 LINKER/LOCATER V3.51                                                             01/27/2014  09:14:18  PAGE 84


      01008A74H   LINE      CODE     ---       #98
      01008A8AH   LINE      CODE     ---       #99
      01008AABH   LINE      CODE     ---       #100
      01008AC0H   LINE      CODE     ---       #101
      01008AC8H   LINE      CODE     ---       #102
      01008ACBH   LINE      CODE     ---       #103
      01008ACBH   LINE      CODE     ---       #104
      01008ACBH   LINE      CODE     ---       #105
      01008ADCH   LINE      CODE     ---       #106
      01008ADFH   LINE      CODE     ---       #107
      01008ADFH   LINE      CODE     ---       #108
      01008ADFH   LINE      CODE     ---       #110
      01008AF5H   LINE      CODE     ---       #111
      01008AFAH   LINE      CODE     ---       #112
      01008B22H   LINE      CODE     ---       #113
      01008B65H   LINE      CODE     ---       #114
      01008B9CH   LINE      CODE     ---       #115
      01008BD3H   LINE      CODE     ---       #116
      01008BDCH   LINE      CODE     ---       #119
      01008BDEH   LINE      CODE     ---       #120
      01008BDEH   LINE      CODE     ---       #121
      01008BE6H   LINE      CODE     ---       #122
      01008BEFH   LINE      CODE     ---       #123
      01008BF1H   LINE      CODE     ---       #125
      01008BF1H   LINE      CODE     ---       #126
      01008BF1H   LINE      CODE     ---       #127
      01008BF1H   LINE      CODE     ---       #128
      01008BFAH   LINE      CODE     ---       #129
      01008C07H   LINE      CODE     ---       #130
      01008C07H   LINE      CODE     ---       #131
      01008C0CH   LINE      CODE     ---       #132
      01008C0EH   LINE      CODE     ---       #133
      01008C0EH   LINE      CODE     ---       #134
      01008C13H   LINE      CODE     ---       #135
      01008C15H   LINE      CODE     ---       #136
      01008C15H   LINE      CODE     ---       #137
      01008C1DH   LINE      CODE     ---       #138
      01008C21H   LINE      CODE     ---       #139
      01008C23H   LINE      CODE     ---       #140
      01008C23H   LINE      CODE     ---       #141
      01008C23H   LINE      CODE     ---       #142
      01008C23H   LINE      CODE     ---       #143
      01008C2EH   LINE      CODE     ---       #144
      01008C31H   LINE      CODE     ---       #145
      01008C31H   LINE      CODE     ---       #146
      01008C31H   LINE      CODE     ---       #147
      01008C3CH   LINE      CODE     ---       #149
      ---         BLOCKEND  ---      ---       LVL=0

      ---         MODULE    ---      ---       ALGORITHM
      0100D4D7H   PUBLIC    CODE     ---       _?KMP_search
      0100C8A5H   PUBLIC    CODE     ---       _?KMP_preprocess
      000000A8H   SFRSYM    DATA     BYTE      IE
      00000088H   SFRSYM    DATA     BYTE      TCON
      000000C0H   SFRSYM    DATA     BYTE      DESCTL
      000000E8H   SFRSYM    DATA     BYTE      FL_STS
      000000D8H   SFRSYM    DATA     BYTE      USR

      0100E9AFH   BLOCK     CODE     ---       LVL=0
      ---         BLOCKEND  ---      ---       LVL=0

      0100C8A5H   BLOCK     CODE     ---       LVL=0
      00000004H   SYMBOL    XSTK     ---       x
      00000007H   SYMBOL    XSTK     BYTE      m
      00000008H   SYMBOL    XSTK     ---       kmpNext
LX51 LINKER/LOCATER V3.51                                                             01/27/2014  09:14:18  PAGE 85


      00000000H   SYMBOL    XSTK     WORD      i
      00000002H   SYMBOL    XSTK     WORD      j
      0100C8A5H   LINE      CODE     ---       #5
      0100C8B0H   LINE      CODE     ---       #8
      0100C8B7H   LINE      CODE     ---       #9
      0100C8CBH   LINE      CODE     ---       #10
      0100C8DDH   LINE      CODE     ---       #11
      0100C902H   LINE      CODE     ---       #12
      0100C920H   LINE      CODE     ---       #13
      0100C926H   LINE      CODE     ---       #14
      0100C92CH   LINE      CODE     ---       #15
      0100C948H   LINE      CODE     ---       #16
      0100C975H   LINE      CODE     ---       #18
      0100C997H   LINE      CODE     ---       #19
      0100C99AH   LINE      CODE     ---       #20
      ---         BLOCKEND  ---      ---       LVL=0

      0100D4D7H   BLOCK     CODE     ---       LVL=0
      00000004H   SYMBOL    XSTK     ---       x
      00000007H   SYMBOL    XSTK     ---       kmpNext
      0000000AH   SYMBOL    XSTK     BYTE      m
      0000000BH   SYMBOL    XSTK     ---       y
      0000000EH   SYMBOL    XSTK     BYTE      n
      00000000H   SYMBOL    XSTK     WORD      i
      00000002H   SYMBOL    XSTK     WORD      j
      0100D4D7H   LINE      CODE     ---       #24
      0100D4DAH   LINE      CODE     ---       #32
      0100D4E9H   LINE      CODE     ---       #33
      0100D4FAH   LINE      CODE     ---       #34
      0100D528H   LINE      CODE     ---       #35
      0100D542H   LINE      CODE     ---       #36
      0100D544H   LINE      CODE     ---       #37
      0100D54AH   LINE      CODE     ---       #38
      0100D550H   LINE      CODE     ---       #39
      0100D566H   LINE      CODE     ---       #42
      0100D573H   LINE      CODE     ---       #43
      0100D573H   LINE      CODE     ---       #44
      0100D573H   LINE      CODE     ---       #45
      0100D573H   LINE      CODE     ---       #47
      0100D577H   LINE      CODE     ---       #48
      ---         BLOCKEND  ---      ---       LVL=0

      ---         MODULE    ---      ---       IOMAN
      020006D1H   PUBLIC    XDATA    WORD      maze_cache_paddr
      020006CFH   PUBLIC    XDATA    WORD      maze_cache_laddr
      020006CDH   PUBLIC    XDATA    WORD      _maze_map_base_addr
      0100EA73H   PUBLIC    CODE     ---       _?ioman_transmit
      0100FA67H   PUBLIC    CODE     ---       _ioman_write_pos
      0100FAF9H   PUBLIC    CODE     ---       ioman_set_to_bootloader
      0100AFFAH   PUBLIC    CODE     ---       _?ioman_program_copy
      0100C38EH   PUBLIC    CODE     ---       _?ioman_write_program
      0100F9EFH   PUBLIC    CODE     ---       _ioman_erase_page
      01001817H   PUBLIC    CODE     ---       _?ioman_write_buffer
      0100956FH   PUBLIC    CODE     ---       _?ioman_read_buffer
      0100DC33H   PUBLIC    CODE     ---       _?maze_find_empty_sector
      0100D765H   PUBLIC    CODE     ---       _?maze_log2phys
      0100BF1CH   PUBLIC    CODE     ---       _?maze_init
      0100F18CH   PUBLIC    CODE     ---       ioman_erase_all
      0100FAA9H   PUBLIC    CODE     ---       _?ioman_init
      000000A8H   SFRSYM    DATA     BYTE      IE
      00000088H   SFRSYM    DATA     BYTE      TCON
      000000C3H   SFRSYM    DATA     BYTE      MMU_SEL
      000000C0H   SFRSYM    DATA     BYTE      DESCTL
      000000E8H   SFRSYM    DATA     BYTE      FL_STS
      00000090H   SFRSYM    DATA     BYTE      rP1
LX51 LINKER/LOCATER V3.51                                                             01/27/2014  09:14:18  PAGE 86


      000000B0H   SFRSYM    DATA     BYTE      rP3
      000000D8H   SFRSYM    DATA     BYTE      USR

      0100FAA9H   BLOCK     CODE     ---       LVL=0
      0100FAA9H   LINE      CODE     ---       #35
      0100FAA9H   LINE      CODE     ---       #44
      0100FAACH   LINE      CODE     ---       #45
      0100FAAFH   LINE      CODE     ---       #46
      0100FAB2H   LINE      CODE     ---       #47
      0100FAB5H   LINE      CODE     ---       #48
      ---         BLOCKEND  ---      ---       LVL=0

      0100F18CH   BLOCK     CODE     ---       LVL=0
      020006E0H   SYMBOL    XDATA    WORD      address
      0100F18CH   LINE      CODE     ---       #98
      0100F18CH   LINE      CODE     ---       #100
      0100F1A1H   LINE      CODE     ---       #101
      0100F1ACH   LINE      CODE     ---       #102
      0100F1B9H   LINE      CODE     ---       #103
      0100F1C0H   LINE      CODE     ---       #104
      0100F1CAH   LINE      CODE     ---       #105
      ---         BLOCKEND  ---      ---       LVL=0

      0100BF1CH   BLOCK     CODE     ---       LVL=0
      00000000H   SYMBOL    XSTK     WORD      sector_found
      00000002H   SYMBOL    XSTK     WORD      base_addr
      00000004H   SYMBOL    XSTK     BYTE      cur_cntr
      00000007H   SYMBOL    XSTK     ---       mark
      0100BF1CH   LINE      CODE     ---       #107
      0100BF22H   LINE      CODE     ---       #108
      0100BF2FH   LINE      CODE     ---       #109
      0100BF3CH   LINE      CODE     ---       #110
      0100BF45H   LINE      CODE     ---       #112
      0100BF45H   LINE      CODE     ---       #113
      0100BF73H   LINE      CODE     ---       #114
      0100BF83H   LINE      CODE     ---       #115
      0100BF9AH   LINE      CODE     ---       #116
      0100BFB2H   LINE      CODE     ---       #117
      0100BFC2H   LINE      CODE     ---       #118
      0100BFC4H   LINE      CODE     ---       #119
      0100BFDDH   LINE      CODE     ---       #120
      0100BFF5H   LINE      CODE     ---       #121
      0100C005H   LINE      CODE     ---       #122
      0100C005H   LINE      CODE     ---       #123
      0100C005H   LINE      CODE     ---       #124
      0100C005H   LINE      CODE     ---       #125
      0100C015H   LINE      CODE     ---       #126
      0100C029H   LINE      CODE     ---       #135
      0100C03CH   LINE      CODE     ---       #137
      ---         BLOCKEND  ---      ---       LVL=0

      0100D765H   BLOCK     CODE     ---       LVL=0
      00000004H   SYMBOL    XSTK     WORD      laddr
      00000000H   SYMBOL    XSTK     WORD      l_sector
      00000002H   SYMBOL    XSTK     WORD      sector_found
      0100D765H   LINE      CODE     ---       #139
      0100D776H   LINE      CODE     ---       #170
      0100D793H   LINE      CODE     ---       #171
      0100D7A2H   LINE      CODE     ---       #172
      0100D7B4H   LINE      CODE     ---       #173
      0100D7F1H   LINE      CODE     ---       #174
      0100D7F1H   LINE      CODE     ---       #175
      0100D7FEH   LINE      CODE     ---       #176
      ---         BLOCKEND  ---      ---       LVL=0

LX51 LINKER/LOCATER V3.51                                                             01/27/2014  09:14:18  PAGE 87


      0100DC33H   BLOCK     CODE     ---       LVL=0
      020006CBH   SYMBOL    XDATA    WORD      _maze_base_addr
      00000000H   SYMBOL    XSTK     WORD      base_addr
      00000005H   SYMBOL    XSTK     ---       mark
      0100DC33H   LINE      CODE     ---       #178
      0100DC39H   LINE      CODE     ---       #181
      0100DC44H   LINE      CODE     ---       #183
      0100DC44H   LINE      CODE     ---       #184
      0100DC6FH   LINE      CODE     ---       #185
      0100DC89H   LINE      CODE     ---       #186
      0100DC93H   LINE      CODE     ---       #187
      0100DC93H   LINE      CODE     ---       #188
      0100DCA1H   LINE      CODE     ---       #189
      0100DCACH   LINE      CODE     ---       #190
      0100DCBBH   LINE      CODE     ---       #191
      0100DCBFH   LINE      CODE     ---       #192
      ---         BLOCKEND  ---      ---       LVL=0

      0100956FH   BLOCK     CODE     ---       LVL=0
      0000000AH   SYMBOL    XSTK     WORD      pos
      0000000CH   SYMBOL    XSTK     ---       bytes
      0000000FH   SYMBOL    XSTK     WORD      length
      00000000H   SYMBOL    XSTK     WORD      paddr
      00000002H   SYMBOL    XSTK     WORD      base_addr
      00000004H   SYMBOL    XSTK     WORD      bytes_read
      00000006H   SYMBOL    XSTK     WORD      offset
      00000008H   SYMBOL    XSTK     WORD      p_offset
      0100956FH   LINE      CODE     ---       #194
      01009589H   LINE      CODE     ---       #216
      01009594H   LINE      CODE     ---       #218
      010095AAH   LINE      CODE     ---       #219
      010095C7H   LINE      CODE     ---       #220
      010095C7H   LINE      CODE     ---       #221
      010095E0H   LINE      CODE     ---       #222
      010095FFH   LINE      CODE     ---       #223
      01009620H   LINE      CODE     ---       #224
      01009652H   LINE      CODE     ---       #225
      01009669H   LINE      CODE     ---       #226
      01009686H   LINE      CODE     ---       #227
      010096C6H   LINE      CODE     ---       #228
      010096C9H   LINE      CODE     ---       #229
      01009709H   LINE      CODE     ---       #230
      01009714H   LINE      CODE     ---       #231
      0100972BH   LINE      CODE     ---       #232
      01009755H   LINE      CODE     ---       #233
      0100976CH   LINE      CODE     ---       #234
      0100976FH   LINE      CODE     ---       #235
      0100976FH   LINE      CODE     ---       #236
      ---         BLOCKEND  ---      ---       LVL=0

      01001817H   BLOCK     CODE     ---       LVL=0
      00000010H   SYMBOL    XSTK     WORD      pos
      00000012H   SYMBOL    XSTK     ---       bytes
      00000015H   SYMBOL    XSTK     WORD      length
      00000000H   SYMBOL    XSTK     WORD      status
      00000002H   SYMBOL    XSTK     WORD      paddr
      00000004H   SYMBOL    XSTK     WORD      base_laddr
      00000006H   SYMBOL    XSTK     WORD      bytes_write
      00000008H   SYMBOL    XSTK     WORD      base_paddr
      0000000AH   SYMBOL    XSTK     WORD      new_base_paddr
      0000000CH   SYMBOL    XSTK     WORD      l_offset
      0000000EH   SYMBOL    XSTK     WORD      p_offset
      01001817H   LINE      CODE     ---       #240
      01001831H   LINE      CODE     ---       #264
      0100183DH   LINE      CODE     ---       #265
LX51 LINKER/LOCATER V3.51                                                             01/27/2014  09:14:18  PAGE 88


      0100184AH   LINE      CODE     ---       #268
      01001860H   LINE      CODE     ---       #269
      01001860H   LINE      CODE     ---       #270
      0100187BH   LINE      CODE     ---       #271
      01001898H   LINE      CODE     ---       #272
      010018B7H   LINE      CODE     ---       #273
      010018CEH   LINE      CODE     ---       #274
      010018DDH   LINE      CODE     ---       #275
      010018F7H   LINE      CODE     ---       #276
      010018FDH   LINE      CODE     ---       #277
      01001903H   LINE      CODE     ---       #278
      01001911H   LINE      CODE     ---       #279
      01001913H   LINE      CODE     ---       #280
      01001931H   LINE      CODE     ---       #281
      0100194FH   LINE      CODE     ---       #282
      0100196FH   LINE      CODE     ---       #283
      0100196FH   LINE      CODE     ---       #284
      0100199FH   LINE      CODE     ---       #285
      010019ADH   LINE      CODE     ---       #286
      010019D6H   LINE      CODE     ---       #287
      010019F0H   LINE      CODE     ---       #288
      01001A10H   LINE      CODE     ---       #289
      01001A38H   LINE      CODE     ---       #290
      01001A87H   LINE      CODE     ---       #292
      01001A90H   LINE      CODE     ---       #293
      01001A95H   LINE      CODE     ---       #294
      01001A97H   LINE      CODE     ---       #295
      01001A9DH   LINE      CODE     ---       #296
      01001A9DH   LINE      CODE     ---       #297
      01001ABCH   LINE      CODE     ---       #298
      01001ADFH   LINE      CODE     ---       #301
      01001AFDH   LINE      CODE     ---       #302
      01001B16H   LINE      CODE     ---       #303
      01001B39H   LINE      CODE     ---       #304
      01001B39H   LINE      CODE     ---       #307
      01001B56H   LINE      CODE     ---       #308
      01001B68H   LINE      CODE     ---       #309
      01001B77H   LINE      CODE     ---       #310
      01001B91H   LINE      CODE     ---       #311
      01001B97H   LINE      CODE     ---       #312
      01001B9DH   LINE      CODE     ---       #314
      01001B9FH   LINE      CODE     ---       #315
      01001BBCH   LINE      CODE     ---       #316
      01001BBCH   LINE      CODE     ---       #317
      01001BE8H   LINE      CODE     ---       #318
      01001BF6H   LINE      CODE     ---       #320
      01001BFFH   LINE      CODE     ---       #321
      01001C04H   LINE      CODE     ---       #322
      01001C06H   LINE      CODE     ---       #323
      01001C0CH   LINE      CODE     ---       #324
      01001C0CH   LINE      CODE     ---       #325
      01001C2BH   LINE      CODE     ---       #326
      01001C4EH   LINE      CODE     ---       #327
      01001C61H   LINE      CODE     ---       #328
      01001C74H   LINE      CODE     ---       #329
      01001C92H   LINE      CODE     ---       #330
      01001CABH   LINE      CODE     ---       #331
      01001CCEH   LINE      CODE     ---       #332
      01001CCEH   LINE      CODE     ---       #335
      01001CD9H   LINE      CODE     ---       #336
      01001CDCH   LINE      CODE     ---       #337
      01001D04H   LINE      CODE     ---       #338
      01001D53H   LINE      CODE     ---       #340
      01001D5CH   LINE      CODE     ---       #341
      01001D61H   LINE      CODE     ---       #342
LX51 LINKER/LOCATER V3.51                                                             01/27/2014  09:14:18  PAGE 89


      01001D63H   LINE      CODE     ---       #343
      01001D69H   LINE      CODE     ---       #344
      01001D69H   LINE      CODE     ---       #345
      01001D88H   LINE      CODE     ---       #346
      01001DABH   LINE      CODE     ---       #347
      01001DC4H   LINE      CODE     ---       #348
      01001DE7H   LINE      CODE     ---       #351
      01001E04H   LINE      CODE     ---       #352
      01001E16H   LINE      CODE     ---       #353
      01001E25H   LINE      CODE     ---       #354
      01001E3FH   LINE      CODE     ---       #355
      01001E45H   LINE      CODE     ---       #356
      01001E4BH   LINE      CODE     ---       #357
      01001E56H   LINE      CODE     ---       #358
      01001E58H   LINE      CODE     ---       #359
      01001E75H   LINE      CODE     ---       #360
      01001E75H   LINE      CODE     ---       #361
      01001EA1H   LINE      CODE     ---       #362
      01001EAFH   LINE      CODE     ---       #364
      01001EB8H   LINE      CODE     ---       #365
      01001EBDH   LINE      CODE     ---       #366
      01001EBFH   LINE      CODE     ---       #367
      01001EC5H   LINE      CODE     ---       #368
      01001EC5H   LINE      CODE     ---       #369
      01001EE4H   LINE      CODE     ---       #370
      01001F07H   LINE      CODE     ---       #371
      01001F1AH   LINE      CODE     ---       #372
      01001F2DH   LINE      CODE     ---       #373
      01001F4BH   LINE      CODE     ---       #374
      01001F64H   LINE      CODE     ---       #375
      01001F86H   LINE      CODE     ---       #376
      01001F86H   LINE      CODE     ---       #379
      01001F91H   LINE      CODE     ---       #380
      01001FA8H   LINE      CODE     ---       #381
      01001FD2H   LINE      CODE     ---       #382
      01001FE9H   LINE      CODE     ---       #383
      01001FECH   LINE      CODE     ---       #384
      01001FECH   LINE      CODE     ---       #386
      01001FF7H   LINE      CODE     ---       #387
      ---         BLOCKEND  ---      ---       LVL=0

      0100F9EFH   BLOCK     CODE     ---       LVL=0
      020006E2H   SYMBOL    XDATA    WORD      pos
      0100F9EFH   LINE      CODE     ---       #389
      0100F9F7H   LINE      CODE     ---       #402
      0100FA02H   LINE      CODE     ---       #403
      ---         BLOCKEND  ---      ---       LVL=0

      0100C38EH   BLOCK     CODE     ---       LVL=0
      00000002H   SYMBOL    XSTK     WORD      pos
      00000004H   SYMBOL    XSTK     ---       bytes
      00000006H   SYMBOL    XSTK     WORD      length
      00000000H   SYMBOL    XSTK     WORD      ptr
      0100C38EH   LINE      CODE     ---       #405
      0100C3B5H   LINE      CODE     ---       #409
      0100C401H   LINE      CODE     ---       #410
      0100C401H   LINE      CODE     ---       #411
      0100C401H   LINE      CODE     ---       #412
      0100C404H   LINE      CODE     ---       #413
      0100C407H   LINE      CODE     ---       #414
      0100C427H   LINE      CODE     ---       #415
      0100C429H   LINE      CODE     ---       #416
      0100C429H   LINE      CODE     ---       #417
      0100C429H   LINE      CODE     ---       #418
      0100C429H   LINE      CODE     ---       #419
LX51 LINKER/LOCATER V3.51                                                             01/27/2014  09:14:18  PAGE 90


      0100C429H   LINE      CODE     ---       #420
      0100C429H   LINE      CODE     ---       #421
      0100C429H   LINE      CODE     ---       #422
      0100C42CH   LINE      CODE     ---       #423
      0100C444H   LINE      CODE     ---       #424
      0100C446H   LINE      CODE     ---       #425
      0100C446H   LINE      CODE     ---       #426
      0100C446H   LINE      CODE     ---       #427
      0100C446H   LINE      CODE     ---       #428
      0100C446H   LINE      CODE     ---       #429
      0100C446H   LINE      CODE     ---       #430
      0100C446H   LINE      CODE     ---       #431
      0100C446H   LINE      CODE     ---       #432
      0100C446H   LINE      CODE     ---       #433
      0100C446H   LINE      CODE     ---       #434
      0100C449H   LINE      CODE     ---       #435
      0100C44CH   LINE      CODE     ---       #436
      0100C464H   LINE      CODE     ---       #437
      0100C464H   LINE      CODE     ---       #438
      0100C464H   LINE      CODE     ---       #439
      0100C491H   LINE      CODE     ---       #440
      0100C495H   LINE      CODE     ---       #441
      ---         BLOCKEND  ---      ---       LVL=0

      0100AFFAH   BLOCK     CODE     ---       LVL=0
      00000000H   SYMBOL    XSTK     WORD      dest
      00000002H   SYMBOL    XSTK     WORD      src
      00000004H   SYMBOL    XSTK     WORD      length
      0100AFFAH   LINE      CODE     ---       #443
      0100B01BH   LINE      CODE     ---       #444
      0100B039H   LINE      CODE     ---       #445
      0100B059H   LINE      CODE     ---       #446
      0100B077H   LINE      CODE     ---       #447
      0100B07AH   LINE      CODE     ---       #448
      0100B07DH   LINE      CODE     ---       #449
      0100B08FH   LINE      CODE     ---       #450
      0100B0DAH   LINE      CODE     ---       #451
      0100B10CH   LINE      CODE     ---       #452
      0100B146H   LINE      CODE     ---       #453
      0100B157H   LINE      CODE     ---       #454
      0100B15BH   LINE      CODE     ---       #455
      ---         BLOCKEND  ---      ---       LVL=0

      0100FAF9H   BLOCK     CODE     ---       LVL=0
      0100FAF9H   LINE      CODE     ---       #457
      0100FAF9H   LINE      CODE     ---       #458
      0100FAFCH   LINE      CODE     ---       #459
      ---         BLOCKEND  ---      ---       LVL=0

      0100FA67H   BLOCK     CODE     ---       LVL=0
      020006D9H   SYMBOL    XDATA    WORD      pos
      020006DBH   SYMBOL    XDATA    CHAR      byte
      0100FA67H   LINE      CODE     ---       #461
      0100FA74H   LINE      CODE     ---       #462
      0100FA74H   LINE      CODE     ---       #468
      ---         BLOCKEND  ---      ---       LVL=0

      0100EA73H   BLOCK     CODE     ---       LVL=0
      00000000H   SYMBOL    XSTK     BYTE      size
      00000001H   SYMBOL    XSTK     BYTE      ins
      00000002H   SYMBOL    XSTK     ---       buffer
      00000005H   SYMBOL    XSTK     WORD      status
      0100EA73H   LINE      CODE     ---       #473
      0100EA8CH   LINE      CODE     ---       #484
      0100EA9AH   LINE      CODE     ---       #485
LX51 LINKER/LOCATER V3.51                                                             01/27/2014  09:14:18  PAGE 91


      0100EAA6H   LINE      CODE     ---       #486
      0100EABEH   LINE      CODE     ---       #487
      0100EABEH   LINE      CODE     ---       #488
      0100EACCH   LINE      CODE     ---       #489
      ---         BLOCKEND  ---      ---       LVL=0

      ---         MODULE    ---      ---       FLASH
      020006E4H   PUBLIC    XDATA    WORD      temp_pos
      0100ED42H   PUBLIC    CODE     ---       _?flash_erase
      0100E809H   PUBLIC    CODE     ---       _?flash_write
      0100EBEFH   PUBLIC    CODE     ---       _?flash_read
      000000A8H   SFRSYM    DATA     BYTE      IE
      00000088H   SFRSYM    DATA     BYTE      TCON
      000000C3H   SFRSYM    DATA     BYTE      MMU_SEL
      000000C0H   SFRSYM    DATA     BYTE      DESCTL
      000000E8H   SFRSYM    DATA     BYTE      FL_STS
      000000B0H   SFRSYM    DATA     BYTE      rP3
      000000D8H   SFRSYM    DATA     BYTE      USR

      0100F4F7H   BLOCK     CODE     ---       LVL=0
      ---         BLOCKEND  ---      ---       LVL=0

      0100EBEFH   BLOCK     CODE     ---       LVL=0
      00000000H   SYMBOL    XSTK     WORD      pos
      00000002H   SYMBOL    XSTK     ---       bytes
      00000005H   SYMBOL    XSTK     WORD      length
      0100EBEFH   LINE      CODE     ---       #8
      0100EBFCH   LINE      CODE     ---       #10
      0100EBFCH   LINE      CODE     ---       #26
      0100EC05H   LINE      CODE     ---       #27
      0100EC08H   LINE      CODE     ---       #29
      0100EC0AH   LINE      CODE     ---       #30
      0100EC0DH   LINE      CODE     ---       #32
      0100EC0DH   LINE      CODE     ---       #34
      0100EC45H   LINE      CODE     ---       #37
      ---         BLOCKEND  ---      ---       LVL=0

      0100E809H   BLOCK     CODE     ---       LVL=0
      00000001H   SYMBOL    XSTK     WORD      pos
      00000003H   SYMBOL    XSTK     ---       bytes
      00000000H   SYMBOL    XSTK     BYTE      cntr
      0100E809H   LINE      CODE     ---       #39
      0100E80CH   LINE      CODE     ---       #40
      0100E80CH   LINE      CODE     ---       #41
      0100E80CH   LINE      CODE     ---       #42
      0100E815H   LINE      CODE     ---       #43
      0100E818H   LINE      CODE     ---       #44
      0100E81EH   LINE      CODE     ---       #45
      0100E820H   LINE      CODE     ---       #46
      0100E823H   LINE      CODE     ---       #47
      0100E83AH   LINE      CODE     ---       #48
      0100E83AH   LINE      CODE     ---       #49
      0100E83AH   LINE      CODE     ---       #50
      0100E85CH   LINE      CODE     ---       #51
      0100E86DH   LINE      CODE     ---       #52
      0100E86DH   LINE      CODE     ---       #53
      0100E86DH   LINE      CODE     ---       #54
      0100E871H   LINE      CODE     ---       #55
      ---         BLOCKEND  ---      ---       LVL=0

      0100ED42H   BLOCK     CODE     ---       LVL=0
      00000001H   SYMBOL    XSTK     WORD      pos
      00000000H   SYMBOL    XSTK     BYTE      cntr
      0100ED42H   LINE      CODE     ---       #57
      0100ED42H   LINE      CODE     ---       #59
LX51 LINKER/LOCATER V3.51                                                             01/27/2014  09:14:18  PAGE 92


      0100ED42H   LINE      CODE     ---       #60
      0100ED42H   LINE      CODE     ---       #61
      0100ED4BH   LINE      CODE     ---       #62
      0100ED4EH   LINE      CODE     ---       #63
      0100ED52H   LINE      CODE     ---       #64
      0100ED54H   LINE      CODE     ---       #65
      0100ED57H   LINE      CODE     ---       #66
      0100ED62H   LINE      CODE     ---       #67
      0100ED62H   LINE      CODE     ---       #68
      0100ED62H   LINE      CODE     ---       #69
      0100ED75H   LINE      CODE     ---       #70
      0100ED86H   LINE      CODE     ---       #71
      0100ED86H   LINE      CODE     ---       #72
      0100ED86H   LINE      CODE     ---       #73
      0100ED8AH   LINE      CODE     ---       #74
      ---         BLOCKEND  ---      ---       LVL=0

      ---         MODULE    ---      ---       YGGDRASIL
      02000688H   PUBLIC    XDATA    ---       response_data
      02000687H   PUBLIC    XDATA    BYTE      sat_init_state
      0200067FH   PUBLIC    XDATA    ---       _ygg_fs
      0200067EH   PUBLIC    XDATA    BYTE      response_length
      0200067DH   PUBLIC    XDATA    BYTE      get_resp_length
      0200067CH   PUBLIC    XDATA    BYTE      _tres_cntr
      02000679H   PUBLIC    XDATA    ---       auth_token
      02000665H   PUBLIC    XDATA    ---       _os_config
      0200065DH   PUBLIC    XDATA    ---       stk_fs
      0100FF88H   PUBLIC    CONST    ---       auth_mask
      0100FF7FH   PUBLIC    CONST    ---       tokenkey
      0100FF76H   PUBLIC    CONST    ---       appkey
      0100F91BH   PUBLIC    CODE     ---       _?Auth_COMP128
      0100FAC3H   PUBLIC    CODE     ---       _?Load_Temp_Space
      0100EA12H   PUBLIC    CODE     ---       _?Write_Temp_Space
      0100F998H   PUBLIC    CODE     ---       _?Load_User_App
      0100FA58H   PUBLIC    CODE     ---       _?Save_State
      0100F952H   PUBLIC    CODE     ---       _?Load_State
      0100F7C3H   PUBLIC    CODE     ---       _?Get_Data
      0100F624H   PUBLIC    CODE     ---       _?Set_Response
      01005406H   PUBLIC    CODE     ---       _?Bifrost_Decode
      01002098H   PUBLIC    CODE     ---       _Yggdrasil_Decode
      0100EB33H   PUBLIC    CODE     ---       _?gsm_response
      01008E9BH   PUBLIC    CODE     ---       _?Send_Status
      0100F685H   PUBLIC    CODE     ---       _?Initialize_Operating_System
      0100FB09H   PUBLIC    CODE     ---       _?Initialize_Hardware
      000000A8H   SFRSYM    DATA     BYTE      IE
      00000088H   SFRSYM    DATA     BYTE      TCON
      000000C3H   SFRSYM    DATA     BYTE      MMU_SEL
      000000C0H   SFRSYM    DATA     BYTE      DESCTL
      000000E8H   SFRSYM    DATA     BYTE      FL_STS
      000000B0H   SFRSYM    DATA     BYTE      rP3
      000000D8H   SFRSYM    DATA     BYTE      USR

      0100769CH   BLOCK     CODE     ---       LVL=0
      ---         BLOCKEND  ---      ---       LVL=0

      0100FB09H   BLOCK     CODE     ---       LVL=0
      0100FB09H   LINE      CODE     ---       #101
      0100FB09H   LINE      CODE     ---       #109
      ---         BLOCKEND  ---      ---       LVL=0

      0100F685H   BLOCK     CODE     ---       LVL=0
      00000000H   SYMBOL    XDATA    WORD      sw
      0100F685H   LINE      CODE     ---       #112
      0100F688H   LINE      CODE     ---       #116
      0100F68BH   LINE      CODE     ---       #120
LX51 LINKER/LOCATER V3.51                                                             01/27/2014  09:14:18  PAGE 93


      0100F690H   LINE      CODE     ---       #121
      0100F693H   LINE      CODE     ---       #123
      0100F69BH   LINE      CODE     ---       #124
      0100F69BH   LINE      CODE     ---       #127
      0100F69BH   LINE      CODE     ---       #129
      0100F69BH   LINE      CODE     ---       #131
      0100F69EH   LINE      CODE     ---       #132
      0100F6A5H   LINE      CODE     ---       #134
      0100F6AFH   LINE      CODE     ---       #138
      0100F6AFH   LINE      CODE     ---       #140
      0100F6AFH   LINE      CODE     ---       #141
      ---         BLOCKEND  ---      ---       LVL=0

      01008E9BH   BLOCK     CODE     ---       LVL=0
      00000021H   SYMBOL    XSTK     BYTE      mode
      00000022H   SYMBOL    XSTK     ---       iso7816_buffer
      00000000H   SYMBOL    XSTK     ---       curfile
      00000005H   SYMBOL    XSTK     ---       temp_fs
      00000020H   SYMBOL    XSTK     ---       cf
      01008E9BH   LINE      CODE     ---       #149
      01008EA9H   LINE      CODE     ---       #150
      01008EB5H   LINE      CODE     ---       #153
      01008EC9H   LINE      CODE     ---       #154
      01008ED8H   LINE      CODE     ---       #155
      01008ED8H   LINE      CODE     ---       #156
      01008EEAH   LINE      CODE     ---       #157
      01008EEAH   LINE      CODE     ---       #158
      01008EECH   LINE      CODE     ---       #159
      01008EECH   LINE      CODE     ---       #160
      01008EFBH   LINE      CODE     ---       #161
      01008EFBH   LINE      CODE     ---       #162
      01008EFBH   LINE      CODE     ---       #168
      01008F08H   LINE      CODE     ---       #169
      01008F08H   LINE      CODE     ---       #171
      01008F11H   LINE      CODE     ---       #172
      01008F23H   LINE      CODE     ---       #173
      01008F32H   LINE      CODE     ---       #175
      01008F3FH   LINE      CODE     ---       #177
      01008F49H   LINE      CODE     ---       #179
      01008F4CH   LINE      CODE     ---       #180
      01008F4EH   LINE      CODE     ---       #181
      01008F5BH   LINE      CODE     ---       #182
      01008F63H   LINE      CODE     ---       #183
      01008F65H   LINE      CODE     ---       #184
      01008F6FH   LINE      CODE     ---       #185
      01008F6FH   LINE      CODE     ---       #186
      01008F6FH   LINE      CODE     ---       #187
      01008F82H   LINE      CODE     ---       #188
      01008F92H   LINE      CODE     ---       #189
      01008FA5H   LINE      CODE     ---       #190
      01008FB2H   LINE      CODE     ---       #191
      01008FBAH   LINE      CODE     ---       #192
      01008FCDH   LINE      CODE     ---       #193
      01008FE0H   LINE      CODE     ---       #194
      01008FE9H   LINE      CODE     ---       #198
      01008FEEH   LINE      CODE     ---       #199
      01008FEEH   LINE      CODE     ---       #202
      01008FF7H   LINE      CODE     ---       #203
      01009000H   LINE      CODE     ---       #205
      0100900FH   LINE      CODE     ---       #207
      0100901CH   LINE      CODE     ---       #208
      01009023H   LINE      CODE     ---       #209
      0100902AH   LINE      CODE     ---       #210
      01009031H   LINE      CODE     ---       #211
      01009038H   LINE      CODE     ---       #212
LX51 LINKER/LOCATER V3.51                                                             01/27/2014  09:14:18  PAGE 94


      01009039H   LINE      CODE     ---       #213
      01009041H   LINE      CODE     ---       #214
      0100904EH   LINE      CODE     ---       #215
      01009056H   LINE      CODE     ---       #216
      01009060H   LINE      CODE     ---       #217
      0100906BH   LINE      CODE     ---       #218
      0100906BH   LINE      CODE     ---       #231
      0100907EH   LINE      CODE     ---       #232
      01009091H   LINE      CODE     ---       #233
      01009099H   LINE      CODE     ---       #236
      010090A9H   LINE      CODE     ---       #241
      010090B2H   LINE      CODE     ---       #249
      010090BFH   LINE      CODE     ---       #251
      010090D4H   LINE      CODE     ---       #256
      010090DDH   LINE      CODE     ---       #265
      010090E6H   LINE      CODE     ---       #269
      010090E8H   LINE      CODE     ---       #270
      010090E8H   LINE      CODE     ---       #271
      ---         BLOCKEND  ---      ---       LVL=0

      0100EB33H   BLOCK     CODE     ---       LVL=0
      00000000H   SYMBOL    XSTK     ---       buffer
      00000003H   SYMBOL    XSTK     BYTE      length
      0100EB33H   LINE      CODE     ---       #273
      0100EB3BH   LINE      CODE     ---       #274
      0100EB43H   LINE      CODE     ---       #275
      0100EB49H   LINE      CODE     ---       #276
      0100EB4CH   LINE      CODE     ---       #277
      0100EB4CH   LINE      CODE     ---       #278
      0100EB5FH   LINE      CODE     ---       #279
      0100EB66H   LINE      CODE     ---       #280
      0100EB8BH   LINE      CODE     ---       #281
      ---         BLOCKEND  ---      ---       LVL=0

      01002098H   BLOCK     CODE     ---       LVL=0
      0200061FH   SYMBOL    XDATA    ---       command
      02000622H   SYMBOL    XDATA    WORD      status
      02000624H   SYMBOL    XDATA    BYTE      len
      02000625H   SYMBOL    XDATA    WORD      offset
      02000627H   SYMBOL    XDATA    BYTE      i
      02000628H   SYMBOL    XDATA    BYTE      tag
      02000629H   SYMBOL    XDATA    BYTE      state
      0200062AH   SYMBOL    XDATA    BYTE      size
      0200062BH   SYMBOL    XDATA    BYTE      res
      0200062CH   SYMBOL    XDATA    BYTE      dtag
      0200062DH   SYMBOL    XDATA    ---       stknode
      02000637H   SYMBOL    XDATA    BYTE      callback_result
      02000638H   SYMBOL    XDATA    BYTE      terminal_result
      01002098H   LINE      CODE     ---       #295
      0100209EH   LINE      CODE     ---       #296
      0100209EH   LINE      CODE     ---       #306
      010020A3H   LINE      CODE     ---       #309
      010020ADH   LINE      CODE     ---       #310
      0100211AH   LINE      CODE     ---       #311
      0100211AH   LINE      CODE     ---       #312
      0100211AH   LINE      CODE     ---       #313
      0100211AH   LINE      CODE     ---       #314
      0100211DH   LINE      CODE     ---       #315
      01002120H   LINE      CODE     ---       #316
      01002129H   LINE      CODE     ---       #317
      01002131H   LINE      CODE     ---       #318
      01002131H   LINE      CODE     ---       #319
      01002134H   LINE      CODE     ---       #320
      01002134H   LINE      CODE     ---       #327
      01002140H   LINE      CODE     ---       #328
LX51 LINKER/LOCATER V3.51                                                             01/27/2014  09:14:18  PAGE 95


      01002144H   LINE      CODE     ---       #329
      01002154H   LINE      CODE     ---       #330
      01002154H   LINE      CODE     ---       #335
      01002157H   LINE      CODE     ---       #336
      01002157H   LINE      CODE     ---       #338
      01002157H   LINE      CODE     ---       #344
      01002157H   LINE      CODE     ---       #345
      01002157H   LINE      CODE     ---       #346
      01002161H   LINE      CODE     ---       #347
      01002167H   LINE      CODE     ---       #349
      01002167H   LINE      CODE     ---       #350
      01002171H   LINE      CODE     ---       #351
      0100218CH   LINE      CODE     ---       #352
      01002192H   LINE      CODE     ---       #353
      01002192H   LINE      CODE     ---       #354
      0100219EH   LINE      CODE     ---       #356
      010021A9H   LINE      CODE     ---       #357
      010021A9H   LINE      CODE     ---       #358
      010021ACH   LINE      CODE     ---       #360
      010021ACH   LINE      CODE     ---       #361
      010021ACH   LINE      CODE     ---       #362
      010021B5H   LINE      CODE     ---       #364
      010021B5H   LINE      CODE     ---       #365
      010021BFH   LINE      CODE     ---       #366
      010021D3H   LINE      CODE     ---       #367
      010021D3H   LINE      CODE     ---       #368
      010021E4H   LINE      CODE     ---       #369
      010021E6H   LINE      CODE     ---       #370
      010021E6H   LINE      CODE     ---       #371
      010021F2H   LINE      CODE     ---       #372
      010021F4H   LINE      CODE     ---       #373
      010021F4H   LINE      CODE     ---       #376
      01002210H   LINE      CODE     ---       #377
      01002210H   LINE      CODE     ---       #378
      01002210H   LINE      CODE     ---       #381
      01002210H   LINE      CODE     ---       #382
      01002210H   LINE      CODE     ---       #383
      01002219H   LINE      CODE     ---       #384
      01002225H   LINE      CODE     ---       #386
      0100222FH   LINE      CODE     ---       #387
      0100222FH   LINE      CODE     ---       #388
      0100222FH   LINE      CODE     ---       #389
      01002232H   LINE      CODE     ---       #391
      01002232H   LINE      CODE     ---       #392
      01002232H   LINE      CODE     ---       #393
      01002235H   LINE      CODE     ---       #394
      0100223FH   LINE      CODE     ---       #395
      01002246H   LINE      CODE     ---       #396
      0100224AH   LINE      CODE     ---       #397
      01002254H   LINE      CODE     ---       #398
      01002272H   LINE      CODE     ---       #399
      01002277H   LINE      CODE     ---       #400
      0100227FH   LINE      CODE     ---       #401
      0100228AH   LINE      CODE     ---       #402
      0100228AH   LINE      CODE     ---       #403
      0100228AH   LINE      CODE     ---       #404
      0100228DH   LINE      CODE     ---       #406
      0100228DH   LINE      CODE     ---       #407
      0100228DH   LINE      CODE     ---       #408
      01002290H   LINE      CODE     ---       #409
      01002299H   LINE      CODE     ---       #410
      010022A3H   LINE      CODE     ---       #411
      010022B4H   LINE      CODE     ---       #412
      010022B4H   LINE      CODE     ---       #413
      010022C4H   LINE      CODE     ---       #414
LX51 LINKER/LOCATER V3.51                                                             01/27/2014  09:14:18  PAGE 96


      010022C6H   LINE      CODE     ---       #415
      010022C6H   LINE      CODE     ---       #416
      010022D5H   LINE      CODE     ---       #417
      010022D7H   LINE      CODE     ---       #418
      010022D7H   LINE      CODE     ---       #421
      010022F6H   LINE      CODE     ---       #422
      010022F8H   LINE      CODE     ---       #423
      010022F8H   LINE      CODE     ---       #424
      010022F8H   LINE      CODE     ---       #425
      010022FBH   LINE      CODE     ---       #426
      010022FBH   LINE      CODE     ---       #427
      010022FBH   LINE      CODE     ---       #428
      01002300H   LINE      CODE     ---       #429
      01002300H   LINE      CODE     ---       #430
      01002303H   LINE      CODE     ---       #432
      01002303H   LINE      CODE     ---       #433
      01002303H   LINE      CODE     ---       #434
      01002306H   LINE      CODE     ---       #435
      0100230CH   LINE      CODE     ---       #436
      01002312H   LINE      CODE     ---       #437
      01002312H   LINE      CODE     ---       #438
      01002314H   LINE      CODE     ---       #439
      01002314H   LINE      CODE     ---       #440
      01002323H   LINE      CODE     ---       #441
      0100232CH   LINE      CODE     ---       #442
      01002331H   LINE      CODE     ---       #443
      01002331H   LINE      CODE     ---       #444
      01002333H   LINE      CODE     ---       #445
      01002336H   LINE      CODE     ---       #446
      01002336H   LINE      CODE     ---       #447
      01002339H   LINE      CODE     ---       #449
      01002339H   LINE      CODE     ---       #450
      01002339H   LINE      CODE     ---       #451
      0100233CH   LINE      CODE     ---       #452
      01002342H   LINE      CODE     ---       #453
      01002348H   LINE      CODE     ---       #454
      01002348H   LINE      CODE     ---       #455
      0100234DH   LINE      CODE     ---       #456
      0100234DH   LINE      CODE     ---       #457
      0100235CH   LINE      CODE     ---       #458
      01002365H   LINE      CODE     ---       #459
      0100236AH   LINE      CODE     ---       #460
      0100236AH   LINE      CODE     ---       #461
      0100236CH   LINE      CODE     ---       #462
      0100236FH   LINE      CODE     ---       #463
      0100236FH   LINE      CODE     ---       #464
      01002372H   LINE      CODE     ---       #466
      01002372H   LINE      CODE     ---       #467
      01002372H   LINE      CODE     ---       #468
      01002372H   LINE      CODE     ---       #469
      01002372H   LINE      CODE     ---       #471
      0100237CH   LINE      CODE     ---       #472
      01002381H   LINE      CODE     ---       #473
      0100238CH   LINE      CODE     ---       #474
      0100238CH   LINE      CODE     ---       #475
      01002391H   LINE      CODE     ---       #476
      01002393H   LINE      CODE     ---       #477
      01002393H   LINE      CODE     ---       #478
      01002396H   LINE      CODE     ---       #479
      0100239CH   LINE      CODE     ---       #480
      010023A7H   LINE      CODE     ---       #481
      010023A9H   LINE      CODE     ---       #482
      010023A9H   LINE      CODE     ---       #483
      010023ACH   LINE      CODE     ---       #484
      010023ACH   LINE      CODE     ---       #485
LX51 LINKER/LOCATER V3.51                                                             01/27/2014  09:14:18  PAGE 97


      010023ACH   LINE      CODE     ---       #489
      010023ACH   LINE      CODE     ---       #490
      010023AFH   LINE      CODE     ---       #491
      010023AFH   LINE      CODE     ---       #492
      010023AFH   LINE      CODE     ---       #494
      010023AFH   LINE      CODE     ---       #495
      010023B2H   LINE      CODE     ---       #497
      010023B2H   LINE      CODE     ---       #498
      010023B2H   LINE      CODE     ---       #499
      010023B2H   LINE      CODE     ---       #500
      010023B2H   LINE      CODE     ---       #502
      010023B9H   LINE      CODE     ---       #503
      010023BEH   LINE      CODE     ---       #504
      010023C9H   LINE      CODE     ---       #505
      010023C9H   LINE      CODE     ---       #506
      010023CCH   LINE      CODE     ---       #507
      010023D2H   LINE      CODE     ---       #508
      010023E3H   LINE      CODE     ---       #509
      010023E5H   LINE      CODE     ---       #510
      010023E5H   LINE      CODE     ---       #511
      010023E8H   LINE      CODE     ---       #512
      010023EEH   LINE      CODE     ---       #513
      01002402H   LINE      CODE     ---       #514
      01002404H   LINE      CODE     ---       #515
      01002404H   LINE      CODE     ---       #516
      01002407H   LINE      CODE     ---       #517
      01002407H   LINE      CODE     ---       #518
      01002407H   LINE      CODE     ---       #523
      01002407H   LINE      CODE     ---       #524
      0100240AH   LINE      CODE     ---       #525
      0100240AH   LINE      CODE     ---       #526
      0100240AH   LINE      CODE     ---       #527
      0100240FH   LINE      CODE     ---       #528
      0100240FH   LINE      CODE     ---       #529
      01002412H   LINE      CODE     ---       #531
      01002412H   LINE      CODE     ---       #532
      01002412H   LINE      CODE     ---       #533
      01002412H   LINE      CODE     ---       #535
      01002415H   LINE      CODE     ---       #536
      0100241BH   LINE      CODE     ---       #537
      0100241EH   LINE      CODE     ---       #538
      01002424H   LINE      CODE     ---       #539
      0100242CH   LINE      CODE     ---       #540
      0100242CH   LINE      CODE     ---       #541
      0100242EH   LINE      CODE     ---       #542
      0100242EH   LINE      CODE     ---       #543
      0100243AH   LINE      CODE     ---       #544
      0100243FH   LINE      CODE     ---       #545
      01002441H   LINE      CODE     ---       #546
      01002444H   LINE      CODE     ---       #547
      01002444H   LINE      CODE     ---       #548
      01002447H   LINE      CODE     ---       #550
      01002447H   LINE      CODE     ---       #551
      01002447H   LINE      CODE     ---       #552
      01002447H   LINE      CODE     ---       #554
      0100244AH   LINE      CODE     ---       #555
      01002450H   LINE      CODE     ---       #557
      01002466H   LINE      CODE     ---       #558
      01002466H   LINE      CODE     ---       #559
      0100246DH   LINE      CODE     ---       #560
      0100246DH   LINE      CODE     ---       #561
      01002473H   LINE      CODE     ---       #562
      01002473H   LINE      CODE     ---       #563
      0100247CH   LINE      CODE     ---       #565
      0100247CH   LINE      CODE     ---       #566
LX51 LINKER/LOCATER V3.51                                                             01/27/2014  09:14:18  PAGE 98


      0100247EH   LINE      CODE     ---       #567
      0100247EH   LINE      CODE     ---       #568
      01002488H   LINE      CODE     ---       #569
      01002488H   LINE      CODE     ---       #570
      0100248EH   LINE      CODE     ---       #571
      0100248EH   LINE      CODE     ---       #572
      010024AFH   LINE      CODE     ---       #574
      010024AFH   LINE      CODE     ---       #575
      010024B1H   LINE      CODE     ---       #576
      010024B1H   LINE      CODE     ---       #577
      010024BBH   LINE      CODE     ---       #578
      010024BBH   LINE      CODE     ---       #579
      010024BDH   LINE      CODE     ---       #580
      010024BDH   LINE      CODE     ---       #581
      010024C3H   LINE      CODE     ---       #583
      010024C3H   LINE      CODE     ---       #584
      010024C5H   LINE      CODE     ---       #585
      010024C5H   LINE      CODE     ---       #586
      010024CFH   LINE      CODE     ---       #587
      010024CFH   LINE      CODE     ---       #588
      010024D5H   LINE      CODE     ---       #589
      010024D5H   LINE      CODE     ---       #590
      010024DEH   LINE      CODE     ---       #592
      010024E3H   LINE      CODE     ---       #593
      010024E5H   LINE      CODE     ---       #594
      010024E5H   LINE      CODE     ---       #595
      010024E7H   LINE      CODE     ---       #596
      010024E7H   LINE      CODE     ---       #597
      010024E7H   LINE      CODE     ---       #598
      010024EAH   LINE      CODE     ---       #601
      010024EAH   LINE      CODE     ---       #602
      010024EAH   LINE      CODE     ---       #603
      010024F0H   LINE      CODE     ---       #604
      010024F3H   LINE      CODE     ---       #605
      010024F9H   LINE      CODE     ---       #606
      010024F9H   LINE      CODE     ---       #607
      0100250DH   LINE      CODE     ---       #608
      0100250DH   LINE      CODE     ---       #609
      01002511H   LINE      CODE     ---       #610
      01002513H   LINE      CODE     ---       #611
      01002513H   LINE      CODE     ---       #612
      01002517H   LINE      CODE     ---       #613
      01002519H   LINE      CODE     ---       #614
      01002519H   LINE      CODE     ---       #615
      0100251EH   LINE      CODE     ---       #616
      01002520H   LINE      CODE     ---       #617
      01002520H   LINE      CODE     ---       #618
      01002529H   LINE      CODE     ---       #619
      0100252BH   LINE      CODE     ---       #620
      0100252BH   LINE      CODE     ---       #621
      01002530H   LINE      CODE     ---       #622
      01002530H   LINE      CODE     ---       #623
      01002539H   LINE      CODE     ---       #625
      01002539H   LINE      CODE     ---       #626
      0100253CH   LINE      CODE     ---       #635
      0100253CH   LINE      CODE     ---       #636
      0100253CH   LINE      CODE     ---       #638
      0100253FH   LINE      CODE     ---       #639
      01002545H   LINE      CODE     ---       #640
      0100254CH   LINE      CODE     ---       #641
      0100254CH   LINE      CODE     ---       #642
      0100254FH   LINE      CODE     ---       #644
      0100254FH   LINE      CODE     ---       #645
      0100254FH   LINE      CODE     ---       #647
      01002552H   LINE      CODE     ---       #648
LX51 LINKER/LOCATER V3.51                                                             01/27/2014  09:14:18  PAGE 99


      01002558H   LINE      CODE     ---       #649
      0100255FH   LINE      CODE     ---       #650
      0100255FH   LINE      CODE     ---       #651
      01002562H   LINE      CODE     ---       #653
      01002562H   LINE      CODE     ---       #654
      01002562H   LINE      CODE     ---       #656
      01002565H   LINE      CODE     ---       #657
      0100256EH   LINE      CODE     ---       #660
      0100256EH   LINE      CODE     ---       #661
      0100256EH   LINE      CODE     ---       #663
      01002571H   LINE      CODE     ---       #664
      01002577H   LINE      CODE     ---       #665
      01002584H   LINE      CODE     ---       #666
      0100258CH   LINE      CODE     ---       #667
      01002597H   LINE      CODE     ---       #668
      010025A1H   LINE      CODE     ---       #669
      010025ABH   LINE      CODE     ---       #670
      010025B5H   LINE      CODE     ---       #671
      010025BFH   LINE      CODE     ---       #672
      010025CBH   LINE      CODE     ---       #673
      010025D6H   LINE      CODE     ---       #674
      010025E2H   LINE      CODE     ---       #675
      010025EEH   LINE      CODE     ---       #677
      010025F1H   LINE      CODE     ---       #678
      010025F4H   LINE      CODE     ---       #680
      010025F4H   LINE      CODE     ---       #681
      010025F4H   LINE      CODE     ---       #684
      010025FAH   LINE      CODE     ---       #685
      010025FDH   LINE      CODE     ---       #686
      01002603H   LINE      CODE     ---       #687
      01002603H   LINE      CODE     ---       #688
      0100260AH   LINE      CODE     ---       #689
      0100260AH   LINE      CODE     ---       #690
      0100260DH   LINE      CODE     ---       #692
      0100260DH   LINE      CODE     ---       #693
      0100260DH   LINE      CODE     ---       #696
      01002613H   LINE      CODE     ---       #697
      01002616H   LINE      CODE     ---       #698
      0100261CH   LINE      CODE     ---       #699
      0100261CH   LINE      CODE     ---       #700
      01002623H   LINE      CODE     ---       #701
      01002623H   LINE      CODE     ---       #702
      01002626H   LINE      CODE     ---       #704
      01002626H   LINE      CODE     ---       #705
      01002626H   LINE      CODE     ---       #706
      0100262CH   LINE      CODE     ---       #707
      0100262FH   LINE      CODE     ---       #708
      01002635H   LINE      CODE     ---       #709
      01002635H   LINE      CODE     ---       #715
      0100263BH   LINE      CODE     ---       #716
      0100263EH   LINE      CODE     ---       #718
      0100263EH   LINE      CODE     ---       #719
      01002641H   LINE      CODE     ---       #720
      01002641H   LINE      CODE     ---       #721
      01002647H   LINE      CODE     ---       #722
      0100264AH   LINE      CODE     ---       #723
      01002650H   LINE      CODE     ---       #724
      01002650H   LINE      CODE     ---       #727
      0100265AH   LINE      CODE     ---       #728
      01002673H   LINE      CODE     ---       #729
      01002673H   LINE      CODE     ---       #731
      01002679H   LINE      CODE     ---       #732
      0100268DH   LINE      CODE     ---       #733
      01002690H   LINE      CODE     ---       #735
      01002690H   LINE      CODE     ---       #736
LX51 LINKER/LOCATER V3.51                                                             01/27/2014  09:14:18  PAGE 100


      01002690H   LINE      CODE     ---       #737
      01002696H   LINE      CODE     ---       #738
      01002699H   LINE      CODE     ---       #739
      0100269FH   LINE      CODE     ---       #740
      0100269FH   LINE      CODE     ---       #743
      010026A2H   LINE      CODE     ---       #744
      010026A5H   LINE      CODE     ---       #746
      010026A5H   LINE      CODE     ---       #747
      010026B2H   LINE      CODE     ---       #748
      010026C0H   LINE      CODE     ---       #749
      010026CDH   LINE      CODE     ---       #750
      010026D2H   LINE      CODE     ---       #751
      010026E1H   LINE      CODE     ---       #752
      01002708H   LINE      CODE     ---       #753
      01002710H   LINE      CODE     ---       #754
      01002728H   LINE      CODE     ---       #755
      0100272EH   LINE      CODE     ---       #756
      01002733H   LINE      CODE     ---       #757
      01002737H   LINE      CODE     ---       #764
      01002737H   LINE      CODE     ---       #765
      01002744H   LINE      CODE     ---       #766
      01002747H   LINE      CODE     ---       #767
      01002753H   LINE      CODE     ---       #768
      0100275CH   LINE      CODE     ---       #769
      0100277EH   LINE      CODE     ---       #770
      01002785H   LINE      CODE     ---       #771
      0100278CH   LINE      CODE     ---       #772
      01002792H   LINE      CODE     ---       #773
      01002798H   LINE      CODE     ---       #774
      0100279CH   LINE      CODE     ---       #775
      0100279CH   LINE      CODE     ---       #776
      0100279FH   LINE      CODE     ---       #778
      0100279FH   LINE      CODE     ---       #779
      010027A2H   LINE      CODE     ---       #780
      010027A9H   LINE      CODE     ---       #781
      010027ACH   LINE      CODE     ---       #782
      010027B2H   LINE      CODE     ---       #783
      010027B2H   LINE      CODE     ---       #784
      010027BCH   LINE      CODE     ---       #785
      010027CCH   LINE      CODE     ---       #786
      010027CCH   LINE      CODE     ---       #787
      010027CFH   LINE      CODE     ---       #789
      010027CFH   LINE      CODE     ---       #790
      010027D6H   LINE      CODE     ---       #791
      010027D9H   LINE      CODE     ---       #792
      010027DEH   LINE      CODE     ---       #793
      010027DEH   LINE      CODE     ---       #794
      010027E8H   LINE      CODE     ---       #795
      010027EFH   LINE      CODE     ---       #796
      010027FEH   LINE      CODE     ---       #797
      01002806H   LINE      CODE     ---       #798
      01002809H   LINE      CODE     ---       #800
      01002809H   LINE      CODE     ---       #801
      01002810H   LINE      CODE     ---       #802
      01002813H   LINE      CODE     ---       #803
      01002818H   LINE      CODE     ---       #804
      01002818H   LINE      CODE     ---       #805
      0100281BH   LINE      CODE     ---       #806
      0100281BH   LINE      CODE     ---       #807
      0100281EH   LINE      CODE     ---       #809
      0100281EH   LINE      CODE     ---       #810
      0100281EH   LINE      CODE     ---       #811
      01002821H   LINE      CODE     ---       #812
      01002826H   LINE      CODE     ---       #814
      01002833H   LINE      CODE     ---       #816
LX51 LINKER/LOCATER V3.51                                                             01/27/2014  09:14:18  PAGE 101


      01002833H   LINE      CODE     ---       #817
      01002833H   LINE      CODE     ---       #818
      01002836H   LINE      CODE     ---       #819
      0100283EH   LINE      CODE     ---       #820
      0100284BH   LINE      CODE     ---       #822
      01002858H   LINE      CODE     ---       #823
      0100287EH   LINE      CODE     ---       #824
      01002885H   LINE      CODE     ---       #825
      01002888H   LINE      CODE     ---       #826
      0100288BH   LINE      CODE     ---       #827
      0100288BH   LINE      CODE     ---       #828
      01002890H   LINE      CODE     ---       #830
      01002890H   LINE      CODE     ---       #831
      0100289AH   LINE      CODE     ---       #832
      010028A0H   LINE      CODE     ---       #833
      010028ADH   LINE      CODE     ---       #834
      010028B7H   LINE      CODE     ---       #835
      010028C0H   LINE      CODE     ---       #836
      010028CCH   LINE      CODE     ---       #837
      010028E7H   LINE      CODE     ---       #838
      010028EAH   LINE      CODE     ---       #839
      010028EDH   LINE      CODE     ---       #841
      010028EDH   LINE      CODE     ---       #842
      010028F0H   LINE      CODE     ---       #843
      010028F6H   LINE      CODE     ---       #844
      010028F6H   LINE      CODE     ---       #845
      010028F9H   LINE      CODE     ---       #848
      01002900H   LINE      CODE     ---       #849
      01002917H   LINE      CODE     ---       #850
      0100292AH   LINE      CODE     ---       #851
      01002936H   LINE      CODE     ---       #852
      0100294DH   LINE      CODE     ---       #858
      0100294DH   LINE      CODE     ---       #859
      01002950H   LINE      CODE     ---       #861
      01002950H   LINE      CODE     ---       #862
      01002957H   LINE      CODE     ---       #863
      01002957H   LINE      CODE     ---       #864
      0100295AH   LINE      CODE     ---       #866
      01002961H   LINE      CODE     ---       #867
      0100296BH   LINE      CODE     ---       #868
      0100296EH   LINE      CODE     ---       #869
      01002971H   LINE      CODE     ---       #871
      01002971H   LINE      CODE     ---       #872
      01002976H   LINE      CODE     ---       #873
      0100297AH   LINE      CODE     ---       #874
      0100297AH   LINE      CODE     ---       #878
      01002987H   LINE      CODE     ---       #879
      010029D6H   LINE      CODE     ---       #880
      010029D6H   LINE      CODE     ---       #881
      010029D6H   LINE      CODE     ---       #882
      010029DEH   LINE      CODE     ---       #883
      010029F6H   LINE      CODE     ---       #884
      01002A03H   LINE      CODE     ---       #885
      01002A09H   LINE      CODE     ---       #886
      01002A0CH   LINE      CODE     ---       #887
      01002A0CH   LINE      CODE     ---       #896
      01002A12H   LINE      CODE     ---       #897
      01002A13H   LINE      CODE     ---       #898
      01002A13H   LINE      CODE     ---       #899
      01002A13H   LINE      CODE     ---       #900
      01002A13H   LINE      CODE     ---       #902
      01002A16H   LINE      CODE     ---       #903
      01002A1CH   LINE      CODE     ---       #904
      01002A2AH   LINE      CODE     ---       #905
      01002A3AH   LINE      CODE     ---       #906
LX51 LINKER/LOCATER V3.51                                                             01/27/2014  09:14:18  PAGE 102


      01002A43H   LINE      CODE     ---       #907
      01002A48H   LINE      CODE     ---       #908
      01002A52H   LINE      CODE     ---       #909
      01002A54H   LINE      CODE     ---       #910
      01002A57H   LINE      CODE     ---       #911
      01002A5CH   LINE      CODE     ---       #912
      01002A5CH   LINE      CODE     ---       #913
      01002A5EH   LINE      CODE     ---       #914
      01002A63H   LINE      CODE     ---       #915
      01002A6CH   LINE      CODE     ---       #916
      01002A6CH   LINE      CODE     ---       #917
      01002A7AH   LINE      CODE     ---       #919
      01002A7DH   LINE      CODE     ---       #920
      01002A7DH   LINE      CODE     ---       #921
      01002A7DH   LINE      CODE     ---       #922
      01002A7DH   LINE      CODE     ---       #923
      01002A7DH   LINE      CODE     ---       #924
      01002A7DH   LINE      CODE     ---       #925
      01002A7DH   LINE      CODE     ---       #926
      01002A7DH   LINE      CODE     ---       #927
      01002A7DH   LINE      CODE     ---       #928
      01002A7DH   LINE      CODE     ---       #929
      01002A7DH   LINE      CODE     ---       #930
      01002A81H   LINE      CODE     ---       #931
      01002A8BH   LINE      CODE     ---       #932
      01002A95H   LINE      CODE     ---       #933
      01002A9AH   LINE      CODE     ---       #934
      01002AA5H   LINE      CODE     ---       #935
      01002AA5H   LINE      CODE     ---       #936
      01002AA5H   LINE      CODE     ---       #937
      01002AABH   LINE      CODE     ---       #938
      01002AADH   LINE      CODE     ---       #939
      01002AADH   LINE      CODE     ---       #942
      01002AADH   LINE      CODE     ---       #946
      01002AADH   LINE      CODE     ---       #947
      01002AB0H   LINE      CODE     ---       #948
      01002AB0H   LINE      CODE     ---       #949
      01002AB2H   LINE      CODE     ---       #950
      01002AB8H   LINE      CODE     ---       #951
      01002AB8H   LINE      CODE     ---       #952
      01002ABBH   LINE      CODE     ---       #953
      01002ABBH   LINE      CODE     ---       #954
      01002ABBH   LINE      CODE     ---       #955
      01002ABBH   LINE      CODE     ---       #956
      01002ABBH   LINE      CODE     ---       #957
      01002ABBH   LINE      CODE     ---       #958
      01002ABBH   LINE      CODE     ---       #960
      01002ABBH   LINE      CODE     ---       #962
      01002AC2H   LINE      CODE     ---       #963
      01002AC7H   LINE      CODE     ---       #964
      01002AD2H   LINE      CODE     ---       #965
      01002AD2H   LINE      CODE     ---       #966
      01002AD2H   LINE      CODE     ---       #967
      01002AE1H   LINE      CODE     ---       #968
      01002AE3H   LINE      CODE     ---       #969
      01002AE3H   LINE      CODE     ---       #972
      01002AE3H   LINE      CODE     ---       #976
      01002AE3H   LINE      CODE     ---       #977
      01002AE6H   LINE      CODE     ---       #978
      01002AE6H   LINE      CODE     ---       #979
      01002AE8H   LINE      CODE     ---       #980
      01002AEEH   LINE      CODE     ---       #981
      01002AEEH   LINE      CODE     ---       #982
      01002AF1H   LINE      CODE     ---       #983
      01002AF1H   LINE      CODE     ---       #984
LX51 LINKER/LOCATER V3.51                                                             01/27/2014  09:14:18  PAGE 103


      01002AF1H   LINE      CODE     ---       #986
      01002AF1H   LINE      CODE     ---       #988
      01002AF8H   LINE      CODE     ---       #989
      01002AFDH   LINE      CODE     ---       #990
      01002B03H   LINE      CODE     ---       #991
      01002B03H   LINE      CODE     ---       #993
      01002B0EH   LINE      CODE     ---       #994
      01002B10H   LINE      CODE     ---       #995
      01002B10H   LINE      CODE     ---       #998
      01002B10H   LINE      CODE     ---       #1002
      01002B10H   LINE      CODE     ---       #1003
      01002B13H   LINE      CODE     ---       #1004
      01002B13H   LINE      CODE     ---       #1005
      01002B15H   LINE      CODE     ---       #1006
      01002B1BH   LINE      CODE     ---       #1007
      01002B1BH   LINE      CODE     ---       #1008
      01002B1EH   LINE      CODE     ---       #1009
      01002B1EH   LINE      CODE     ---       #1010
      01002B1EH   LINE      CODE     ---       #1012
      01002B21H   LINE      CODE     ---       #1014
      01002B2BH   LINE      CODE     ---       #1015
      01002B30H   LINE      CODE     ---       #1016
      01002B36H   LINE      CODE     ---       #1017
      01002B36H   LINE      CODE     ---       #1019
      01002B41H   LINE      CODE     ---       #1020
      01002B43H   LINE      CODE     ---       #1021
      01002B43H   LINE      CODE     ---       #1024
      01002B43H   LINE      CODE     ---       #1028
      01002B43H   LINE      CODE     ---       #1029
      01002B46H   LINE      CODE     ---       #1030
      01002B46H   LINE      CODE     ---       #1031
      01002B48H   LINE      CODE     ---       #1032
      01002B4EH   LINE      CODE     ---       #1033
      01002B4EH   LINE      CODE     ---       #1034
      01002B51H   LINE      CODE     ---       #1035
      01002B51H   LINE      CODE     ---       #1036
      01002B51H   LINE      CODE     ---       #1038
      01002B54H   LINE      CODE     ---       #1040
      01002B5EH   LINE      CODE     ---       #1041
      01002B63H   LINE      CODE     ---       #1042
      01002B6EH   LINE      CODE     ---       #1043
      01002B6EH   LINE      CODE     ---       #1044
      01002B7CH   LINE      CODE     ---       #1045
      01002B7EH   LINE      CODE     ---       #1046
      01002B7EH   LINE      CODE     ---       #1047
      01002B95H   LINE      CODE     ---       #1048
      01002B97H   LINE      CODE     ---       #1049
      01002B97H   LINE      CODE     ---       #1052
      01002B97H   LINE      CODE     ---       #1056
      01002B97H   LINE      CODE     ---       #1057
      01002B9AH   LINE      CODE     ---       #1058
      01002B9AH   LINE      CODE     ---       #1059
      01002B9CH   LINE      CODE     ---       #1060
      01002BA2H   LINE      CODE     ---       #1061
      01002BA2H   LINE      CODE     ---       #1062
      01002BA5H   LINE      CODE     ---       #1063
      01002BA5H   LINE      CODE     ---       #1064
      01002BA5H   LINE      CODE     ---       #1066
      01002BA9H   LINE      CODE     ---       #1067
      01002BB8H   LINE      CODE     ---       #1068
      01002BDDH   LINE      CODE     ---       #1069
      01002BE5H   LINE      CODE     ---       #1070
      01002BF5H   LINE      CODE     ---       #1071
      01002BF5H   LINE      CODE     ---       #1072
      01002BFAH   LINE      CODE     ---       #1074
LX51 LINKER/LOCATER V3.51                                                             01/27/2014  09:14:18  PAGE 104


      01002BFDH   LINE      CODE     ---       #1075
      01002BFDH   LINE      CODE     ---       #1076
      01002C02H   LINE      CODE     ---       #1077
      01002C0CH   LINE      CODE     ---       #1080
      01002C14H   LINE      CODE     ---       #1081
      01002C19H   LINE      CODE     ---       #1082
      01002C19H   LINE      CODE     ---       #1083
      01002C1EH   LINE      CODE     ---       #1085
      01002C22H   LINE      CODE     ---       #1086
      01002C22H   LINE      CODE     ---       #1087
      01002C22H   LINE      CODE     ---       #1088
      01002C22H   LINE      CODE     ---       #1090
      01002C25H   LINE      CODE     ---       #1091
      01002C25H   LINE      CODE     ---       #1092
      01002C28H   LINE      CODE     ---       #1094
      01002C2CH   LINE      CODE     ---       #1095
      01002C36H   LINE      CODE     ---       #1096
      01002C3DH   LINE      CODE     ---       #1098
      01002C42H   LINE      CODE     ---       #1099
      01002C51H   LINE      CODE     ---       #1100
      01002C6DH   LINE      CODE     ---       #1102
      01002C72H   LINE      CODE     ---       #1103
      01002C72H   LINE      CODE     ---       #1104
      01002C7CH   LINE      CODE     ---       #1105
      01002C81H   LINE      CODE     ---       #1106
      01002C81H   LINE      CODE     ---       #1107
      01002C8FH   LINE      CODE     ---       #1109
      01002C92H   LINE      CODE     ---       #1110
      01002C92H   LINE      CODE     ---       #1111
      01002C95H   LINE      CODE     ---       #1113
      01002C98H   LINE      CODE     ---       #1114
      01002C9EH   LINE      CODE     ---       #1115
      01002CA6H   LINE      CODE     ---       #1116
      01002CABH   LINE      CODE     ---       #1117
      01002CB0H   LINE      CODE     ---       #1118
      01002CB0H   LINE      CODE     ---       #1119
      01002CC8H   LINE      CODE     ---       #1121
      01002CD1H   LINE      CODE     ---       #1122
      01002CDFH   LINE      CODE     ---       #1125
      01002CE1H   LINE      CODE     ---       #1126
      01002CE6H   LINE      CODE     ---       #1127
      01002CE9H   LINE      CODE     ---       #1128
      01002CE9H   LINE      CODE     ---       #1130
      01002CECH   LINE      CODE     ---       #1131
      01002CECH   LINE      CODE     ---       #1132
      01002CECH   LINE      CODE     ---       #1135
      01002CF1H   LINE      CODE     ---       #1138
      01002CF1H   LINE      CODE     ---       #1139
      01002CF1H   LINE      CODE     ---       #1140
      01002CF4H   LINE      CODE     ---       #1141
      01002CFEH   LINE      CODE     ---       #1142
      01002D04H   LINE      CODE     ---       #1144
      01002D0AH   LINE      CODE     ---       #1146
      01002D11H   LINE      CODE     ---       #1147
      01002D14H   LINE      CODE     ---       #1148
      01002D1AH   LINE      CODE     ---       #1149
      01002D1AH   LINE      CODE     ---       #1151
      01002D1CH   LINE      CODE     ---       #1153
      01002D22H   LINE      CODE     ---       #1155
      01002D22H   LINE      CODE     ---       #1158
      01002D25H   LINE      CODE     ---       #1159
      01002D25H   LINE      CODE     ---       #1160
      01002D25H   LINE      CODE     ---       #1161
      01002D29H   LINE      CODE     ---       #1164
      01002D2FH   LINE      CODE     ---       #1168
LX51 LINKER/LOCATER V3.51                                                             01/27/2014  09:14:18  PAGE 105


      01002D44H   LINE      CODE     ---       #1169
      01002D44H   LINE      CODE     ---       #1170
      01002D47H   LINE      CODE     ---       #1171
      01002D4DH   LINE      CODE     ---       #1172
      01002D58H   LINE      CODE     ---       #1173
      01002D58H   LINE      CODE     ---       #1175
      01002D5EH   LINE      CODE     ---       #1176
      01002D64H   LINE      CODE     ---       #1177
      01002D6FH   LINE      CODE     ---       #1178
      01002D6FH   LINE      CODE     ---       #1179
      01002D75H   LINE      CODE     ---       #1180
      01002D7BH   LINE      CODE     ---       #1181
      01002D86H   LINE      CODE     ---       #1182
      01002D86H   LINE      CODE     ---       #1183
      01002D89H   LINE      CODE     ---       #1184
      01002D93H   LINE      CODE     ---       #1186
      01002DA2H   LINE      CODE     ---       #1187
      01002DA2H   LINE      CODE     ---       #1188
      01002DA5H   LINE      CODE     ---       #1189
      01002DA5H   LINE      CODE     ---       #1191
      01002DA5H   LINE      CODE     ---       #1193
      01002DAAH   LINE      CODE     ---       #1194
      01002DADH   LINE      CODE     ---       #1195
      01002DB7H   LINE      CODE     ---       #1196
      01002DC6H   LINE      CODE     ---       #1197
      01002DD2H   LINE      CODE     ---       #1198
      01002DD9H   LINE      CODE     ---       #1199
      01002DDCH   LINE      CODE     ---       #1200
      01002DDFH   LINE      CODE     ---       #1201
      01002DDFH   LINE      CODE     ---       #1202
      01002DDFH   LINE      CODE     ---       #1203
      01002DE4H   LINE      CODE     ---       #1204
      01002DE6H   LINE      CODE     ---       #1208
      01002DEEH   LINE      CODE     ---       #1209
      01002DFBH   LINE      CODE     ---       #1210
      01002DFEH   LINE      CODE     ---       #1211
      01002E06H   LINE      CODE     ---       #1212
      01002E06H   LINE      CODE     ---       #1213
      01002E06H   LINE      CODE     ---       #1214
      01002E06H   LINE      CODE     ---       #1215
      01002E10H   LINE      CODE     ---       #1217
      01002E19H   LINE      CODE     ---       #1218
      01002E1EH   LINE      CODE     ---       #1219
      01002E1EH   LINE      CODE     ---       #1220
      01002E24H   LINE      CODE     ---       #1221
      01002E29H   LINE      CODE     ---       #1222
      01002E37H   LINE      CODE     ---       #1223
      01002E3AH   LINE      CODE     ---       #1224
      01002E40H   LINE      CODE     ---       #1225
      01002E46H   LINE      CODE     ---       #1229
      01002E48H   LINE      CODE     ---       #1230
      01002E4BH   LINE      CODE     ---       #1231
      01002E4DH   LINE      CODE     ---       #1232
      01002E4DH   LINE      CODE     ---       #1233
      01002E55H   LINE      CODE     ---       #1234
      01002E5BH   LINE      CODE     ---       #1235
      01002E66H   LINE      CODE     ---       #1236
      01002E66H   LINE      CODE     ---       #1237
      01002E66H   LINE      CODE     ---       #1238
      01002E66H   LINE      CODE     ---       #1239
      01002E66H   LINE      CODE     ---       #1241
      01002E6CH   LINE      CODE     ---       #1242
      01002E89H   LINE      CODE     ---       #1243
      01002E9FH   LINE      CODE     ---       #1244
      01002E9FH   LINE      CODE     ---       #1246
LX51 LINKER/LOCATER V3.51                                                             01/27/2014  09:14:18  PAGE 106


      01002E9FH   LINE      CODE     ---       #1247
      01002EA5H   LINE      CODE     ---       #1248
      01002EABH   LINE      CODE     ---       #1249
      01002EB3H   LINE      CODE     ---       #1250
      01002EB3H   LINE      CODE     ---       #1251
      01002EB9H   LINE      CODE     ---       #1252
      01002EBEH   LINE      CODE     ---       #1253
      01002ECEH   LINE      CODE     ---       #1254
      01002ED1H   LINE      CODE     ---       #1255
      01002ED8H   LINE      CODE     ---       #1256
      01002EDEH   LINE      CODE     ---       #1258
      01002EE0H   LINE      CODE     ---       #1259
      01002EE8H   LINE      CODE     ---       #1260
      01002EEBH   LINE      CODE     ---       #1265
      01002EEBH   LINE      CODE     ---       #1267
      01002EEBH   LINE      CODE     ---       #1268
      01002EEEH   LINE      CODE     ---       #1271
      01002EF1H   LINE      CODE     ---       #1272
      01002EF4H   LINE      CODE     ---       #1273
      01002EF7H   LINE      CODE     ---       #1274
      01002EF7H   LINE      CODE     ---       #1275
      01002F01H   LINE      CODE     ---       #1276
      01002F04H   LINE      CODE     ---       #1277
      01002F04H   LINE      CODE     ---       #1278
      01002F07H   LINE      CODE     ---       #1279
      01002F07H   LINE      CODE     ---       #1280
      01002F07H   LINE      CODE     ---       #1283
      01002F07H   LINE      CODE     ---       #1285
      01002F51H   LINE      CODE     ---       #1286
      01002F51H   LINE      CODE     ---       #1287
      01002F51H   LINE      CODE     ---       #1288
      01002F51H   LINE      CODE     ---       #1289
      01002F51H   LINE      CODE     ---       #1292
      01002F5CH   LINE      CODE     ---       #1293
      01002F5CH   LINE      CODE     ---       #1294
      01002F5EH   LINE      CODE     ---       #1295
      01002F5EH   LINE      CODE     ---       #1296
      01002F5EH   LINE      CODE     ---       #1297
      01002F5EH   LINE      CODE     ---       #1298
      01002F5EH   LINE      CODE     ---       #1299
      01002F5EH   LINE      CODE     ---       #1300
      01002F5EH   LINE      CODE     ---       #1301
      01002F5EH   LINE      CODE     ---       #1302
      01002F5EH   LINE      CODE     ---       #1303
      01002F61H   LINE      CODE     ---       #1304
      01002F66H   LINE      CODE     ---       #1305
      01002F68H   LINE      CODE     ---       #1306
      01002F68H   LINE      CODE     ---       #1307
      01002F68H   LINE      CODE     ---       #1308
      01002F68H   LINE      CODE     ---       #1309
      01002F68H   LINE      CODE     ---       #1310
      01002F68H   LINE      CODE     ---       #1311
      01002F68H   LINE      CODE     ---       #1312
      01002F68H   LINE      CODE     ---       #1313
      01002F68H   LINE      CODE     ---       #1314
      01002F6DH   LINE      CODE     ---       #1315
      01002F77H   LINE      CODE     ---       #1316
      01002F7AH   LINE      CODE     ---       #1318
      01002F7FH   LINE      CODE     ---       #1319
      01002F7FH   LINE      CODE     ---       #1320
      01002F81H   LINE      CODE     ---       #1321
      01002F81H   LINE      CODE     ---       #1322
      01002F81H   LINE      CODE     ---       #1323
      01002F81H   LINE      CODE     ---       #1324
      01002F86H   LINE      CODE     ---       #1325
LX51 LINKER/LOCATER V3.51                                                             01/27/2014  09:14:18  PAGE 107


      01002F89H   LINE      CODE     ---       #1327
      01002F8EH   LINE      CODE     ---       #1328
      01002F90H   LINE      CODE     ---       #1329
      01002F90H   LINE      CODE     ---       #1330
      01002F90H   LINE      CODE     ---       #1331
      01002F95H   LINE      CODE     ---       #1332
      01002FA4H   LINE      CODE     ---       #1333
      01002FA6H   LINE      CODE     ---       #1334
      01002FA6H   LINE      CODE     ---       #1335
      01002FABH   LINE      CODE     ---       #1336
      01002FB1H   LINE      CODE     ---       #1337
      01002FB7H   LINE      CODE     ---       #1338
      01002FBAH   LINE      CODE     ---       #1339
      01002FBDH   LINE      CODE     ---       #1341
      01002FC6H   LINE      CODE     ---       #1342
      01002FC6H   LINE      CODE     ---       #1343
      01002FC6H   LINE      CODE     ---       #1344
      01002FC6H   LINE      CODE     ---       #1345
      01002FC6H   LINE      CODE     ---       #1346
      01002FC6H   LINE      CODE     ---       #1347
      01002FD8H   LINE      CODE     ---       #1348
      01002FDEH   LINE      CODE     ---       #1349
      01002FEDH   LINE      CODE     ---       #1350
      01002FF5H   LINE      CODE     ---       #1354
      01003003H   LINE      CODE     ---       #1359
      0100301AH   LINE      CODE     ---       #1360
      0100302DH   LINE      CODE     ---       #1361
      01003035H   LINE      CODE     ---       #1362
      01003044H   LINE      CODE     ---       #1363
      01003044H   LINE      CODE     ---       #1364
      01003048H   LINE      CODE     ---       #1365
      01003067H   LINE      CODE     ---       #1366
      01003075H   LINE      CODE     ---       #1367
      01003075H   LINE      CODE     ---       #1368
      01003077H   LINE      CODE     ---       #1369
      0100307EH   LINE      CODE     ---       #1370
      0100307EH   LINE      CODE     ---       #1371
      01003084H   LINE      CODE     ---       #1372
      01003084H   LINE      CODE     ---       #1373
      01003084H   LINE      CODE     ---       #1374
      0100308BH   LINE      CODE     ---       #1375
      01003094H   LINE      CODE     ---       #1376
      0100309CH   LINE      CODE     ---       #1377
      010030A4H   LINE      CODE     ---       #1378
      010030A7H   LINE      CODE     ---       #1379
      010030A7H   LINE      CODE     ---       #1380
      010030A7H   LINE      CODE     ---       #1381
      010030AEH   LINE      CODE     ---       #1382
      010030AEH   LINE      CODE     ---       #1383
      010030B4H   LINE      CODE     ---       #1384
      010030B4H   LINE      CODE     ---       #1387
      010030B4H   LINE      CODE     ---       #1388
      010030B4H   LINE      CODE     ---       #1389
      010030B7H   LINE      CODE     ---       #1390
      010030B7H   LINE      CODE     ---       #1391
      010030BAH   LINE      CODE     ---       #1392
      010030BEH   LINE      CODE     ---       #1393
      010030C4H   LINE      CODE     ---       #1396
      010030D0H   LINE      CODE     ---       #1397
      010030D2H   LINE      CODE     ---       #1399
      010030D2H   LINE      CODE     ---       #1402
      010030F0H   LINE      CODE     ---       #1403
      01003103H   LINE      CODE     ---       #1404
      01003108H   LINE      CODE     ---       #1405
      0100310CH   LINE      CODE     ---       #1406
LX51 LINKER/LOCATER V3.51                                                             01/27/2014  09:14:18  PAGE 108


      01003114H   LINE      CODE     ---       #1407
      01003127H   LINE      CODE     ---       #1408
      0100313DH   LINE      CODE     ---       #1409
      0100313DH   LINE      CODE     ---       #1410
      0100314AH   LINE      CODE     ---       #1411
      0100314AH   LINE      CODE     ---       #1413
      0100314AH   LINE      CODE     ---       #1422
      0100314AH   LINE      CODE     ---       #1424
      0100314AH   LINE      CODE     ---       #1425
      0100314AH   LINE      CODE     ---       #1426
      0100314AH   LINE      CODE     ---       #1427
      0100314AH   LINE      CODE     ---       #1430
      0100314AH   LINE      CODE     ---       #1433
      0100314FH   LINE      CODE     ---       #1434
      0100315BH   LINE      CODE     ---       #1435
      0100315EH   LINE      CODE     ---       #1436
      01003169H   LINE      CODE     ---       #1437
      01003169H   LINE      CODE     ---       #1438
      01003169H   LINE      CODE     ---       #1439
      01003169H   LINE      CODE     ---       #1441
      01003169H   LINE      CODE     ---       #1445
      01003169H   LINE      CODE     ---       #1446
      01003169H   LINE      CODE     ---       #1447
      01003171H   LINE      CODE     ---       #1448
      01003173H   LINE      CODE     ---       #1449
      01003173H   LINE      CODE     ---       #1451
      0100317AH   LINE      CODE     ---       #1453
      0100317AH   LINE      CODE     ---       #1454
      0100317CH   LINE      CODE     ---       #1455
      0100317CH   LINE      CODE     ---       #1456
      01003183H   LINE      CODE     ---       #1457
      01003188H   LINE      CODE     ---       #1458
      01003188H   LINE      CODE     ---       #1459
      01003190H   LINE      CODE     ---       #1460
      01003194H   LINE      CODE     ---       #1461
      01003194H   LINE      CODE     ---       #1462
      01003196H   LINE      CODE     ---       #1463
      01003196H   LINE      CODE     ---       #1464
      01003196H   LINE      CODE     ---       #1466
      01003196H   LINE      CODE     ---       #1468
      01003196H   LINE      CODE     ---       #1470
      01003196H   LINE      CODE     ---       #1471
      01003198H   LINE      CODE     ---       #1472
      01003198H   LINE      CODE     ---       #1474
      0100319FH   LINE      CODE     ---       #1475
      010031A2H   LINE      CODE     ---       #1476
      010031A2H   LINE      CODE     ---       #1478
      010031B1H   LINE      CODE     ---       #1480
      010031B4H   LINE      CODE     ---       #1481
      010031B7H   LINE      CODE     ---       #1484
      010031C4H   LINE      CODE     ---       #1485
      010031CDH   LINE      CODE     ---       #1489
      010031CDH   LINE      CODE     ---       #1491
      010031D2H   LINE      CODE     ---       #1492
      010031D2H   LINE      CODE     ---       #1493
      010031D2H   LINE      CODE     ---       #1494
      010031D6H   LINE      CODE     ---       #1505
      ---         BLOCKEND  ---      ---       LVL=0

      01005406H   BLOCK     CODE     ---       LVL=0
      00000023H   SYMBOL    XSTK     ---       buffer
      00000026H   SYMBOL    XSTK     BYTE      length
      00000000H   SYMBOL    XSTK     WORD      status
      00000002H   SYMBOL    XSTK     BYTE      i
      00000003H   SYMBOL    XSTK     BYTE      size
LX51 LINKER/LOCATER V3.51                                                             01/27/2014  09:14:18  PAGE 109


      00000004H   SYMBOL    XSTK     BYTE      tag
      00000005H   SYMBOL    XSTK     ---       temp_fs
      00000017H   SYMBOL    XSTK     ---       chv
      01005406H   LINE      CODE     ---       #1555
      01005414H   LINE      CODE     ---       #1556
      0100541CH   LINE      CODE     ---       #1557
      01005422H   LINE      CODE     ---       #1562
      01005437H   LINE      CODE     ---       #1563
      01005447H   LINE      CODE     ---       #1564
      01005452H   LINE      CODE     ---       #1565
      010054EAH   LINE      CODE     ---       #1566
      010054EAH   LINE      CODE     ---       #1567
      010054EAH   LINE      CODE     ---       #1568
      010054EAH   LINE      CODE     ---       #1569
      010054F3H   LINE      CODE     ---       #1570
      01005502H   LINE      CODE     ---       #1571
      0100550DH   LINE      CODE     ---       #1572
      0100550DH   LINE      CODE     ---       #1573
      01005522H   LINE      CODE     ---       #1574
      01005522H   LINE      CODE     ---       #1575
      01005522H   LINE      CODE     ---       #1576
      0100552FH   LINE      CODE     ---       #1577
      01005537H   LINE      CODE     ---       #1579
      0100553AH   LINE      CODE     ---       #1580
      0100553AH   LINE      CODE     ---       #1581
      01005547H   LINE      CODE     ---       #1582
      0100554FH   LINE      CODE     ---       #1584
      01005552H   LINE      CODE     ---       #1585
      01005552H   LINE      CODE     ---       #1586
      0100555AH   LINE      CODE     ---       #1587
      01005573H   LINE      CODE     ---       #1588
      01005573H   LINE      CODE     ---       #1590
      01005575H   LINE      CODE     ---       #1591
      01005575H   LINE      CODE     ---       #1592
      0100557DH   LINE      CODE     ---       #1593
      01005596H   LINE      CODE     ---       #1594
      01005596H   LINE      CODE     ---       #1596
      01005598H   LINE      CODE     ---       #1597
      01005598H   LINE      CODE     ---       #1598
      010055A0H   LINE      CODE     ---       #1599
      010055C5H   LINE      CODE     ---       #1600
      010055CCH   LINE      CODE     ---       #1602
      010055CFH   LINE      CODE     ---       #1603
      010055CFH   LINE      CODE     ---       #1604
      010055D7H   LINE      CODE     ---       #1605
      010055FCH   LINE      CODE     ---       #1606
      01005603H   LINE      CODE     ---       #1608
      01005605H   LINE      CODE     ---       #1609
      01005605H   LINE      CODE     ---       #1610
      01005605H   LINE      CODE     ---       #1611
      01005605H   LINE      CODE     ---       #1612
      01005612H   LINE      CODE     ---       #1613
      01005632H   LINE      CODE     ---       #1614
      01005639H   LINE      CODE     ---       #1616
      0100563BH   LINE      CODE     ---       #1617
      0100563BH   LINE      CODE     ---       #1618
      01005648H   LINE      CODE     ---       #1619
      01005668H   LINE      CODE     ---       #1620
      01005672H   LINE      CODE     ---       #1622
      01005675H   LINE      CODE     ---       #1623
      01005675H   LINE      CODE     ---       #1624
      0100567BH   LINE      CODE     ---       #1625
      01005684H   LINE      CODE     ---       #1626
      01005686H   LINE      CODE     ---       #1627
      01005691H   LINE      CODE     ---       #1628
LX51 LINKER/LOCATER V3.51                                                             01/27/2014  09:14:18  PAGE 110


      01005691H   LINE      CODE     ---       #1629
      010056A6H   LINE      CODE     ---       #1630
      010056A6H   LINE      CODE     ---       #1631
      010056A6H   LINE      CODE     ---       #1632
      010056ACH   LINE      CODE     ---       #1633
      010056B5H   LINE      CODE     ---       #1634
      010056B7H   LINE      CODE     ---       #1635
      010056C2H   LINE      CODE     ---       #1636
      010056DCH   LINE      CODE     ---       #1637
      010056F1H   LINE      CODE     ---       #1638
      010056F1H   LINE      CODE     ---       #1639
      010056F1H   LINE      CODE     ---       #1640
      010056F1H   LINE      CODE     ---       #1641
      010056F7H   LINE      CODE     ---       #1642
      01005702H   LINE      CODE     ---       #1643
      0100570DH   LINE      CODE     ---       #1644
      01005727H   LINE      CODE     ---       #1645
      0100573CH   LINE      CODE     ---       #1646
      0100573CH   LINE      CODE     ---       #1647
      0100573CH   LINE      CODE     ---       #1648
      0100573CH   LINE      CODE     ---       #1649
      01005742H   LINE      CODE     ---       #1650
      0100574DH   LINE      CODE     ---       #1651
      01005758H   LINE      CODE     ---       #1652
      01005772H   LINE      CODE     ---       #1653
      01005787H   LINE      CODE     ---       #1654
      01005787H   LINE      CODE     ---       #1655
      01005787H   LINE      CODE     ---       #1656
      01005787H   LINE      CODE     ---       #1657
      01005787H   LINE      CODE     ---       #1658
      01005787H   LINE      CODE     ---       #1659
      01005787H   LINE      CODE     ---       #1660
      01005787H   LINE      CODE     ---       #1661
      01005787H   LINE      CODE     ---       #1662
      01005787H   LINE      CODE     ---       #1663
      01005787H   LINE      CODE     ---       #1664
      01005787H   LINE      CODE     ---       #1665
      01005787H   LINE      CODE     ---       #1666
      01005787H   LINE      CODE     ---       #1667
      01005787H   LINE      CODE     ---       #1668
      01005787H   LINE      CODE     ---       #1669
      01005787H   LINE      CODE     ---       #1670
      01005787H   LINE      CODE     ---       #1671
      01005787H   LINE      CODE     ---       #1672
      01005787H   LINE      CODE     ---       #1673
      01005787H   LINE      CODE     ---       #1674
      01005787H   LINE      CODE     ---       #1675
      01005787H   LINE      CODE     ---       #1676
      01005787H   LINE      CODE     ---       #1677
      01005787H   LINE      CODE     ---       #1678
      01005787H   LINE      CODE     ---       #1679
      01005787H   LINE      CODE     ---       #1680
      01005787H   LINE      CODE     ---       #1681
      01005787H   LINE      CODE     ---       #1682
      01005787H   LINE      CODE     ---       #1683
      01005787H   LINE      CODE     ---       #1684
      01005787H   LINE      CODE     ---       #1685
      01005787H   LINE      CODE     ---       #1686
      01005787H   LINE      CODE     ---       #1687
      0100578DH   LINE      CODE     ---       #1688
      01005796H   LINE      CODE     ---       #1689
      010057A5H   LINE      CODE     ---       #1690
      010057B0H   LINE      CODE     ---       #1691
      010057D0H   LINE      CODE     ---       #1692
      010057E1H   LINE      CODE     ---       #1693
LX51 LINKER/LOCATER V3.51                                                             01/27/2014  09:14:18  PAGE 111


      010057E1H   LINE      CODE     ---       #1694
      010057E1H   LINE      CODE     ---       #1695
      010057EAH   LINE      CODE     ---       #1696
      010057F0H   LINE      CODE     ---       #1697
      010057F9H   LINE      CODE     ---       #1698
      01005808H   LINE      CODE     ---       #1699
      01005812H   LINE      CODE     ---       #1700
      01005832H   LINE      CODE     ---       #1701
      01005843H   LINE      CODE     ---       #1702
      01005843H   LINE      CODE     ---       #1703
      01005843H   LINE      CODE     ---       #1704
      01005843H   LINE      CODE     ---       #1705
      01005850H   LINE      CODE     ---       #1706
      01005853H   LINE      CODE     ---       #1707
      0100585BH   LINE      CODE     ---       #1708
      ---         BLOCKEND  ---      ---       LVL=0

      0100F624H   BLOCK     CODE     ---       LVL=0
      00000000H   SYMBOL    XSTK     ---       buffer
      00000003H   SYMBOL    XSTK     BYTE      length
      0100F624H   LINE      CODE     ---       #1710
      0100F62CH   LINE      CODE     ---       #1732
      0100F642H   LINE      CODE     ---       #1733
      0100F647H   LINE      CODE     ---       #1734
      0100F64FH   LINE      CODE     ---       #1738
      ---         BLOCKEND  ---      ---       LVL=0

      0100F7C3H   BLOCK     CODE     ---       LVL=0
      0100F7C3H   LINE      CODE     ---       #1740
      0100F7C3H   LINE      CODE     ---       #1742
      0100F7CCH   LINE      CODE     ---       #1743
      0100F7D4H   LINE      CODE     ---       #1744
      0100F7DAH   LINE      CODE     ---       #1746
      0100F7E1H   LINE      CODE     ---       #1749
      ---         BLOCKEND  ---      ---       LVL=0

      0100F952H   BLOCK     CODE     ---       LVL=0
      0100F952H   LINE      CODE     ---       #1752
      0100F952H   LINE      CODE     ---       #1753
      0100F95BH   LINE      CODE     ---       #1754
      0100F963H   LINE      CODE     ---       #1755
      0100F966H   LINE      CODE     ---       #1756
      0100F969H   LINE      CODE     ---       #1757
      0100F969H   LINE      CODE     ---       #1758
      ---         BLOCKEND  ---      ---       LVL=0

      0100FA58H   BLOCK     CODE     ---       LVL=0
      0100FA58H   LINE      CODE     ---       #1760
      0100FA58H   LINE      CODE     ---       #1761
      0100FA5EH   LINE      CODE     ---       #1762
      ---         BLOCKEND  ---      ---       LVL=0

      0100F998H   BLOCK     CODE     ---       LVL=0
      00000000H   SYMBOL    XSTK     WORD      status
      0100F998H   LINE      CODE     ---       #1765
      0100F99BH   LINE      CODE     ---       #1770
      0100F9A1H   LINE      CODE     ---       #1773
      0100F9A9H   LINE      CODE     ---       #1774
      ---         BLOCKEND  ---      ---       LVL=0

      0100EA12H   BLOCK     CODE     ---       LVL=0
      00000002H   SYMBOL    XSTK     WORD      pos
      00000004H   SYMBOL    XSTK     ---       bytes
      00000007H   SYMBOL    XSTK     WORD      length
      00000007H   SYMBOL    XDATA    WORD      len
LX51 LINKER/LOCATER V3.51                                                             01/27/2014  09:14:18  PAGE 112


      0100EA12H   LINE      CODE     ---       #1776
      0100EA1DH   LINE      CODE     ---       #1781
      0100EA2FH   LINE      CODE     ---       #1782
      0100EA48H   LINE      CODE     ---       #1784
      0100EA69H   LINE      CODE     ---       #1785
      0100EA69H   LINE      CODE     ---       #1786
      0100EA6DH   LINE      CODE     ---       #1787
      0100EA6DH   LINE      CODE     ---       #1788
      ---         BLOCKEND  ---      ---       LVL=0

      0100FAC3H   BLOCK     CODE     ---       LVL=0
      0100FAC3H   LINE      CODE     ---       #1790
      0100FAC3H   LINE      CODE     ---       #1791
      0100FACAH   LINE      CODE     ---       #1792
      0100FACEH   LINE      CODE     ---       #1793
      ---         BLOCKEND  ---      ---       LVL=0

      0100F91BH   BLOCK     CODE     ---       LVL=0
      00000000H   SYMBOL    XDATA    ---       inbuf
      00000003H   SYMBOL    XDATA    ---       outbuf
      00000000H   SYMBOL    XSTK     WORD      status
      0100F91BH   LINE      CODE     ---       #1795
      0100F921H   LINE      CODE     ---       #1796
      0100F929H   LINE      CODE     ---       #1801
      0100F931H   LINE      CODE     ---       #1802
      ---         BLOCKEND  ---      ---       LVL=0

      ---         MODULE    ---      ---       APPLICATION
      020006B5H   PUBLIC    XDATA    BYTE      tsel_nsp
      020006B4H   PUBLIC    XDATA    BYTE      tsel_menu
      020006B2H   PUBLIC    XDATA    WORD      _default_menu_offset
      020006B1H   PUBLIC    XDATA    BYTE      is_sending_reg
      020006B0H   PUBLIC    XDATA    BYTE      tsel_pulsa
      020006AFH   PUBLIC    XDATA    BYTE      tsel_lang
      020006ACH   PUBLIC    XDATA    ---       y_variable
      020006A9H   PUBLIC    XDATA    ---       x_variable
      01000200H   PUBLIC    CODE     ---       _?user_callback
      0100F740H   PUBLIC    CODE     ---       _?user_packet_decode
      0100C27BH   PUBLIC    CODE     ---       _?is_date_valid
      0100F048H   PUBLIC    CODE     ---       _?is_leap_year
      01008001H   PUBLIC    CODE     ---       _?send_registration
      0100EAD3H   PUBLIC    CODE     ---       _?remove_null
      000000A8H   SFRSYM    DATA     BYTE      IE
      00000088H   SFRSYM    DATA     BYTE      TCON
      000000C0H   SFRSYM    DATA     BYTE      DESCTL
      000000E8H   SFRSYM    DATA     BYTE      FL_STS
      000000D8H   SFRSYM    DATA     BYTE      USR

      0100736CH   BLOCK     CODE     ---       LVL=0
      ---         BLOCKEND  ---      ---       LVL=0

      0100EAD3H   BLOCK     CODE     ---       LVL=0
      00000002H   SYMBOL    XSTK     ---       buffer_in
      00000005H   SYMBOL    XSTK     BYTE      size
      00000006H   SYMBOL    XSTK     ---       buffer_out
      00000000H   SYMBOL    XSTK     BYTE      i
      00000001H   SYMBOL    XSTK     BYTE      j
      0100EAD3H   LINE      CODE     ---       #67
      0100EADEH   LINE      CODE     ---       #69
      0100EAE4H   LINE      CODE     ---       #70
      0100EAF8H   LINE      CODE     ---       #71
      0100EB08H   LINE      CODE     ---       #72
      0100EB1FH   LINE      CODE     ---       #73
      0100EB1FH   LINE      CODE     ---       #74
      0100EB27H   LINE      CODE     ---       #75
LX51 LINKER/LOCATER V3.51                                                             01/27/2014  09:14:18  PAGE 113


      0100EB2DH   LINE      CODE     ---       #76
      ---         BLOCKEND  ---      ---       LVL=0

      01008001H   BLOCK     CODE     ---       LVL=0
      0000000EH   SYMBOL    XSTK     BYTE      mode
      00000000H   SYMBOL    XSTK     ---       cb_fs
      00000008H   SYMBOL    XSTK     ---       temp
      0000000BH   SYMBOL    XSTK     BYTE      len
      0000000CH   SYMBOL    XSTK     BYTE      res
      0000000DH   SYMBOL    XSTK     BYTE      i
      01008001H   LINE      CODE     ---       #88
      0100800CH   LINE      CODE     ---       #93
      01008011H   LINE      CODE     ---       #94
      0100801CH   LINE      CODE     ---       #95
      01008028H   LINE      CODE     ---       #97
      01008038H   LINE      CODE     ---       #98
      01008050H   LINE      CODE     ---       #99
      01008050H   LINE      CODE     ---       #100
      01008059H   LINE      CODE     ---       #101
      0100805FH   LINE      CODE     ---       #102
      01008061H   LINE      CODE     ---       #103
      01008061H   LINE      CODE     ---       #104
      0100806AH   LINE      CODE     ---       #105
      01008070H   LINE      CODE     ---       #106
      01008070H   LINE      CODE     ---       #107
      01008097H   LINE      CODE     ---       #108
      010080A8H   LINE      CODE     ---       #109
      010080B5H   LINE      CODE     ---       #110
      010080C2H   LINE      CODE     ---       #111
      010080CFH   LINE      CODE     ---       #112
      010080DCH   LINE      CODE     ---       #113
      010080E9H   LINE      CODE     ---       #114
      010080F6H   LINE      CODE     ---       #115
      01008103H   LINE      CODE     ---       #116
      01008110H   LINE      CODE     ---       #117
      0100811DH   LINE      CODE     ---       #118
      01008129H   LINE      CODE     ---       #119
      01008140H   LINE      CODE     ---       #120
      01008140H   LINE      CODE     ---       #121
      0100814FH   LINE      CODE     ---       #122
      0100816FH   LINE      CODE     ---       #124
      01008172H   LINE      CODE     ---       #125
      0100817BH   LINE      CODE     ---       #126
      0100817DH   LINE      CODE     ---       #127
      0100817DH   LINE      CODE     ---       #128
      0100818CH   LINE      CODE     ---       #129
      01008194H   LINE      CODE     ---       #130
      01008194H   LINE      CODE     ---       #131
      010081A3H   LINE      CODE     ---       #132
      010081C3H   LINE      CODE     ---       #134
      010081CCH   LINE      CODE     ---       #135
      010081CFH   LINE      CODE     ---       #136
      010081CFH   LINE      CODE     ---       #137
      010081CFH   LINE      CODE     ---       #138
      010081DCH   LINE      CODE     ---       #139
      010081E6H   LINE      CODE     ---       #140
      010081F2H   LINE      CODE     ---       #141
      010081FAH   LINE      CODE     ---       #142
      010081FCH   LINE      CODE     ---       #143
      0100820BH   LINE      CODE     ---       #144
      01008216H   LINE      CODE     ---       #146
      01008216H   LINE      CODE     ---       #147
      0100823DH   LINE      CODE     ---       #148
      01008246H   LINE      CODE     ---       #149
      01008249H   LINE      CODE     ---       #153
LX51 LINKER/LOCATER V3.51                                                             01/27/2014  09:14:18  PAGE 114


      ---         BLOCKEND  ---      ---       LVL=0

      0100F048H   BLOCK     CODE     ---       LVL=0
      00000000H   SYMBOL    XSTK     WORD      year
      0100F048H   LINE      CODE     ---       #155
      0100F050H   LINE      CODE     ---       #156
      0100F05CH   LINE      CODE     ---       #157
      0100F066H   LINE      CODE     ---       #158
      0100F07BH   LINE      CODE     ---       #159
      0100F07DH   LINE      CODE     ---       #160
      0100F07DH   LINE      CODE     ---       #161
      0100F07FH   LINE      CODE     ---       #162
      0100F07FH   LINE      CODE     ---       #163
      0100F07FH   LINE      CODE     ---       #164
      0100F083H   LINE      CODE     ---       #165
      0100F083H   LINE      CODE     ---       #166
      0100F083H   LINE      CODE     ---       #167
      0100F085H   LINE      CODE     ---       #168
      0100F085H   LINE      CODE     ---       #169
      ---         BLOCKEND  ---      ---       LVL=0

      0100C27BH   BLOCK     CODE     ---       LVL=0
      00000004H   SYMBOL    XSTK     ---       buffer
      00000000H   SYMBOL    XSTK     BYTE      tgl
      00000001H   SYMBOL    XSTK     BYTE      bln
      00000002H   SYMBOL    XSTK     WORD      thn
      0100C27BH   LINE      CODE     ---       #171
      0100C284H   LINE      CODE     ---       #175
      0100C293H   LINE      CODE     ---       #176
      0100C29CH   LINE      CODE     ---       #177
      0100C2A9H   LINE      CODE     ---       #178
      0100C2B3H   LINE      CODE     ---       #179
      0100C2C5H   LINE      CODE     ---       #180
      0100C2CEH   LINE      CODE     ---       #181
      0100C2DDH   LINE      CODE     ---       #182
      0100C2F6H   LINE      CODE     ---       #183
      0100C302H   LINE      CODE     ---       #184
      0100C313H   LINE      CODE     ---       #185
      0100C31FH   LINE      CODE     ---       #186
      0100C34BH   LINE      CODE     ---       #187
      0100C34BH   LINE      CODE     ---       #188
      0100C34BH   LINE      CODE     ---       #189
      0100C34BH   LINE      CODE     ---       #190
      0100C34BH   LINE      CODE     ---       #191
      0100C34BH   LINE      CODE     ---       #192
      0100C34BH   LINE      CODE     ---       #193
      0100C34BH   LINE      CODE     ---       #194
      0100C355H   LINE      CODE     ---       #195
      0100C355H   LINE      CODE     ---       #196
      0100C355H   LINE      CODE     ---       #197
      0100C355H   LINE      CODE     ---       #198
      0100C355H   LINE      CODE     ---       #199
      0100C355H   LINE      CODE     ---       #200
      0100C362H   LINE      CODE     ---       #201
      0100C362H   LINE      CODE     ---       #202
      0100C362H   LINE      CODE     ---       #203
      0100C36CH   LINE      CODE     ---       #204
      0100C379H   LINE      CODE     ---       #205
      0100C379H   LINE      CODE     ---       #206
      0100C386H   LINE      CODE     ---       #207
      0100C386H   LINE      CODE     ---       #208
      0100C386H   LINE      CODE     ---       #209
      0100C386H   LINE      CODE     ---       #210
      0100C388H   LINE      CODE     ---       #211
      ---         BLOCKEND  ---      ---       LVL=0
LX51 LINKER/LOCATER V3.51                                                             01/27/2014  09:14:18  PAGE 115



      0100F740H   BLOCK     CODE     ---       LVL=0
      00000000H   SYMBOL    XSTK     ---       buffer
      00000003H   SYMBOL    XDATA    ---       address
      00000006H   SYMBOL    XDATA    BYTE      length
      0100F740H   LINE      CODE     ---       #213
      0100F743H   LINE      CODE     ---       #214
      0100F75CH   LINE      CODE     ---       #215
      0100F763H   LINE      CODE     ---       #216
      0100F763H   LINE      CODE     ---       #217
      0100F767H   LINE      CODE     ---       #218
      ---         BLOCKEND  ---      ---       LVL=0

      01000200H   BLOCK     CODE     ---       LVL=0
      00000023H   SYMBOL    XSTK     BYTE      state
      00000024H   SYMBOL    XSTK     BYTE      tag
      00000025H   SYMBOL    XSTK     BYTE      size
      00000026H   SYMBOL    XSTK     ---       buffer
      00000000H   SYMBOL    XSTK     BYTE      result
      00000007H   SYMBOL    XDATA    BYTE      len
      00000002H   SYMBOL    XSTK     WORD      i
      00000004H   SYMBOL    XSTK     ---       temp
      00000007H   SYMBOL    XSTK     ---       sex
      0000000AH   SYMBOL    XSTK     ---       agama
      0000000DH   SYMBOL    XSTK     ---       hobi
      00000010H   SYMBOL    XSTK     ---       nama
      00000013H   SYMBOL    XSTK     ---       klahir
      00000016H   SYMBOL    XSTK     ---       tlahir
      00000019H   SYMBOL    XSTK     ---       cb_fs
      00000021H   SYMBOL    XSTK     BYTE      res
      00000022H   SYMBOL    XSTK     BYTE      dcs
      01000200H   LINE      CODE     ---       #220
      01000215H   LINE      CODE     ---       #221
      0100021AH   LINE      CODE     ---       #241
      01000224H   LINE      CODE     ---       #246
      01000240H   LINE      CODE     ---       #247
      01000240H   LINE      CODE     ---       #248
      01000240H   LINE      CODE     ---       #249
      01000240H   LINE      CODE     ---       #250
      01000243H   LINE      CODE     ---       #251
      0100027AH   LINE      CODE     ---       #252
      0100027AH   LINE      CODE     ---       #253
      01000288H   LINE      CODE     ---       #254
      0100028BH   LINE      CODE     ---       #256
      01000290H   LINE      CODE     ---       #257
      01000296H   LINE      CODE     ---       #258
      0100029CH   LINE      CODE     ---       #260
      0100029CH   LINE      CODE     ---       #262
      010002ABH   LINE      CODE     ---       #263
      010002AEH   LINE      CODE     ---       #264
      010002AEH   LINE      CODE     ---       #265
      010002AEH   LINE      CODE     ---       #266
      010002B9H   LINE      CODE     ---       #267
      010002C5H   LINE      CODE     ---       #268
      010002CEH   LINE      CODE     ---       #269
      010002CEH   LINE      CODE     ---       #270
      010002D1H   LINE      CODE     ---       #271
      010002D1H   LINE      CODE     ---       #272
      010002D1H   LINE      CODE     ---       #273
      010002DCH   LINE      CODE     ---       #274
      010002E8H   LINE      CODE     ---       #275
      010002F1H   LINE      CODE     ---       #276
      010002F1H   LINE      CODE     ---       #277
      010002F3H   LINE      CODE     ---       #278
      010002F3H   LINE      CODE     ---       #279
LX51 LINKER/LOCATER V3.51                                                             01/27/2014  09:14:18  PAGE 116


      010002F3H   LINE      CODE     ---       #280
      010002FEH   LINE      CODE     ---       #281
      0100030AH   LINE      CODE     ---       #282
      01000313H   LINE      CODE     ---       #283
      01000313H   LINE      CODE     ---       #284
      01000315H   LINE      CODE     ---       #285
      01000315H   LINE      CODE     ---       #286
      01000315H   LINE      CODE     ---       #287
      01000320H   LINE      CODE     ---       #288
      0100032CH   LINE      CODE     ---       #289
      01000335H   LINE      CODE     ---       #290
      01000335H   LINE      CODE     ---       #291
      01000337H   LINE      CODE     ---       #292
      01000337H   LINE      CODE     ---       #293
      01000337H   LINE      CODE     ---       #294
      01000342H   LINE      CODE     ---       #295
      0100034EH   LINE      CODE     ---       #296
      01000358H   LINE      CODE     ---       #297
      01000360H   LINE      CODE     ---       #298
      01000363H   LINE      CODE     ---       #299
      01000363H   LINE      CODE     ---       #300
      01000370H   LINE      CODE     ---       #301
      01000377H   LINE      CODE     ---       #302
      01000389H   LINE      CODE     ---       #303
      0100038FH   LINE      CODE     ---       #304
      01000397H   LINE      CODE     ---       #305
      0100039BH   LINE      CODE     ---       #306
      010003A0H   LINE      CODE     ---       #307
      010003A6H   LINE      CODE     ---       #308
      010003B4H   LINE      CODE     ---       #309
      010003B9H   LINE      CODE     ---       #310
      010003BBH   LINE      CODE     ---       #311
      010003BBH   LINE      CODE     ---       #312
      010003C3H   LINE      CODE     ---       #313
      010003C3H   LINE      CODE     ---       #314
      010003C8H   LINE      CODE     ---       #315
      010003DEH   LINE      CODE     ---       #316
      010003F6H   LINE      CODE     ---       #317
      010003FCH   LINE      CODE     ---       #318
      01000402H   LINE      CODE     ---       #320
      01000402H   LINE      CODE     ---       #321
      01000405H   LINE      CODE     ---       #322
      01000405H   LINE      CODE     ---       #323
      01000412H   LINE      CODE     ---       #324
      01000419H   LINE      CODE     ---       #325
      0100041DH   LINE      CODE     ---       #326
      01000423H   LINE      CODE     ---       #327
      01000433H   LINE      CODE     ---       #328
      01000438H   LINE      CODE     ---       #329
      0100043AH   LINE      CODE     ---       #330
      01000449H   LINE      CODE     ---       #331
      01000451H   LINE      CODE     ---       #332
      01000451H   LINE      CODE     ---       #333
      01000465H   LINE      CODE     ---       #334
      0100046BH   LINE      CODE     ---       #335
      01000471H   LINE      CODE     ---       #336
      01000471H   LINE      CODE     ---       #337
      01000474H   LINE      CODE     ---       #338
      01000474H   LINE      CODE     ---       #339
      0100047FH   LINE      CODE     ---       #340
      01000485H   LINE      CODE     ---       #341
      0100048EH   LINE      CODE     ---       #342
      01000497H   LINE      CODE     ---       #343
      01000499H   LINE      CODE     ---       #344
      0100049BH   LINE      CODE     ---       #345
LX51 LINKER/LOCATER V3.51                                                             01/27/2014  09:14:18  PAGE 117


      010004A8H   LINE      CODE     ---       #346
      010004A8H   LINE      CODE     ---       #347
      010004ABH   LINE      CODE     ---       #348
      010004B5H   LINE      CODE     ---       #349
      010004BFH   LINE      CODE     ---       #350
      010004C9H   LINE      CODE     ---       #351
      010004D2H   LINE      CODE     ---       #352
      010004E4H   LINE      CODE     ---       #353
      01000503H   LINE      CODE     ---       #354
      0100051BH   LINE      CODE     ---       #355
      01000532H   LINE      CODE     ---       #356
      0100053DH   LINE      CODE     ---       #357
      0100053DH   LINE      CODE     ---       #358
      0100055EH   LINE      CODE     ---       #359
      01000580H   LINE      CODE     ---       #360
      01000598H   LINE      CODE     ---       #361
      010005A1H   LINE      CODE     ---       #362
      010005A4H   LINE      CODE     ---       #364
      010005A7H   LINE      CODE     ---       #365
      010005AEH   LINE      CODE     ---       #366
      010005B0H   LINE      CODE     ---       #367
      010005B0H   LINE      CODE     ---       #368
      010005B8H   LINE      CODE     ---       #369
      010005C1H   LINE      CODE     ---       #370
      010005D5H   LINE      CODE     ---       #371
      010005DFH   LINE      CODE     ---       #372
      010005E2H   LINE      CODE     ---       #373
      010005E4H   LINE      CODE     ---       #374
      010005E7H   LINE      CODE     ---       #375
      010005E7H   LINE      CODE     ---       #376
      010005FBH   LINE      CODE     ---       #377
      010005FBH   LINE      CODE     ---       #378
      010005FBH   LINE      CODE     ---       #379
      010005FBH   LINE      CODE     ---       #382
      0100060BH   LINE      CODE     ---       #385
      01000617H   LINE      CODE     ---       #386
      01000619H   LINE      CODE     ---       #387
      01000619H   LINE      CODE     ---       #388
      0100061EH   LINE      CODE     ---       #389
      01000621H   LINE      CODE     ---       #390
      01000626H   LINE      CODE     ---       #391
      01000633H   LINE      CODE     ---       #392
      0100063FH   LINE      CODE     ---       #393
      01000645H   LINE      CODE     ---       #394
      0100064EH   LINE      CODE     ---       #395
      01000657H   LINE      CODE     ---       #396
      01000660H   LINE      CODE     ---       #397
      0100066CH   LINE      CODE     ---       #398
      0100067FH   LINE      CODE     ---       #399
      0100068CH   LINE      CODE     ---       #400
      010006A0H   LINE      CODE     ---       #401
      010006AFH   LINE      CODE     ---       #402
      010006C1H   LINE      CODE     ---       #403
      010006C9H   LINE      CODE     ---       #404
      010006D5H   LINE      CODE     ---       #405
      010006E1H   LINE      CODE     ---       #406
      010006E9H   LINE      CODE     ---       #407
      010006F0H   LINE      CODE     ---       #408
      010006FBH   LINE      CODE     ---       #409
      01000706H   LINE      CODE     ---       #410
      01000718H   LINE      CODE     ---       #411
      01000723H   LINE      CODE     ---       #412
      0100073BH   LINE      CODE     ---       #413
      01000742H   LINE      CODE     ---       #414
      0100074DH   LINE      CODE     ---       #415
LX51 LINKER/LOCATER V3.51                                                             01/27/2014  09:14:18  PAGE 118


      01000765H   LINE      CODE     ---       #416
      01000783H   LINE      CODE     ---       #417
      01000786H   LINE      CODE     ---       #418
      010007A4H   LINE      CODE     ---       #419
      010007A4H   LINE      CODE     ---       #420
      010007A7H   LINE      CODE     ---       #421
      010007B2H   LINE      CODE     ---       #422
      010007C4H   LINE      CODE     ---       #423
      010007CFH   LINE      CODE     ---       #424
      010007E7H   LINE      CODE     ---       #425
      010007EEH   LINE      CODE     ---       #426
      010007F9H   LINE      CODE     ---       #427
      01000811H   LINE      CODE     ---       #428
      0100083BH   LINE      CODE     ---       #429
      0100083DH   LINE      CODE     ---       #430
      0100086AH   LINE      CODE     ---       #431
      0100086AH   LINE      CODE     ---       #432
      0100086AH   LINE      CODE     ---       #433
      01000873H   LINE      CODE     ---       #434
      0100087CH   LINE      CODE     ---       #435
      0100087CH   LINE      CODE     ---       #436
      0100087CH   LINE      CODE     ---       #437
      0100087CH   LINE      CODE     ---       #438
      0100087CH   LINE      CODE     ---       #439
      0100087CH   LINE      CODE     ---       #441
      0100087CH   LINE      CODE     ---       #443
      0100087CH   LINE      CODE     ---       #444
      0100087CH   LINE      CODE     ---       #445
      0100087CH   LINE      CODE     ---       #450
      0100087CH   LINE      CODE     ---       #451
      0100087CH   LINE      CODE     ---       #453
      0100087CH   LINE      CODE     ---       #454
      0100087FH   LINE      CODE     ---       #455
      0100087FH   LINE      CODE     ---       #456
      01000885H   LINE      CODE     ---       #457
      0100088EH   LINE      CODE     ---       #458
      01000897H   LINE      CODE     ---       #459
      010008B0H   LINE      CODE     ---       #461
      010008B2H   LINE      CODE     ---       #462
      010008D3H   LINE      CODE     ---       #463
      010008D3H   LINE      CODE     ---       #464
      010008D3H   LINE      CODE     ---       #465
      010008D3H   LINE      CODE     ---       #466
      010008D6H   LINE      CODE     ---       #467
      01000913H   LINE      CODE     ---       #468
      01000913H   LINE      CODE     ---       #469
      01000913H   LINE      CODE     ---       #470
      01000913H   LINE      CODE     ---       #471
      01000928H   LINE      CODE     ---       #472
      0100092BH   LINE      CODE     ---       #473
      01000937H   LINE      CODE     ---       #474
      01000940H   LINE      CODE     ---       #475
      0100094AH   LINE      CODE     ---       #476
      0100094AH   LINE      CODE     ---       #477
      0100094AH   LINE      CODE     ---       #478
      0100094DH   LINE      CODE     ---       #479
      0100094DH   LINE      CODE     ---       #480
      0100094DH   LINE      CODE     ---       #481
      0100094DH   LINE      CODE     ---       #482
      01000962H   LINE      CODE     ---       #483
      01000965H   LINE      CODE     ---       #484
      01000971H   LINE      CODE     ---       #485
      0100097AH   LINE      CODE     ---       #486
      01000984H   LINE      CODE     ---       #487
      01000984H   LINE      CODE     ---       #488
LX51 LINKER/LOCATER V3.51                                                             01/27/2014  09:14:18  PAGE 119


      01000984H   LINE      CODE     ---       #489
      01000987H   LINE      CODE     ---       #490
      01000987H   LINE      CODE     ---       #491
      01000987H   LINE      CODE     ---       #492
      01000987H   LINE      CODE     ---       #493
      010009A2H   LINE      CODE     ---       #494
      010009A5H   LINE      CODE     ---       #495
      010009B1H   LINE      CODE     ---       #496
      010009B5H   LINE      CODE     ---       #497
      010009BFH   LINE      CODE     ---       #498
      010009BFH   LINE      CODE     ---       #499
      010009BFH   LINE      CODE     ---       #500
      010009C2H   LINE      CODE     ---       #501
      010009C2H   LINE      CODE     ---       #502
      010009C2H   LINE      CODE     ---       #503
      010009CEH   LINE      CODE     ---       #504
      010009CEH   LINE      CODE     ---       #505
      010009E9H   LINE      CODE     ---       #506
      010009ECH   LINE      CODE     ---       #507
      010009F8H   LINE      CODE     ---       #508
      01000A01H   LINE      CODE     ---       #509
      01000A0BH   LINE      CODE     ---       #510
      01000A0BH   LINE      CODE     ---       #511
      01000A0BH   LINE      CODE     ---       #512
      01000A0EH   LINE      CODE     ---       #513
      01000A14H   LINE      CODE     ---       #514
      01000A14H   LINE      CODE     ---       #515
      01000A17H   LINE      CODE     ---       #516
      01000A17H   LINE      CODE     ---       #517
      01000A17H   LINE      CODE     ---       #518
      01000A1AH   LINE      CODE     ---       #519
      01000A32H   LINE      CODE     ---       #520
      01000A35H   LINE      CODE     ---       #521
      01000A41H   LINE      CODE     ---       #522
      01000A4AH   LINE      CODE     ---       #523
      01000A54H   LINE      CODE     ---       #524
      01000A54H   LINE      CODE     ---       #525
      01000A54H   LINE      CODE     ---       #526
      01000A57H   LINE      CODE     ---       #527
      01000A57H   LINE      CODE     ---       #528
      01000A57H   LINE      CODE     ---       #529
      01000A5AH   LINE      CODE     ---       #530
      01000A72H   LINE      CODE     ---       #531
      01000A75H   LINE      CODE     ---       #532
      01000A81H   LINE      CODE     ---       #533
      01000A85H   LINE      CODE     ---       #534
      01000A8FH   LINE      CODE     ---       #535
      01000A8FH   LINE      CODE     ---       #536
      01000A8FH   LINE      CODE     ---       #537
      01000A91H   LINE      CODE     ---       #538
      01000A91H   LINE      CODE     ---       #539
      01000A91H   LINE      CODE     ---       #540
      01000A9DH   LINE      CODE     ---       #541
      01000AB5H   LINE      CODE     ---       #542
      01000AB8H   LINE      CODE     ---       #543
      01000AC4H   LINE      CODE     ---       #544
      01000AD0H   LINE      CODE     ---       #545
      01000ADFH   LINE      CODE     ---       #546
      01000AEBH   LINE      CODE     ---       #547
      01000AF1H   LINE      CODE     ---       #548
      01000AF4H   LINE      CODE     ---       #549
      01000AF4H   LINE      CODE     ---       #550
      01000B06H   LINE      CODE     ---       #551
      01000B06H   LINE      CODE     ---       #552
      01000B0BH   LINE      CODE     ---       #553
LX51 LINKER/LOCATER V3.51                                                             01/27/2014  09:14:18  PAGE 120


      01000B0BH   LINE      CODE     ---       #554
      01000B0EH   LINE      CODE     ---       #555
      01000B0EH   LINE      CODE     ---       #556
      01000B11H   LINE      CODE     ---       #557
      01000B14H   LINE      CODE     ---       #558
      01000B2CH   LINE      CODE     ---       #559
      01000B31H   LINE      CODE     ---       #560
      01000B37H   LINE      CODE     ---       #561
      01000B47H   LINE      CODE     ---       #562
      01000B4CH   LINE      CODE     ---       #563
      01000B4EH   LINE      CODE     ---       #564
      01000B5EH   LINE      CODE     ---       #565
      01000B66H   LINE      CODE     ---       #566
      01000B66H   LINE      CODE     ---       #567
      01000B6CH   LINE      CODE     ---       #568
      01000B88H   LINE      CODE     ---       #569
      01000B9FH   LINE      CODE     ---       #570
      01000BC4H   LINE      CODE     ---       #571
      01000BE1H   LINE      CODE     ---       #573
      01000BEFH   LINE      CODE     ---       #574
      01000BF5H   LINE      CODE     ---       #575
      01000BFBH   LINE      CODE     ---       #576
      01000C01H   LINE      CODE     ---       #577
      01000C04H   LINE      CODE     ---       #578
      01000C04H   LINE      CODE     ---       #579
      01000C0CH   LINE      CODE     ---       #580
      01000C0CH   LINE      CODE     ---       #581
      01000C0FH   LINE      CODE     ---       #582
      01000C0FH   LINE      CODE     ---       #583
      01000C15H   LINE      CODE     ---       #584
      01000C1CH   LINE      CODE     ---       #585
      01000C37H   LINE      CODE     ---       #586
      01000C3DH   LINE      CODE     ---       #587
      01000C43H   LINE      CODE     ---       #588
      01000C48H   LINE      CODE     ---       #589
      01000C69H   LINE      CODE     ---       #590
      01000C72H   LINE      CODE     ---       #591
      01000C9EH   LINE      CODE     ---       #592
      01000CADH   LINE      CODE     ---       #593
      01000CB3H   LINE      CODE     ---       #594
      01000CB3H   LINE      CODE     ---       #595
      01000CB3H   LINE      CODE     ---       #596
      01000CB6H   LINE      CODE     ---       #597
      01000CBCH   LINE      CODE     ---       #598
      01000CC5H   LINE      CODE     ---       #599
      01000CCAH   LINE      CODE     ---       #600
      01000CCCH   LINE      CODE     ---       #601
      01000CCCH   LINE      CODE     ---       #602
      01000CD4H   LINE      CODE     ---       #603
      01000CD4H   LINE      CODE     ---       #604
      01000CD4H   LINE      CODE     ---       #605
      01000CD4H   LINE      CODE     ---       #606
      01000CD4H   LINE      CODE     ---       #607
      01000CD4H   LINE      CODE     ---       #608
      01000CD4H   LINE      CODE     ---       #609
      01000CD4H   LINE      CODE     ---       #610
      01000CD4H   LINE      CODE     ---       #611
      01000CD7H   LINE      CODE     ---       #612
      01000CD7H   LINE      CODE     ---       #613
      01000CDCH   LINE      CODE     ---       #614
      01000CDCH   LINE      CODE     ---       #615
      01000CDFH   LINE      CODE     ---       #616
      01000CDFH   LINE      CODE     ---       #617
      01000CE2H   LINE      CODE     ---       #618
      01000CE8H   LINE      CODE     ---       #619
LX51 LINKER/LOCATER V3.51                                                             01/27/2014  09:14:18  PAGE 121


      01000D00H   LINE      CODE     ---       #620
      01000D06H   LINE      CODE     ---       #621
      01000D0CH   LINE      CODE     ---       #622
      01000D11H   LINE      CODE     ---       #623
      01000D32H   LINE      CODE     ---       #624
      01000D3DH   LINE      CODE     ---       #625
      01000D43H   LINE      CODE     ---       #626
      01000D43H   LINE      CODE     ---       #627
      01000D43H   LINE      CODE     ---       #628
      01000D46H   LINE      CODE     ---       #629
      01000D4CH   LINE      CODE     ---       #630
      01000D55H   LINE      CODE     ---       #631
      01000D5AH   LINE      CODE     ---       #632
      01000D5CH   LINE      CODE     ---       #633
      01000D5CH   LINE      CODE     ---       #634
      01000D64H   LINE      CODE     ---       #635
      01000D64H   LINE      CODE     ---       #636
      01000D6AH   LINE      CODE     ---       #637
      01000D87H   LINE      CODE     ---       #638
      01000D9FH   LINE      CODE     ---       #639
      01000DA5H   LINE      CODE     ---       #640
      01000DA5H   LINE      CODE     ---       #641
      01000DA5H   LINE      CODE     ---       #642
      01000DA8H   LINE      CODE     ---       #643
      01000DA8H   LINE      CODE     ---       #644
      01000DA8H   LINE      CODE     ---       #645
      01000DA8H   LINE      CODE     ---       #646
      01000DA8H   LINE      CODE     ---       #647
      01000DA8H   LINE      CODE     ---       #648
      01000DAEH   LINE      CODE     ---       #649
      01000DB9H   LINE      CODE     ---       #650
      01000DE4H   LINE      CODE     ---       #651
      01000DF6H   LINE      CODE     ---       #652
      01000E07H   LINE      CODE     ---       #653
      01000E2BH   LINE      CODE     ---       #654
      01000E31H   LINE      CODE     ---       #655
      01000E36H   LINE      CODE     ---       #656
      01000E36H   LINE      CODE     ---       #657
      01000E39H   LINE      CODE     ---       #658
      01000E39H   LINE      CODE     ---       #659
      01000E4BH   LINE      CODE     ---       #660
      01000E55H   LINE      CODE     ---       #661
      01000E7BH   LINE      CODE     ---       #662
      01000E86H   LINE      CODE     ---       #663
      01000E8FH   LINE      CODE     ---       #664
      01000E98H   LINE      CODE     ---       #665
      01000E98H   LINE      CODE     ---       #666
      01000EA9H   LINE      CODE     ---       #667
      01000EB2H   LINE      CODE     ---       #668
      01000EBBH   LINE      CODE     ---       #669
      01000EBBH   LINE      CODE     ---       #670
      01000EC3H   LINE      CODE     ---       #671
      01000ECBH   LINE      CODE     ---       #672
      01000ECDH   LINE      CODE     ---       #676
      01000ED2H   LINE      CODE     ---       #677
      01000ED2H   LINE      CODE     ---       #678
      01000ED5H   LINE      CODE     ---       #679
      01000ED5H   LINE      CODE     ---       #680
      01000EDBH   LINE      CODE     ---       #681
      01000EF0H   LINE      CODE     ---       #682
      01000EFCH   LINE      CODE     ---       #683
      01000EFCH   LINE      CODE     ---       #684
      01000EFFH   LINE      CODE     ---       #685
      01000EFFH   LINE      CODE     ---       #686
      01000F07H   LINE      CODE     ---       #687
LX51 LINKER/LOCATER V3.51                                                             01/27/2014  09:14:18  PAGE 122


      01000F07H   LINE      CODE     ---       #688
      01000F0AH   LINE      CODE     ---       #689
      01000F0AH   LINE      CODE     ---       #690
      01000F10H   LINE      CODE     ---       #691
      01000F28H   LINE      CODE     ---       #692
      01000F30H   LINE      CODE     ---       #693
      01000F36H   LINE      CODE     ---       #694
      01000F45H   LINE      CODE     ---       #695
      01000F4AH   LINE      CODE     ---       #696
      01000F6BH   LINE      CODE     ---       #697
      01000F74H   LINE      CODE     ---       #698
      01000FA0H   LINE      CODE     ---       #699
      01000FAFH   LINE      CODE     ---       #700
      01000FC6H   LINE      CODE     ---       #701
      01000FD4H   LINE      CODE     ---       #702
      01000FD8H   LINE      CODE     ---       #703
      01000FDDH   LINE      CODE     ---       #704
      01000FE3H   LINE      CODE     ---       #705
      01000FECH   LINE      CODE     ---       #706
      01000FF1H   LINE      CODE     ---       #707
      01000FF3H   LINE      CODE     ---       #708
      01000FF3H   LINE      CODE     ---       #709
      01000FFBH   LINE      CODE     ---       #710
      01000FFBH   LINE      CODE     ---       #711
      01001001H   LINE      CODE     ---       #712
      0100101EH   LINE      CODE     ---       #713
      01001045H   LINE      CODE     ---       #714
      0100104BH   LINE      CODE     ---       #715
      01001057H   LINE      CODE     ---       #716
      01001063H   LINE      CODE     ---       #717
      01001069H   LINE      CODE     ---       #718
      0100106CH   LINE      CODE     ---       #719
      0100106CH   LINE      CODE     ---       #720
      0100106CH   LINE      CODE     ---       #721
      0100106CH   LINE      CODE     ---       #722
      0100106CH   LINE      CODE     ---       #723
      01001072H   LINE      CODE     ---       #724
      0100107BH   LINE      CODE     ---       #725
      01001084H   LINE      CODE     ---       #726
      010010AEH   LINE      CODE     ---       #727
      010010AEH   LINE      CODE     ---       #728
      010010BCH   LINE      CODE     ---       #729
      010010C5H   LINE      CODE     ---       #730
      010010D9H   LINE      CODE     ---       #731
      010010E1H   LINE      CODE     ---       #732
      010010E9H   LINE      CODE     ---       #733
      010010F0H   LINE      CODE     ---       #734
      010010F2H   LINE      CODE     ---       #735
      010010F8H   LINE      CODE     ---       #736
      010010F8H   LINE      CODE     ---       #737
      01001102H   LINE      CODE     ---       #738
      01001116H   LINE      CODE     ---       #740
      0100111CH   LINE      CODE     ---       #741
      01001124H   LINE      CODE     ---       #774
      0100112AH   LINE      CODE     ---       #775
      01001130H   LINE      CODE     ---       #776
      0100113DH   LINE      CODE     ---       #777
      01001143H   LINE      CODE     ---       #778
      01001143H   LINE      CODE     ---       #779
      01001143H   LINE      CODE     ---       #780
      01001146H   LINE      CODE     ---       #781
      01001146H   LINE      CODE     ---       #782
      01001154H   LINE      CODE     ---       #783
      0100115DH   LINE      CODE     ---       #784
      01001171H   LINE      CODE     ---       #785
LX51 LINKER/LOCATER V3.51                                                             01/27/2014  09:14:18  PAGE 123


      0100117BH   LINE      CODE     ---       #786
      01001184H   LINE      CODE     ---       #787
      0100118FH   LINE      CODE     ---       #788
      01001196H   LINE      CODE     ---       #789
      0100119CH   LINE      CODE     ---       #790
      010011A0H   LINE      CODE     ---       #791
      010011A9H   LINE      CODE     ---       #792
      010011AFH   LINE      CODE     ---       #793
      010011BEH   LINE      CODE     ---       #794
      010011BEH   LINE      CODE     ---       #795
      010011C1H   LINE      CODE     ---       #796
      010011CBH   LINE      CODE     ---       #797
      010011D5H   LINE      CODE     ---       #798
      010011DFH   LINE      CODE     ---       #799
      010011E8H   LINE      CODE     ---       #800
      010011FAH   LINE      CODE     ---       #801
      01001219H   LINE      CODE     ---       #802
      01001232H   LINE      CODE     ---       #803
      01001249H   LINE      CODE     ---       #804
      01001257H   LINE      CODE     ---       #805
      01001257H   LINE      CODE     ---       #806
      0100127BH   LINE      CODE     ---       #807
      0100129DH   LINE      CODE     ---       #808
      010012B8H   LINE      CODE     ---       #809
      010012C1H   LINE      CODE     ---       #810
      010012C4H   LINE      CODE     ---       #812
      010012C7H   LINE      CODE     ---       #813
      010012CDH   LINE      CODE     ---       #815
      010012D6H   LINE      CODE     ---       #816
      010012EAH   LINE      CODE     ---       #817
      010012F2H   LINE      CODE     ---       #818
      010012F6H   LINE      CODE     ---       #819
      0100130AH   LINE      CODE     ---       #820
      01001310H   LINE      CODE     ---       #821
      01001310H   LINE      CODE     ---       #822
      01001310H   LINE      CODE     ---       #823
      01001313H   LINE      CODE     ---       #824
      01001313H   LINE      CODE     ---       #825
      01001321H   LINE      CODE     ---       #826
      0100132AH   LINE      CODE     ---       #831
      0100133EH   LINE      CODE     ---       #832
      01001346H   LINE      CODE     ---       #833
      01001349H   LINE      CODE     ---       #834
      0100135DH   LINE      CODE     ---       #836
      0100135DH   LINE      CODE     ---       #837
      0100135DH   LINE      CODE     ---       #838
      01001360H   LINE      CODE     ---       #839
      01001369H   LINE      CODE     ---       #840
      0100136FH   LINE      CODE     ---       #841
      01001375H   LINE      CODE     ---       #842
      0100137EH   LINE      CODE     ---       #843
      01001381H   LINE      CODE     ---       #847
      01001381H   LINE      CODE     ---       #849
      0100138FH   LINE      CODE     ---       #850
      0100139BH   LINE      CODE     ---       #851
      0100139DH   LINE      CODE     ---       #852
      0100139DH   LINE      CODE     ---       #853
      010013A2H   LINE      CODE     ---       #854
      010013A5H   LINE      CODE     ---       #855
      010013AAH   LINE      CODE     ---       #856
      010013B6H   LINE      CODE     ---       #857
      010013BFH   LINE      CODE     ---       #858
      010013CBH   LINE      CODE     ---       #859
      010013D7H   LINE      CODE     ---       #860
      010013E6H   LINE      CODE     ---       #861
LX51 LINKER/LOCATER V3.51                                                             01/27/2014  09:14:18  PAGE 124


      010013FCH   LINE      CODE     ---       #862
      01001409H   LINE      CODE     ---       #863
      0100141CH   LINE      CODE     ---       #864
      01001429H   LINE      CODE     ---       #865
      0100143FH   LINE      CODE     ---       #866
      01001447H   LINE      CODE     ---       #867
      01001452H   LINE      CODE     ---       #868
      01001467H   LINE      CODE     ---       #869
      0100147BH   LINE      CODE     ---       #870
      0100147BH   LINE      CODE     ---       #871
      0100147BH   LINE      CODE     ---       #872
      01001484H   LINE      CODE     ---       #873
      01001486H   LINE      CODE     ---       #874
      01001486H   LINE      CODE     ---       #875
      0100148FH   LINE      CODE     ---       #876
      01001491H   LINE      CODE     ---       #877
      01001491H   LINE      CODE     ---       #878
      0100149AH   LINE      CODE     ---       #879
      0100149CH   LINE      CODE     ---       #880
      0100149CH   LINE      CODE     ---       #881
      0100149CH   LINE      CODE     ---       #882
      010014A7H   LINE      CODE     ---       #883
      010014BCH   LINE      CODE     ---       #884
      010014D4H   LINE      CODE     ---       #885
      010014D4H   LINE      CODE     ---       #886
      010014DDH   LINE      CODE     ---       #887
      010014E6H   LINE      CODE     ---       #888
      010014EFH   LINE      CODE     ---       #889
      010014F8H   LINE      CODE     ---       #890
      01001501H   LINE      CODE     ---       #891
      0100150AH   LINE      CODE     ---       #893
      01001515H   LINE      CODE     ---       #895
      0100151EH   LINE      CODE     ---       #896
      01001522H   LINE      CODE     ---       #897
      01001529H   LINE      CODE     ---       #902
      0100153DH   LINE      CODE     ---       #903
      01001543H   LINE      CODE     ---       #904
      01001545H   LINE      CODE     ---       #905
      01001554H   LINE      CODE     ---       #906
      01001554H   LINE      CODE     ---       #907
      01001556H   LINE      CODE     ---       #908
      01001556H   LINE      CODE     ---       #909
      01001561H   LINE      CODE     ---       #911
      01001561H   LINE      CODE     ---       #913
      0100156AH   LINE      CODE     ---       #914
      01001573H   LINE      CODE     ---       #915
      01001582H   LINE      CODE     ---       #916
      0100158DH   LINE      CODE     ---       #917
      01001593H   LINE      CODE     ---       #918
      0100159CH   LINE      CODE     ---       #919
      010015A7H   LINE      CODE     ---       #926
      010015ADH   LINE      CODE     ---       #927
      010015ADH   LINE      CODE     ---       #928
      010015ADH   LINE      CODE     ---       #929
      010015ADH   LINE      CODE     ---       #931
      010015ADH   LINE      CODE     ---       #932
      010015ADH   LINE      CODE     ---       #933
      010015ADH   LINE      CODE     ---       #934
      010015ADH   LINE      CODE     ---       #937
      010015B2H   LINE      CODE     ---       #938
      ---         BLOCKEND  ---      ---       LVL=0

      ---         MODULE    ---      ---       SAT
      0200051AH   PUBLIC    XDATA    ---       _sat_buffer_in
      02000519H   PUBLIC    XDATA    BYTE      fetch_len
LX51 LINKER/LOCATER V3.51                                                             01/27/2014  09:14:18  PAGE 125


      02000419H   PUBLIC    XDATA    ---       _sat_buffer
      0100AD18H   PUBLIC    CODE     ---       _?SAT_printf
      0100F1CBH   PUBLIC    CODE     ---       _?SAT_file_push
      0100F89FH   PUBLIC    CODE     ---       _?SAT_file_flush
      0100F76DH   PUBLIC    CODE     ---       _?SAT_response
      0100FA28H   PUBLIC    CODE     ---       _?SAT_status
      0100FAEDH   PUBLIC    CODE     ---       _?SAT_cleanup
      0100F6B5H   PUBLIC    CODE     ---       _?SAT_read
      0100EFC0H   PUBLIC    CODE     ---       _?SAT_file_pop
      0100F8DFH   PUBLIC    CODE     ---       _?SAT_init
      0100F48AH   PUBLIC    CODE     ---       _?SAT_device
      0100EF7CH   PUBLIC    CODE     ---       _?SAT_command
      0100E4C1H   PUBLIC    CODE     ---       _?SAT_pop
      0100E23DH   PUBLIC    CODE     ---       _?SAT_push
      000000A8H   SFRSYM    DATA     BYTE      IE
      00000088H   SFRSYM    DATA     BYTE      TCON
      000000C0H   SFRSYM    DATA     BYTE      DESCTL
      000000E8H   SFRSYM    DATA     BYTE      FL_STS
      000000D8H   SFRSYM    DATA     BYTE      USR

      0100D166H   BLOCK     CODE     ---       LVL=0
      ---         BLOCKEND  ---      ---       LVL=0

      0100E23DH   BLOCK     CODE     ---       LVL=0
      00000002H   SYMBOL    XSTK     ---       buffer
      00000005H   SYMBOL    XSTK     BYTE      tag
      00000006H   SYMBOL    XSTK     BYTE      length
      00000007H   SYMBOL    XSTK     ---       value
      00000000H   SYMBOL    XSTK     BYTE      i
      00000001H   SYMBOL    XSTK     BYTE      j
      0100E23DH   LINE      CODE     ---       #24
      0100E248H   LINE      CODE     ---       #25
      0100E24DH   LINE      CODE     ---       #26
      0100E25AH   LINE      CODE     ---       #27
      0100E263H   LINE      CODE     ---       #28
      0100E274H   LINE      CODE     ---       #29
      0100E274H   LINE      CODE     ---       #30
      0100E276H   LINE      CODE     ---       #31
      0100E288H   LINE      CODE     ---       #32
      0100E288H   LINE      CODE     ---       #33
      0100E29CH   LINE      CODE     ---       #34
      0100E2ADH   LINE      CODE     ---       #35
      0100E2B6H   LINE      CODE     ---       #36
      0100E2BBH   LINE      CODE     ---       #37
      ---         BLOCKEND  ---      ---       LVL=0

      0100E4C1H   BLOCK     CODE     ---       LVL=0
      00000002H   SYMBOL    XSTK     ---       buffer
      00000005H   SYMBOL    XSTK     ---       tag
      00000008H   SYMBOL    XSTK     ---       size
      0000000BH   SYMBOL    XSTK     ---       value
      00000000H   SYMBOL    XSTK     BYTE      i
      00000001H   SYMBOL    XSTK     BYTE      j
      0100E4C1H   LINE      CODE     ---       #39
      0100E4C7H   LINE      CODE     ---       #40
      0100E4CCH   LINE      CODE     ---       #41
      0100E4DDH   LINE      CODE     ---       #42
      0100E4E9H   LINE      CODE     ---       #43
      0100E4EFH   LINE      CODE     ---       #44
      0100E4EFH   LINE      CODE     ---       #45
      0100E500H   LINE      CODE     ---       #46
      0100E51AH   LINE      CODE     ---       #47
      0100E52AH   LINE      CODE     ---       #48
      0100E533H   LINE      CODE     ---       #49
      0100E538H   LINE      CODE     ---       #50
LX51 LINKER/LOCATER V3.51                                                             01/27/2014  09:14:18  PAGE 126


      ---         BLOCKEND  ---      ---       LVL=0

      0100EF7CH   BLOCK     CODE     ---       LVL=0
      00000000H   SYMBOL    XSTK     ---       buffer
      00000003H   SYMBOL    XSTK     BYTE      number
      00000004H   SYMBOL    XSTK     BYTE      type
      00000005H   SYMBOL    XSTK     BYTE      qualifier
      0100EF7CH   LINE      CODE     ---       #52
      0100EF84H   LINE      CODE     ---       #53
      0100EF8CH   LINE      CODE     ---       #54
      0100EF96H   LINE      CODE     ---       #55
      0100EFA3H   LINE      CODE     ---       #56
      0100EFBAH   LINE      CODE     ---       #57
      ---         BLOCKEND  ---      ---       LVL=0

      0100F48AH   BLOCK     CODE     ---       LVL=0
      00000000H   SYMBOL    XSTK     ---       buffer
      00000003H   SYMBOL    XSTK     BYTE      src
      00000004H   SYMBOL    XSTK     BYTE      dst
      0100F48AH   LINE      CODE     ---       #59
      0100F492H   LINE      CODE     ---       #60
      0100F49AH   LINE      CODE     ---       #61
      0100F4A4H   LINE      CODE     ---       #62
      0100F4BBH   LINE      CODE     ---       #63
      ---         BLOCKEND  ---      ---       LVL=0

      0100F8DFH   BLOCK     CODE     ---       LVL=0
      00000000H   SYMBOL    XSTK     ---       buffer
      00000003H   SYMBOL    XDATA    WORD      size
      0100F8DFH   LINE      CODE     ---       #65
      0100F8EAH   LINE      CODE     ---       #80
      0100F8F6H   LINE      CODE     ---       #81
      0100F8F8H   LINE      CODE     ---       #83
      ---         BLOCKEND  ---      ---       LVL=0

      0100EFC0H   BLOCK     CODE     ---       LVL=0
      00000000H   SYMBOL    XSTK     WORD      i
      00000002H   SYMBOL    XSTK     ---       tag
      00000005H   SYMBOL    XSTK     ---       size
      00000008H   SYMBOL    XSTK     ---       value
      0100EFC0H   LINE      CODE     ---       #85
      0100EFCBH   LINE      CODE     ---       #96
      0100EFFEH   LINE      CODE     ---       #97
      0100EFFEH   LINE      CODE     ---       #99
      ---         BLOCKEND  ---      ---       LVL=0

      0100F6B5H   BLOCK     CODE     ---       LVL=0
      00000000H   SYMBOL    XSTK     ---       buffer
      00000003H   SYMBOL    XSTK     WORD      size
      0100F6B5H   LINE      CODE     ---       #101
      0100F6C0H   LINE      CODE     ---       #109
      0100F6DDH   LINE      CODE     ---       #111
      0100F6DFH   LINE      CODE     ---       #112
      ---         BLOCKEND  ---      ---       LVL=0

      0100FAEDH   BLOCK     CODE     ---       LVL=0
      0100FAEDH   LINE      CODE     ---       #114
      0100FAEDH   LINE      CODE     ---       #118
      0100FAF2H   LINE      CODE     ---       #119
      ---         BLOCKEND  ---      ---       LVL=0

      0100FA28H   BLOCK     CODE     ---       LVL=0
      0100FA28H   LINE      CODE     ---       #121
      0100FA28H   LINE      CODE     ---       #122
      0100FA38H   LINE      CODE     ---       #123
LX51 LINKER/LOCATER V3.51                                                             01/27/2014  09:14:18  PAGE 127


      ---         BLOCKEND  ---      ---       LVL=0

      0100F76DH   BLOCK     CODE     ---       LVL=0
      00000000H   SYMBOL    XSTK     ---       buffer
      00000003H   SYMBOL    XSTK     BYTE      len
      0100F76DH   LINE      CODE     ---       #125
      0100F775H   LINE      CODE     ---       #126
      0100F790H   LINE      CODE     ---       #127
      0100F793H   LINE      CODE     ---       #128
      ---         BLOCKEND  ---      ---       LVL=0

      0100F89FH   BLOCK     CODE     ---       LVL=0
      00000000H   SYMBOL    XSTK     BYTE      length
      0100F89FH   LINE      CODE     ---       #130
      0100F8A4H   LINE      CODE     ---       #131
      0100F8B1H   LINE      CODE     ---       #132
      0100F8BAH   LINE      CODE     ---       #133
      ---         BLOCKEND  ---      ---       LVL=0

      0100F1CBH   BLOCK     CODE     ---       LVL=0
      00000000H   SYMBOL    XSTK     WORD      i
      00000002H   SYMBOL    XSTK     BYTE      tag
      00000003H   SYMBOL    XSTK     BYTE      length
      00000004H   SYMBOL    XSTK     ---       value
      0100F1CBH   LINE      CODE     ---       #135
      0100F1DDH   LINE      CODE     ---       #155
      0100F204H   LINE      CODE     ---       #158
      ---         BLOCKEND  ---      ---       LVL=0

      0100AD18H   BLOCK     CODE     ---       LVL=0
      0000000FH   SYMBOL    XSTK     ---       fmt
      00000000H   SYMBOL    XSTK     ---       arg_ptr
      00000003H   SYMBOL    XSTK     BYTE      len
      00000004H   SYMBOL    XSTK     WORD      i
      00000006H   SYMBOL    XSTK     BYTE      j
      00000007H   SYMBOL    XSTK     ---       ptr
      0000000CH   SYMBOL    XSTK     ---       buffer
      0100AD18H   LINE      CODE     ---       #163
      0100AD21H   LINE      CODE     ---       #167
      0100AD28H   LINE      CODE     ---       #171
      0100AD3BH   LINE      CODE     ---       #172
      0100AD49H   LINE      CODE     ---       #181
      0100AD61H   LINE      CODE     ---       #182
      0100ADA3H   LINE      CODE     ---       #183
      0100ADA3H   LINE      CODE     ---       #184
      0100ADA3H   LINE      CODE     ---       #185
      0100ADABH   LINE      CODE     ---       #186
      0100ADBAH   LINE      CODE     ---       #187
      0100ADC1H   LINE      CODE     ---       #188
      0100ADCBH   LINE      CODE     ---       #189
      0100ADCEH   LINE      CODE     ---       #190
      0100ADCEH   LINE      CODE     ---       #191
      0100ADCEH   LINE      CODE     ---       #192
      0100ADD7H   LINE      CODE     ---       #193
      0100ADE0H   LINE      CODE     ---       #194
      0100ADEAH   LINE      CODE     ---       #195
      0100ADECH   LINE      CODE     ---       #196
      0100ADECH   LINE      CODE     ---       #197
      0100ADECH   LINE      CODE     ---       #198
      0100ADECH   LINE      CODE     ---       #199
      0100ADF8H   LINE      CODE     ---       #200
      0100ADFAH   LINE      CODE     ---       #201
      0100ADFAH   LINE      CODE     ---       #202
      0100ADFAH   LINE      CODE     ---       #203
      0100ADFAH   LINE      CODE     ---       #204
LX51 LINKER/LOCATER V3.51                                                             01/27/2014  09:14:18  PAGE 128


      0100AE06H   LINE      CODE     ---       #205
      0100AE08H   LINE      CODE     ---       #206
      0100AE08H   LINE      CODE     ---       #207
      0100AE08H   LINE      CODE     ---       #208
      0100AE08H   LINE      CODE     ---       #209
      0100AE14H   LINE      CODE     ---       #210
      0100AE16H   LINE      CODE     ---       #211
      0100AE16H   LINE      CODE     ---       #212
      0100AE16H   LINE      CODE     ---       #213
      0100AE1FH   LINE      CODE     ---       #214
      0100AE29H   LINE      CODE     ---       #215
      0100AE2BH   LINE      CODE     ---       #216
      0100AE2BH   LINE      CODE     ---       #217
      0100AE2BH   LINE      CODE     ---       #218
      0100AE37H   LINE      CODE     ---       #219
      0100AE39H   LINE      CODE     ---       #220
      0100AE39H   LINE      CODE     ---       #221
      0100AE39H   LINE      CODE     ---       #222
      0100AE39H   LINE      CODE     ---       #223
      0100AE45H   LINE      CODE     ---       #224
      0100AE47H   LINE      CODE     ---       #225
      0100AE47H   LINE      CODE     ---       #226
      0100AE47H   LINE      CODE     ---       #227
      0100AE6CH   LINE      CODE     ---       #228
      0100AE6CH   LINE      CODE     ---       #229
      0100AE6CH   LINE      CODE     ---       #230
      0100AE74H   LINE      CODE     ---       #232
      0100AE7FH   LINE      CODE     ---       #233
      0100AE88H   LINE      CODE     ---       #234
      ---         BLOCKEND  ---      ---       LVL=0

      ---         MODULE    ---      ---       LIQUID
      02000319H   PUBLIC    XDATA    ---       STK_buffer
      02000317H   PUBLIC    XDATA    WORD      _stk_menu_offset
      02000315H   PUBLIC    XDATA    WORD      _stk_menu_current
      02000313H   PUBLIC    XDATA    WORD      _stk_menu_anchor
      0200030DH   PUBLIC    XDATA    ---       _me_capabilities
      0100D622H   PUBLIC    CODE     ---       _?liquid_set_response_data
      0100CD4BH   PUBLIC    CODE     ---       _?liquid_profile
      0100D57DH   PUBLIC    CODE     ---       _?liquid_proactive_check
      0100F3E2H   PUBLIC    CODE     ---       _?liquid_profile_check
      0100F810H   PUBLIC    CODE     ---       _?liquid_error
      0100EF37H   PUBLIC    CODE     ---       _?SAT_profile_download
      000000A8H   SFRSYM    DATA     BYTE      IE
      00000088H   SFRSYM    DATA     BYTE      TCON
      000000C0H   SFRSYM    DATA     BYTE      DESCTL
      000000E8H   SFRSYM    DATA     BYTE      FL_STS
      000000D8H   SFRSYM    DATA     BYTE      USR

      0100EE20H   BLOCK     CODE     ---       LVL=0
      ---         BLOCKEND  ---      ---       LVL=0

      0100EF37H   BLOCK     CODE     ---       LVL=0
      00000000H   SYMBOL    XSTK     ---       buffer
      00000003H   SYMBOL    XSTK     BYTE      len
      0100EF37H   LINE      CODE     ---       #16
      0100EF42H   LINE      CODE     ---       #17
      0100EF51H   LINE      CODE     ---       #18
      0100EF5AH   LINE      CODE     ---       #19
      0100EF60H   LINE      CODE     ---       #20
      0100EF60H   LINE      CODE     ---       #21
      0100EF76H   LINE      CODE     ---       #22
      ---         BLOCKEND  ---      ---       LVL=0

      0100F810H   BLOCK     CODE     ---       LVL=0
LX51 LINKER/LOCATER V3.51                                                             01/27/2014  09:14:18  PAGE 129


      00000000H   SYMBOL    XDATA    BYTE      status
      00000000H   SYMBOL    XSTK     BYTE      len
      00000002H   SYMBOL    XDATA    BYTE      i
      0100F810H   LINE      CODE     ---       #24
      0100F816H   LINE      CODE     ---       #25
      0100F81BH   LINE      CODE     ---       #27
      0100F828H   LINE      CODE     ---       #29
      0100F830H   LINE      CODE     ---       #30
      ---         BLOCKEND  ---      ---       LVL=0

      0100F3E2H   BLOCK     CODE     ---       LVL=0
      00000001H   SYMBOL    XSTK     BYTE      cmd
      00000000H   SYMBOL    XSTK     BYTE      i
      0100F3E2H   LINE      CODE     ---       #33
      0100F3E8H   LINE      CODE     ---       #34
      0100F3F5H   LINE      CODE     ---       #35
      0100F415H   LINE      CODE     ---       #36
      ---         BLOCKEND  ---      ---       LVL=0

      0100D57DH   BLOCK     CODE     ---       LVL=0
      00000000H   SYMBOL    XSTK     BYTE      cmd
      0100D57DH   LINE      CODE     ---       #38
      0100D580H   LINE      CODE     ---       #39
      0100D5B5H   LINE      CODE     ---       #41
      0100D5B5H   LINE      CODE     ---       #42
      0100D5BEH   LINE      CODE     ---       #43
      0100D5BEH   LINE      CODE     ---       #44
      0100D5C7H   LINE      CODE     ---       #45
      0100D5C7H   LINE      CODE     ---       #46
      0100D5D0H   LINE      CODE     ---       #47
      0100D5D0H   LINE      CODE     ---       #48
      0100D5D5H   LINE      CODE     ---       #49
      0100D5D5H   LINE      CODE     ---       #50
      0100D5DEH   LINE      CODE     ---       #51
      0100D5DEH   LINE      CODE     ---       #52
      0100D5E3H   LINE      CODE     ---       #54
      0100D5E3H   LINE      CODE     ---       #55
      0100D5E8H   LINE      CODE     ---       #56
      0100D5E8H   LINE      CODE     ---       #57
      0100D5E8H   LINE      CODE     ---       #58
      0100D5EDH   LINE      CODE     ---       #59
      0100D5EDH   LINE      CODE     ---       #60
      0100D5F6H   LINE      CODE     ---       #61
      0100D5F6H   LINE      CODE     ---       #62
      0100D5FFH   LINE      CODE     ---       #63
      0100D5FFH   LINE      CODE     ---       #64
      0100D608H   LINE      CODE     ---       #65
      0100D608H   LINE      CODE     ---       #66
      0100D611H   LINE      CODE     ---       #67
      0100D611H   LINE      CODE     ---       #68
      0100D61AH   LINE      CODE     ---       #69
      0100D61AH   LINE      CODE     ---       #70
      0100D61CH   LINE      CODE     ---       #71
      0100D61CH   LINE      CODE     ---       #72
      ---         BLOCKEND  ---      ---       LVL=0

      0100CD4BH   BLOCK     CODE     ---       LVL=0
      00000000H   SYMBOL    XSTK     WORD      status
      00000002H   SYMBOL    XSTK     WORD      len
      0100CD4BH   LINE      CODE     ---       #76
      0100CD4EH   LINE      CODE     ---       #77
      0100CD57H   LINE      CODE     ---       #81
      0100CD60H   LINE      CODE     ---       #82
      0100CD6AH   LINE      CODE     ---       #83
      0100CD81H   LINE      CODE     ---       #85
LX51 LINKER/LOCATER V3.51                                                             01/27/2014  09:14:18  PAGE 130


      0100CD88H   LINE      CODE     ---       #86
      0100CD8EH   LINE      CODE     ---       #87
      0100CD91H   LINE      CODE     ---       #88
      0100CDA4H   LINE      CODE     ---       #89
      0100CDB9H   LINE      CODE     ---       #90
      0100CDC3H   LINE      CODE     ---       #91
      0100CDD4H   LINE      CODE     ---       #92
      0100CDE3H   LINE      CODE     ---       #93
      0100CE00H   LINE      CODE     ---       #97
      0100CE19H   LINE      CODE     ---       #98
      0100CE19H   LINE      CODE     ---       #99
      0100CE21H   LINE      CODE     ---       #100
      ---         BLOCKEND  ---      ---       LVL=0

      0100D622H   BLOCK     CODE     ---       LVL=0
      0000000BH   SYMBOL    XSTK     BYTE      status
      0000000CH   SYMBOL    XSTK     ---       buffer
      0000000FH   SYMBOL    XSTK     WORD      length
      00000000H   SYMBOL    XSTK     ---       temp
      0000000AH   SYMBOL    XSTK     ---       prop
      0100D622H   LINE      CODE     ---       #104
      0100D62EH   LINE      CODE     ---       #110
      0100D63AH   LINE      CODE     ---       #111
      0100D646H   LINE      CODE     ---       #112
      0100D65CH   LINE      CODE     ---       #113
      0100D672H   LINE      CODE     ---       #114
      0100D681H   LINE      CODE     ---       #115
      0100D69DH   LINE      CODE     ---       #116
      0100D6B7H   LINE      CODE     ---       #117
      0100D6B7H   LINE      CODE     ---       #119
      ---         BLOCKEND  ---      ---       LVL=0

      ---         MODULE    ---      ---       SMS
      020006BEH   PUBLIC    XDATA    ---       _tar_0348
      01008C42H   PUBLIC    CODE     ---       _?p348_encode_command_packet
      0100CFD9H   PUBLIC    CODE     ---       _?p348_create_header
      0100F87DH   PUBLIC    CODE     ---       _?p348_set_tar
      01004EDDH   PUBLIC    CODE     ---       _?p348_decode_command_packet
      0100B162H   PUBLIC    CODE     ---       _?encode_SMSTPDU
      0100629BH   PUBLIC    CODE     ---       _?decode_SMSPPPacket
      0100D0AAH   PUBLIC    CODE     ---       _?decode_SMSCBPacket
      0100A583H   PUBLIC    CODE     ---       _?decode_SMSTPDU
      000000A8H   SFRSYM    DATA     BYTE      IE
      00000088H   SFRSYM    DATA     BYTE      TCON
      000000C0H   SFRSYM    DATA     BYTE      DESCTL
      000000E8H   SFRSYM    DATA     BYTE      FL_STS
      000000D8H   SFRSYM    DATA     BYTE      USR
      020006B6H   SYMBOL    XDATA    ---       _liquid_fs
      0100FABDH   SYMBOL    CODE     ---       _?ix1000

      01009D20H   BLOCK     CODE     ---       LVL=0
      ---         BLOCKEND  ---      ---       LVL=0

      0100A583H   BLOCK     CODE     ---       LVL=0
      0000000AH   SYMBOL    XSTK     BYTE      p2c
      0000000BH   SYMBOL    XSTK     ---       buffer
      00000000H   SYMBOL    XSTK     BYTE      i
      00000001H   SYMBOL    XSTK     WORD      status
      00000003H   SYMBOL    XSTK     BYTE      type
      00000004H   SYMBOL    XSTK     BYTE      dcs
      00000005H   SYMBOL    XSTK     BYTE      udl
      00000006H   SYMBOL    XSTK     BYTE      addr_len
      00000007H   SYMBOL    XSTK     ---       originating_address
      0100A583H   LINE      CODE     ---       #13
      0100A591H   LINE      CODE     ---       #14
LX51 LINKER/LOCATER V3.51                                                             01/27/2014  09:14:18  PAGE 131


      0100A596H   LINE      CODE     ---       #15
      0100A59DH   LINE      CODE     ---       #21
      0100A5A3H   LINE      CODE     ---       #23
      0100A5B2H   LINE      CODE     ---       #24
      0100A5C1H   LINE      CODE     ---       #25
      0100A5C1H   LINE      CODE     ---       #27
      0100A5C1H   LINE      CODE     ---       #29
      0100A5C1H   LINE      CODE     ---       #31
      0100A5C1H   LINE      CODE     ---       #33
      0100A5C1H   LINE      CODE     ---       #35
      0100A5D0H   LINE      CODE     ---       #36
      0100A5D6H   LINE      CODE     ---       #38
      0100A5E6H   LINE      CODE     ---       #39
      0100A610H   LINE      CODE     ---       #40
      0100A616H   LINE      CODE     ---       #42
      0100A619H   LINE      CODE     ---       #44
      0100A628H   LINE      CODE     ---       #46
      0100A62FH   LINE      CODE     ---       #48
      0100A634H   LINE      CODE     ---       #49
      0100A636H   LINE      CODE     ---       #50
      0100A636H   LINE      CODE     ---       #51
      0100A636H   LINE      CODE     ---       #52
      0100A636H   LINE      CODE     ---       #53
      0100A639H   LINE      CODE     ---       #54
      0100A639H   LINE      CODE     ---       #56
      0100A64CH   LINE      CODE     ---       #57
      0100A64CH   LINE      CODE     ---       #58
      0100A64CH   LINE      CODE     ---       #59
      0100A64CH   LINE      CODE     ---       #60
      0100A64CH   LINE      CODE     ---       #61
      0100A64CH   LINE      CODE     ---       #62
      0100A64CH   LINE      CODE     ---       #63
      0100A64CH   LINE      CODE     ---       #64
      0100A64CH   LINE      CODE     ---       #65
      0100A64CH   LINE      CODE     ---       #66
      0100A64CH   LINE      CODE     ---       #67
      0100A64CH   LINE      CODE     ---       #68
      0100A64CH   LINE      CODE     ---       #69
      0100A64CH   LINE      CODE     ---       #70
      0100A64CH   LINE      CODE     ---       #71
      0100A64CH   LINE      CODE     ---       #72
      0100A64CH   LINE      CODE     ---       #73
      0100A64CH   LINE      CODE     ---       #74
      0100A64CH   LINE      CODE     ---       #75
      0100A64CH   LINE      CODE     ---       #76
      0100A64CH   LINE      CODE     ---       #78
      0100A656H   LINE      CODE     ---       #79
      0100A656H   LINE      CODE     ---       #80
      0100A656H   LINE      CODE     ---       #81
      0100A656H   LINE      CODE     ---       #82
      0100A65DH   LINE      CODE     ---       #84
      0100A68DH   LINE      CODE     ---       #85
      0100A68DH   LINE      CODE     ---       #87
      0100A693H   LINE      CODE     ---       #88
      0100A69AH   LINE      CODE     ---       #91
      0100A6C5H   LINE      CODE     ---       #93
      0100A6CEH   LINE      CODE     ---       #94
      0100A6D0H   LINE      CODE     ---       #95
      0100A6D9H   LINE      CODE     ---       #96
      0100A6E7H   LINE      CODE     ---       #97
      0100A6E7H   LINE      CODE     ---       #98
      0100A6E9H   LINE      CODE     ---       #99
      0100A6F2H   LINE      CODE     ---       #100
      0100A709H   LINE      CODE     ---       #102
      0100A709H   LINE      CODE     ---       #103
LX51 LINKER/LOCATER V3.51                                                             01/27/2014  09:14:18  PAGE 132


      0100A709H   LINE      CODE     ---       #104
      0100A709H   LINE      CODE     ---       #105
      0100A709H   LINE      CODE     ---       #106
      0100A709H   LINE      CODE     ---       #107
      0100A709H   LINE      CODE     ---       #111
      0100A709H   LINE      CODE     ---       #113
      0100A709H   LINE      CODE     ---       #117
      0100A712H   LINE      CODE     ---       #118
      ---         BLOCKEND  ---      ---       LVL=0

      0100D0AAH   BLOCK     CODE     ---       LVL=0
      0000000DH   SYMBOL    XSTK     ---       buffer
      00000000H   SYMBOL    XSTK     WORD      status
      00000002H   SYMBOL    XSTK     WORD      sn
      00000004H   SYMBOL    XSTK     WORD      mid
      00000006H   SYMBOL    XSTK     BYTE      i
      00000009H   SYMBOL    XSTK     ---       cp
      0100D0AAH   LINE      CODE     ---       #120
      0100D0B3H   LINE      CODE     ---       #121
      0100D0BBH   LINE      CODE     ---       #126
      0100D0C1H   LINE      CODE     ---       #127
      0100D0D9H   LINE      CODE     ---       #130
      0100D0EDH   LINE      CODE     ---       #131
      0100D0FCH   LINE      CODE     ---       #136
      0100D103H   LINE      CODE     ---       #139
      0100D10BH   LINE      CODE     ---       #140
      0100D115H   LINE      CODE     ---       #141
      0100D11FH   LINE      CODE     ---       #144
      0100D146H   LINE      CODE     ---       #146
      0100D15DH   LINE      CODE     ---       #148
      0100D160H   LINE      CODE     ---       #149
      ---         BLOCKEND  ---      ---       LVL=0

      0100629BH   BLOCK     CODE     ---       LVL=0
      00000010H   SYMBOL    XSTK     ---       buffer
      00000000H   SYMBOL    XSTK     WORD      status
      00000002H   SYMBOL    XSTK     BYTE      i
      00000003H   SYMBOL    XSTK     BYTE      j
      00000004H   SYMBOL    XSTK     BYTE      udhl
      00000005H   SYMBOL    XSTK     BYTE      iei
      00000006H   SYMBOL    XSTK     BYTE      ieidl
      00000007H   SYMBOL    XSTK     BYTE      udl
      00000008H   SYMBOL    XSTK     BYTE      rec_size
      00000009H   SYMBOL    XSTK     BYTE      ref_num
      0000000AH   SYMBOL    XSTK     BYTE      seq_num
      0000000BH   SYMBOL    XSTK     BYTE      total_num
      0000000CH   SYMBOL    XSTK     BYTE      tag
      0000000DH   SYMBOL    XSTK     ---       ied
      0100629BH   LINE      CODE     ---       #151
      010062A4H   LINE      CODE     ---       #152
      010062ADH   LINE      CODE     ---       #153
      010062B8H   LINE      CODE     ---       #154
      010062CCH   LINE      CODE     ---       #160
      010062D1H   LINE      CODE     ---       #169
      010062E6H   LINE      CODE     ---       #172
      010062EEH   LINE      CODE     ---       #173
      010062F8H   LINE      CODE     ---       #174
      01006302H   LINE      CODE     ---       #176
      0100630EH   LINE      CODE     ---       #177
      01006320H   LINE      CODE     ---       #178
      01006323H   LINE      CODE     ---       #180
      01006334H   LINE      CODE     ---       #181
      01006340H   LINE      CODE     ---       #182
      01006340H   LINE      CODE     ---       #183
      01006359H   LINE      CODE     ---       #184
LX51 LINKER/LOCATER V3.51                                                             01/27/2014  09:14:18  PAGE 133


      01006369H   LINE      CODE     ---       #185
      0100636FH   LINE      CODE     ---       #187
      0100637FH   LINE      CODE     ---       #188
      0100638AH   LINE      CODE     ---       #189
      0100639DH   LINE      CODE     ---       #190
      010063B3H   LINE      CODE     ---       #191
      010063BBH   LINE      CODE     ---       #192
      010063BBH   LINE      CODE     ---       #194
      010063C7H   LINE      CODE     ---       #195
      010063C7H   LINE      CODE     ---       #197
      010063D5H   LINE      CODE     ---       #198
      010063E1H   LINE      CODE     ---       #199
      010063EDH   LINE      CODE     ---       #216
      010063EFH   LINE      CODE     ---       #217
      010063EFH   LINE      CODE     ---       #221
      010063F5H   LINE      CODE     ---       #223
      010063F5H   LINE      CODE     ---       #229
      010063F5H   LINE      CODE     ---       #233
      010063FEH   LINE      CODE     ---       #234
      01006401H   LINE      CODE     ---       #236
      01006418H   LINE      CODE     ---       #237
      0100643DH   LINE      CODE     ---       #238
      01006451H   LINE      CODE     ---       #239
      01006465H   LINE      CODE     ---       #240
      0100646DH   LINE      CODE     ---       #241
      0100647FH   LINE      CODE     ---       #242
      01006486H   LINE      CODE     ---       #243
      01006491H   LINE      CODE     ---       #244
      01006491H   LINE      CODE     ---       #245
      010064A5H   LINE      CODE     ---       #246
      010064B5H   LINE      CODE     ---       #256
      010064D4H   LINE      CODE     ---       #257
      010064EDH   LINE      CODE     ---       #258
      010064F5H   LINE      CODE     ---       #260
      01006500H   LINE      CODE     ---       #261
      01006512H   LINE      CODE     ---       #262
      01006522H   LINE      CODE     ---       #263
      0100652AH   LINE      CODE     ---       #264
      0100653CH   LINE      CODE     ---       #265
      0100654AH   LINE      CODE     ---       #267
      0100654AH   LINE      CODE     ---       #268
      01006553H   LINE      CODE     ---       #269
      01006568H   LINE      CODE     ---       #270
      01006572H   LINE      CODE     ---       #271
      0100657CH   LINE      CODE     ---       #272
      01006597H   LINE      CODE     ---       #273
      010065A1H   LINE      CODE     ---       #274
      010065ABH   LINE      CODE     ---       #275
      010065CEH   LINE      CODE     ---       #276
      010065E5H   LINE      CODE     ---       #277
      010065EEH   LINE      CODE     ---       #282
      010065F9H   LINE      CODE     ---       #288
      010065F9H   LINE      CODE     ---       #289
      01006601H   LINE      CODE     ---       #290
      ---         BLOCKEND  ---      ---       LVL=0

      0100B162H   BLOCK     CODE     ---       LVL=0
      00000003H   SYMBOL    XSTK     BYTE      type
      00000004H   SYMBOL    XSTK     BYTE      pid
      00000005H   SYMBOL    XSTK     BYTE      dcs
      00000006H   SYMBOL    XSTK     BYTE      length
      00000007H   SYMBOL    XSTK     ---       address
      0000000AH   SYMBOL    XSTK     ---       rspkt
      0000000DH   SYMBOL    XSTK     ---       buffer_out
      00000000H   SYMBOL    XSTK     BYTE      i
LX51 LINKER/LOCATER V3.51                                                             01/27/2014  09:14:18  PAGE 134


      00000001H   SYMBOL    XSTK     BYTE      j
      00000002H   SYMBOL    XSTK     BYTE      len
      0100B162H   LINE      CODE     ---       #295
      0100B177H   LINE      CODE     ---       #299
      0100B17CH   LINE      CODE     ---       #300
      0100B17FH   LINE      CODE     ---       #307
      0100B18DH   LINE      CODE     ---       #308
      0100B18DH   LINE      CODE     ---       #309
      0100B18DH   LINE      CODE     ---       #310
      0100B18DH   LINE      CODE     ---       #312
      0100B1A1H   LINE      CODE     ---       #313
      0100B1A5H   LINE      CODE     ---       #314
      0100B1B3H   LINE      CODE     ---       #315
      0100B1B3H   LINE      CODE     ---       #316
      0100B1BAH   LINE      CODE     ---       #317
      0100B1C8H   LINE      CODE     ---       #318
      0100B1C8H   LINE      CODE     ---       #319
      0100B1CEH   LINE      CODE     ---       #321
      0100B1E5H   LINE      CODE     ---       #323
      0100B1FBH   LINE      CODE     ---       #324
      0100B21AH   LINE      CODE     ---       #326
      0100B229H   LINE      CODE     ---       #327
      0100B242H   LINE      CODE     ---       #328
      0100B25AH   LINE      CODE     ---       #329
      0100B263H   LINE      CODE     ---       #333
      0100B274H   LINE      CODE     ---       #334
      0100B27DH   LINE      CODE     ---       #338
      0100B283H   LINE      CODE     ---       #341
      0100B2A9H   LINE      CODE     ---       #342
      0100B2AFH   LINE      CODE     ---       #343
      0100B2B3H   LINE      CODE     ---       #344
      0100B2B3H   LINE      CODE     ---       #345
      0100B2B3H   LINE      CODE     ---       #346
      0100B2B3H   LINE      CODE     ---       #347
      0100B2B3H   LINE      CODE     ---       #348
      0100B2B3H   LINE      CODE     ---       #350
      0100B2BAH   LINE      CODE     ---       #351
      ---         BLOCKEND  ---      ---       LVL=0

      01004EDDH   BLOCK     CODE     ---       LVL=0
      00000000H   SYMBOL    XSTK     WORD      status
      00000002H   SYMBOL    XSTK     WORD      i
      00000004H   SYMBOL    XSTK     WORD      j
      00000006H   SYMBOL    XSTK     WORD      length
      00000008H   SYMBOL    XSTK     ---       vc
      0000000BH   SYMBOL    XSTK     ---       cmpkt
      0000000EH   SYMBOL    XSTK     DWORD     crc32
      00000012H   SYMBOL    XSTK     DWORD     crc32_2
      00000016H   SYMBOL    XSTK     BYTE      auth_length
      00000017H   SYMBOL    XSTK     ---       temp_fs
      0000001FH   SYMBOL    XSTK     ---       key
      01004EDDH   LINE      CODE     ---       #359
      01004EE3H   LINE      CODE     ---       #360
      01004EECH   LINE      CODE     ---       #361
      01004EFBH   LINE      CODE     ---       #363
      01004F04H   LINE      CODE     ---       #368
      01004F09H   LINE      CODE     ---       #371
      01004F0FH   LINE      CODE     ---       #384
      01004F0FH   LINE      CODE     ---       #387
      01004F18H   LINE      CODE     ---       #389
      01004F2DH   LINE      CODE     ---       #398
      01004F35H   LINE      CODE     ---       #402
      01004F35H   LINE      CODE     ---       #406
      01004F41H   LINE      CODE     ---       #407
      01004F4CH   LINE      CODE     ---       #409
LX51 LINKER/LOCATER V3.51                                                             01/27/2014  09:14:18  PAGE 135


      01004F54H   LINE      CODE     ---       #410
      01004F57H   LINE      CODE     ---       #411
      01004F57H   LINE      CODE     ---       #421
      01004F57H   LINE      CODE     ---       #427
      01004F65H   LINE      CODE     ---       #428
      01004F65H   LINE      CODE     ---       #429
      01004F65H   LINE      CODE     ---       #430
      01004F67H   LINE      CODE     ---       #431
      01004F67H   LINE      CODE     ---       #432
      01004F8AH   LINE      CODE     ---       #433
      01004F8AH   LINE      CODE     ---       #434
      01004F8AH   LINE      CODE     ---       #436
      01004F8AH   LINE      CODE     ---       #437
      01004F8AH   LINE      CODE     ---       #439
      01004F8AH   LINE      CODE     ---       #440
      01004F8AH   LINE      CODE     ---       #445
      01004F99H   LINE      CODE     ---       #446
      01004FA8H   LINE      CODE     ---       #448
      01004FB5H   LINE      CODE     ---       #450
      01004FBDH   LINE      CODE     ---       #452
      01004FCCH   LINE      CODE     ---       #453
      01004FD5H   LINE      CODE     ---       #454
      01004FE2H   LINE      CODE     ---       #455
      01004FF7H   LINE      CODE     ---       #457
      01005007H   LINE      CODE     ---       #459
      01005010H   LINE      CODE     ---       #460
      01005027H   LINE      CODE     ---       #464
      01005049H   LINE      CODE     ---       #466
      01005049H   LINE      CODE     ---       #468
      01005049H   LINE      CODE     ---       #469
      01005049H   LINE      CODE     ---       #471
      0100505DH   LINE      CODE     ---       #472
      0100505DH   LINE      CODE     ---       #473
      0100505DH   LINE      CODE     ---       #474
      0100505DH   LINE      CODE     ---       #475
      0100505DH   LINE      CODE     ---       #476
      0100505DH   LINE      CODE     ---       #477
      0100505DH   LINE      CODE     ---       #478
      0100505DH   LINE      CODE     ---       #479
      0100505DH   LINE      CODE     ---       #480
      0100505DH   LINE      CODE     ---       #481
      0100505DH   LINE      CODE     ---       #482
      0100505DH   LINE      CODE     ---       #483
      0100505DH   LINE      CODE     ---       #484
      0100505DH   LINE      CODE     ---       #488
      0100506EH   LINE      CODE     ---       #490
      01005070H   LINE      CODE     ---       #491
      01005070H   LINE      CODE     ---       #495
      01005081H   LINE      CODE     ---       #497
      01005083H   LINE      CODE     ---       #498
      01005083H   LINE      CODE     ---       #502
      010050A2H   LINE      CODE     ---       #504
      010050A2H   LINE      CODE     ---       #505
      010050A2H   LINE      CODE     ---       #507
      010050A2H   LINE      CODE     ---       #508
      010050A2H   LINE      CODE     ---       #509
      010050ABH   LINE      CODE     ---       #510
      010050ABH   LINE      CODE     ---       #513
      010050C0H   LINE      CODE     ---       #515
      010050D5H   LINE      CODE     ---       #518
      010050E0H   LINE      CODE     ---       #519
      010050E0H   LINE      CODE     ---       #520
      010050E0H   LINE      CODE     ---       #535
      010050FBH   LINE      CODE     ---       #536
      01005100H   LINE      CODE     ---       #538
LX51 LINKER/LOCATER V3.51                                                             01/27/2014  09:14:18  PAGE 136


      01005119H   LINE      CODE     ---       #541
      0100513FH   LINE      CODE     ---       #542
      01005157H   LINE      CODE     ---       #543
      01005172H   LINE      CODE     ---       #544
      0100518DH   LINE      CODE     ---       #547
      010051A2H   LINE      CODE     ---       #548
      010051AAH   LINE      CODE     ---       #550
      010051B5H   LINE      CODE     ---       #551
      010051B8H   LINE      CODE     ---       #552
      010051B8H   LINE      CODE     ---       #554
      010051B8H   LINE      CODE     ---       #555
      010051B8H   LINE      CODE     ---       #556
      010051B8H   LINE      CODE     ---       #557
      010051B8H   LINE      CODE     ---       #558
      010051B8H   LINE      CODE     ---       #559
      010051B8H   LINE      CODE     ---       #564
      010051D6H   LINE      CODE     ---       #565
      010051FBH   LINE      CODE     ---       #571
      01005208H   LINE      CODE     ---       #572
      01005218H   LINE      CODE     ---       #581
      01005227H   LINE      CODE     ---       #582
      01005246H   LINE      CODE     ---       #583
      01005267H   LINE      CODE     ---       #584
      01005283H   LINE      CODE     ---       #585
      01005291H   LINE      CODE     ---       #593
      0100529BH   LINE      CODE     ---       #599
      010052A3H   LINE      CODE     ---       #600
      010052ACH   LINE      CODE     ---       #601
      010052C3H   LINE      CODE     ---       #603
      010052DEH   LINE      CODE     ---       #604
      010052E1H   LINE      CODE     ---       #606
      010052F2H   LINE      CODE     ---       #607
      01005308H   LINE      CODE     ---       #608
      01005308H   LINE      CODE     ---       #609
      01005308H   LINE      CODE     ---       #610
      01005308H   LINE      CODE     ---       #611
      01005308H   LINE      CODE     ---       #612
      01005327H   LINE      CODE     ---       #613
      0100535BH   LINE      CODE     ---       #614
      01005363H   LINE      CODE     ---       #615
      0100536BH   LINE      CODE     ---       #616
      01005375H   LINE      CODE     ---       #617
      01005393H   LINE      CODE     ---       #618
      01005393H   LINE      CODE     ---       #619
      01005393H   LINE      CODE     ---       #622
      0100539CH   LINE      CODE     ---       #623
      010053B3H   LINE      CODE     ---       #624
      010053CBH   LINE      CODE     ---       #625
      010053D6H   LINE      CODE     ---       #626
      010053D6H   LINE      CODE     ---       #630
      010053D6H   LINE      CODE     ---       #634
      010053DCH   LINE      CODE     ---       #637
      010053DCH   LINE      CODE     ---       #638
      010053E7H   LINE      CODE     ---       #639
      010053F0H   LINE      CODE     ---       #640
      010053F0H   LINE      CODE     ---       #642
      010053F8H   LINE      CODE     ---       #644
      ---         BLOCKEND  ---      ---       LVL=0

      0100F87DH   BLOCK     CODE     ---       LVL=0
      00000000H   SYMBOL    XSTK     ---       tar
      0100F87DH   LINE      CODE     ---       #647
      0100F880H   LINE      CODE     ---       #648
      0100F893H   LINE      CODE     ---       #650
      0100F899H   LINE      CODE     ---       #652
LX51 LINKER/LOCATER V3.51                                                             01/27/2014  09:14:18  PAGE 137


      ---         BLOCKEND  ---      ---       LVL=0

      0100CFD9H   BLOCK     CODE     ---       LVL=0
      0000000AH   SYMBOL    XSTK     ---       buffer
      00000003H   SYMBOL    XDATA    ---       tar_config
      00000005H   SYMBOL    XSTK     BYTE      length
      00000006H   SYMBOL    XSTK     WORD      i
      0000000BH   SYMBOL    XDATA    WORD      j
      0100CFD9H   LINE      CODE     ---       #654
      0100CFE2H   LINE      CODE     ---       #657
      0100CFE6H   LINE      CODE     ---       #658
      0100CFEDH   LINE      CODE     ---       #661
      0100CFFCH   LINE      CODE     ---       #662
      0100CFFFH   LINE      CODE     ---       #663
      0100D008H   LINE      CODE     ---       #664
      0100D014H   LINE      CODE     ---       #665
      0100D014H   LINE      CODE     ---       #666
      0100D014H   LINE      CODE     ---       #667
      0100D016H   LINE      CODE     ---       #669
      0100D02CH   LINE      CODE     ---       #670
      0100D03FH   LINE      CODE     ---       #671
      0100D057H   LINE      CODE     ---       #673
      0100D05DH   LINE      CODE     ---       #674
      0100D066H   LINE      CODE     ---       #675
      0100D08CH   LINE      CODE     ---       #676
      0100D099H   LINE      CODE     ---       #677
      0100D09FH   LINE      CODE     ---       #678
      0100D09FH   LINE      CODE     ---       #683
      0100D09FH   LINE      CODE     ---       #684
      0100D0A4H   LINE      CODE     ---       #685
      ---         BLOCKEND  ---      ---       LVL=0

      01008C42H   BLOCK     CODE     ---       LVL=0
      0000001BH   SYMBOL    XSTK     ---       cmpkt
      00000000H   SYMBOL    XSTK     WORD      i
      00000002H   SYMBOL    XSTK     BYTE      j
      00000003H   SYMBOL    XSTK     WORD      length
      00000005H   SYMBOL    XSTK     BYTE      pcntr
      00000006H   SYMBOL    XSTK     DWORD     crc32
      0000000AH   SYMBOL    XSTK     BYTE      auth_length
      0000000BH   SYMBOL    XSTK     ---       key
      01008C42H   LINE      CODE     ---       #834
      01008C4BH   LINE      CODE     ---       #838
      01008C52H   LINE      CODE     ---       #839
      01008C58H   LINE      CODE     ---       #841
      01008C5BH   LINE      CODE     ---       #846
      01008C60H   LINE      CODE     ---       #863
      01008C60H   LINE      CODE     ---       #864
      01008C6EH   LINE      CODE     ---       #865
      01008C6EH   LINE      CODE     ---       #866
      01008C74H   LINE      CODE     ---       #867
      01008C74H   LINE      CODE     ---       #868
      01008C74H   LINE      CODE     ---       #869
      01008C74H   LINE      CODE     ---       #870
      01008C74H   LINE      CODE     ---       #873
      01008C7CH   LINE      CODE     ---       #874
      01008C86H   LINE      CODE     ---       #875
      01008C99H   LINE      CODE     ---       #878
      01008CB0H   LINE      CODE     ---       #880
      01008CB9H   LINE      CODE     ---       #881
      01008CC8H   LINE      CODE     ---       #882
      01008CE4H   LINE      CODE     ---       #884
      01008CF4H   LINE      CODE     ---       #885
      01008D06H   LINE      CODE     ---       #886
      01008D08H   LINE      CODE     ---       #887
LX51 LINKER/LOCATER V3.51                                                             01/27/2014  09:14:18  PAGE 138


      01008D17H   LINE      CODE     ---       #888
      01008D17H   LINE      CODE     ---       #891
      01008D3DH   LINE      CODE     ---       #893
      01008D61H   LINE      CODE     ---       #894
      01008D6CH   LINE      CODE     ---       #897
      01008D77H   LINE      CODE     ---       #898
      01008D77H   LINE      CODE     ---       #900
      01008D77H   LINE      CODE     ---       #901
      01008D77H   LINE      CODE     ---       #904
      01008D99H   LINE      CODE     ---       #905
      01008DB6H   LINE      CODE     ---       #908
      01008DD9H   LINE      CODE     ---       #909
      01008DE3H   LINE      CODE     ---       #910
      01008E07H   LINE      CODE     ---       #911
      01008E07H   LINE      CODE     ---       #912
      01008E07H   LINE      CODE     ---       #914
      01008E07H   LINE      CODE     ---       #915
      01008E07H   LINE      CODE     ---       #917
      01008E07H   LINE      CODE     ---       #918
      01008E07H   LINE      CODE     ---       #920
      01008E13H   LINE      CODE     ---       #923
      01008E3CH   LINE      CODE     ---       #925
      01008E53H   LINE      CODE     ---       #926
      01008E53H   LINE      CODE     ---       #927
      01008E53H   LINE      CODE     ---       #928
      01008E53H   LINE      CODE     ---       #929
      01008E53H   LINE      CODE     ---       #930
      01008E53H   LINE      CODE     ---       #931
      01008E53H   LINE      CODE     ---       #932
      01008E53H   LINE      CODE     ---       #933
      01008E53H   LINE      CODE     ---       #934
      01008E53H   LINE      CODE     ---       #935
      01008E53H   LINE      CODE     ---       #936
      01008E53H   LINE      CODE     ---       #937
      01008E53H   LINE      CODE     ---       #939
      01008E53H   LINE      CODE     ---       #941
      01008E60H   LINE      CODE     ---       #945
      01008E62H   LINE      CODE     ---       #946
      01008E62H   LINE      CODE     ---       #948
      01008E6FH   LINE      CODE     ---       #952
      01008E71H   LINE      CODE     ---       #953
      01008E71H   LINE      CODE     ---       #955
      01008E88H   LINE      CODE     ---       #959
      01008E88H   LINE      CODE     ---       #960
      01008E88H   LINE      CODE     ---       #962
      01008E88H   LINE      CODE     ---       #963
      01008E88H   LINE      CODE     ---       #965
      01008E88H   LINE      CODE     ---       #969
      01008E88H   LINE      CODE     ---       #974
      01008E95H   LINE      CODE     ---       #975
      ---         BLOCKEND  ---      ---       LVL=0

      ---         MODULE    ---      ---       WIB
      0100CE27H   PUBLIC    CODE     ---       _?VAS_load_text
      01008785H   PUBLIC    CODE     ---       _?VAS_preprocess
      0100B922H   PUBLIC    CODE     ---       _?VAS_replay_check
      01006CCEH   PUBLIC    CODE     ---       _?VAS_get_security_config
      0100E0A6H   PUBLIC    CODE     ---       _?VAS_set_tar
      0100828BH   PUBLIC    CODE     ---       _?VAS_invoke
      0100F5C1H   PUBLIC    CODE     ---       _?VAS_startup
      0100C9A0H   PUBLIC    CODE     ---       _?VAS_event
      0100A247H   PUBLIC    CODE     ---       _?VAS_menu
      000000A8H   SFRSYM    DATA     BYTE      IE
      00000088H   SFRSYM    DATA     BYTE      TCON
      000000C0H   SFRSYM    DATA     BYTE      DESCTL
LX51 LINKER/LOCATER V3.51                                                             01/27/2014  09:14:18  PAGE 139


      000000E8H   SFRSYM    DATA     BYTE      FL_STS
      000000D8H   SFRSYM    DATA     BYTE      USR

      01009EE2H   BLOCK     CODE     ---       LVL=0
      ---         BLOCKEND  ---      ---       LVL=0

      0100A247H   BLOCK     CODE     ---       LVL=0
      00000000H   SYMBOL    XSTK     WORD      status
      00000002H   SYMBOL    XSTK     BYTE      j
      00000003H   SYMBOL    XSTK     BYTE      k
      00000004H   SYMBOL    XSTK     BYTE      i
      00000005H   SYMBOL    XSTK     BYTE      len
      00000006H   SYMBOL    XSTK     BYTE      total_rec
      00000007H   SYMBOL    XSTK     ---       temp_fs
      0000000FH   SYMBOL    XSTK     ---       file
      0100A247H   LINE      CODE     ---       #29
      0100A24AH   LINE      CODE     ---       #30
      0100A24AH   LINE      CODE     ---       #31
      0100A24AH   LINE      CODE     ---       #32
      0100A24AH   LINE      CODE     ---       #34
      0100A24AH   LINE      CODE     ---       #38
      0100A250H   LINE      CODE     ---       #39
      0100A25AH   LINE      CODE     ---       #40
      0100A26DH   LINE      CODE     ---       #41
      0100A285H   LINE      CODE     ---       #42
      0100A291H   LINE      CODE     ---       #43
      0100A2ADH   LINE      CODE     ---       #44
      0100A2B6H   LINE      CODE     ---       #45
      0100A2C1H   LINE      CODE     ---       #46
      0100A2C6H   LINE      CODE     ---       #47
      0100A2E8H   LINE      CODE     ---       #49
      0100A2F2H   LINE      CODE     ---       #50
      0100A305H   LINE      CODE     ---       #51
      0100A311H   LINE      CODE     ---       #52
      0100A331H   LINE      CODE     ---       #53
      0100A336H   LINE      CODE     ---       #54
      0100A351H   LINE      CODE     ---       #55
      0100A35EH   LINE      CODE     ---       #56
      0100A379H   LINE      CODE     ---       #57
      0100A380H   LINE      CODE     ---       #58
      0100A383H   LINE      CODE     ---       #59
      0100A399H   LINE      CODE     ---       #60
      0100A3BCH   LINE      CODE     ---       #61
      0100A3BCH   LINE      CODE     ---       #62
      0100A3BEH   LINE      CODE     ---       #65
      0100A3D0H   LINE      CODE     ---       #66
      0100A3D9H   LINE      CODE     ---       #67
      0100A3D9H   LINE      CODE     ---       #68
      0100A3E1H   LINE      CODE     ---       #69
      ---         BLOCKEND  ---      ---       LVL=0

      0100C9A0H   BLOCK     CODE     ---       LVL=0
      00000000H   SYMBOL    XSTK     WORD      status
      00000002H   SYMBOL    XSTK     BYTE      j
      00000003H   SYMBOL    XSTK     BYTE      k
      00000004H   SYMBOL    XSTK     BYTE      i
      00000005H   SYMBOL    XSTK     BYTE      len
      00000006H   SYMBOL    XSTK     BYTE      total_rec
      00000007H   SYMBOL    XSTK     ---       temp_fs
      0100C9A0H   LINE      CODE     ---       #73
      0100C9A3H   LINE      CODE     ---       #74
      0100C9A3H   LINE      CODE     ---       #75
      0100C9A3H   LINE      CODE     ---       #76
      0100C9A3H   LINE      CODE     ---       #78
      0100C9A3H   LINE      CODE     ---       #82
LX51 LINKER/LOCATER V3.51                                                             01/27/2014  09:14:18  PAGE 140


      0100C9A9H   LINE      CODE     ---       #83
      0100C9B3H   LINE      CODE     ---       #84
      0100C9C6H   LINE      CODE     ---       #85
      0100C9DEH   LINE      CODE     ---       #86
      0100C9E4H   LINE      CODE     ---       #87
      0100C9E9H   LINE      CODE     ---       #88
      0100C9E9H   LINE      CODE     ---       #89
      0100CA0DH   LINE      CODE     ---       #90
      0100CA14H   LINE      CODE     ---       #91
      0100CA23H   LINE      CODE     ---       #92
      0100CA23H   LINE      CODE     ---       #93
      0100CA23H   LINE      CODE     ---       #94
      0100CA23H   LINE      CODE     ---       #95
      0100CA23H   LINE      CODE     ---       #96
      0100CA23H   LINE      CODE     ---       #97
      0100CA23H   LINE      CODE     ---       #98
      0100CA23H   LINE      CODE     ---       #99
      0100CA23H   LINE      CODE     ---       #100
      0100CA23H   LINE      CODE     ---       #101
      0100CA23H   LINE      CODE     ---       #102
      0100CA23H   LINE      CODE     ---       #103
      0100CA36H   LINE      CODE     ---       #104
      0100CA38H   LINE      CODE     ---       #105
      0100CA38H   LINE      CODE     ---       #107
      0100CA38H   LINE      CODE     ---       #108
      0100CA38H   LINE      CODE     ---       #109
      0100CA40H   LINE      CODE     ---       #110
      0100CA40H   LINE      CODE     ---       #111
      0100CA40H   LINE      CODE     ---       #112
      0100CA43H   LINE      CODE     ---       #113
      0100CA4EH   LINE      CODE     ---       #114
      0100CA50H   LINE      CODE     ---       #115
      0100CA50H   LINE      CODE     ---       #116
      0100CA74H   LINE      CODE     ---       #119
      0100CA86H   LINE      CODE     ---       #121
      0100CA86H   LINE      CODE     ---       #122
      0100CA8EH   LINE      CODE     ---       #123
      ---         BLOCKEND  ---      ---       LVL=0

      0100F5C1H   BLOCK     CODE     ---       LVL=0
      00000000H   SYMBOL    XSTK     WORD      status
      0100F5C1H   LINE      CODE     ---       #126
      0100F5C7H   LINE      CODE     ---       #127
      0100F5D0H   LINE      CODE     ---       #128
      0100F5DAH   LINE      CODE     ---       #129
      0100F5E5H   LINE      CODE     ---       #130
      0100F5E5H   LINE      CODE     ---       #131
      0100F5EDH   LINE      CODE     ---       #132
      ---         BLOCKEND  ---      ---       LVL=0

      0100828BH   BLOCK     CODE     ---       LVL=0
      00000013H   SYMBOL    XSTK     BYTE      mode
      00000014H   SYMBOL    XSTK     BYTE      id
      00000000H   SYMBOL    XSTK     ---       temp_fs
      00000008H   SYMBOL    XSTK     ---       file
      0000000BH   SYMBOL    XSTK     BYTE      rec_size
      0000000CH   SYMBOL    XSTK     BYTE      sid
      0000000DH   SYMBOL    XSTK     BYTE      k
      0000000EH   SYMBOL    XSTK     WORD      offset
      00000010H   SYMBOL    XSTK     WORD      length
      00000012H   SYMBOL    XSTK     BYTE      fmask
      0100828BH   LINE      CODE     ---       #134
      0100829BH   LINE      CODE     ---       #137
      010082A0H   LINE      CODE     ---       #138
      010082A5H   LINE      CODE     ---       #140
LX51 LINKER/LOCATER V3.51                                                             01/27/2014  09:14:18  PAGE 141


      010082ADH   LINE      CODE     ---       #141
      010082B2H   LINE      CODE     ---       #142
      010082BBH   LINE      CODE     ---       #143
      010082C1H   LINE      CODE     ---       #144
      010082C9H   LINE      CODE     ---       #145
      010082DAH   LINE      CODE     ---       #146
      010082EAH   LINE      CODE     ---       #147
      010082FBH   LINE      CODE     ---       #148
      010082FEH   LINE      CODE     ---       #149
      0100832DH   LINE      CODE     ---       #150
      01008334H   LINE      CODE     ---       #151
      0100833AH   LINE      CODE     ---       #153
      0100833AH   LINE      CODE     ---       #154
      01008340H   LINE      CODE     ---       #155
      0100834EH   LINE      CODE     ---       #156
      01008363H   LINE      CODE     ---       #157
      01008369H   LINE      CODE     ---       #158
      01008370H   LINE      CODE     ---       #159
      01008376H   LINE      CODE     ---       #160
      01008397H   LINE      CODE     ---       #161
      010083A1H   LINE      CODE     ---       #162
      010083AEH   LINE      CODE     ---       #163
      010083AEH   LINE      CODE     ---       #164
      010083AEH   LINE      CODE     ---       #165
      010083AEH   LINE      CODE     ---       #166
      010083AEH   LINE      CODE     ---       #167
      010083AEH   LINE      CODE     ---       #168
      010083AEH   LINE      CODE     ---       #169
      010083AEH   LINE      CODE     ---       #170
      010083AEH   LINE      CODE     ---       #171
      010083AEH   LINE      CODE     ---       #172
      010083AEH   LINE      CODE     ---       #173
      010083AEH   LINE      CODE     ---       #174
      010083AEH   LINE      CODE     ---       #175
      010083B8H   LINE      CODE     ---       #176
      010083BFH   LINE      CODE     ---       #177
      010083C4H   LINE      CODE     ---       #178
      010083C4H   LINE      CODE     ---       #179
      010083C6H   LINE      CODE     ---       #180
      010083C6H   LINE      CODE     ---       #181
      010083CBH   LINE      CODE     ---       #182
      010083CBH   LINE      CODE     ---       #184
      010083D7H   LINE      CODE     ---       #185
      010083D9H   LINE      CODE     ---       #186
      010083D9H   LINE      CODE     ---       #187
      010083DEH   LINE      CODE     ---       #188
      010083DEH   LINE      CODE     ---       #189
      010083E7H   LINE      CODE     ---       #190
      010083F0H   LINE      CODE     ---       #191
      010083F6H   LINE      CODE     ---       #192
      01008407H   LINE      CODE     ---       #193
      01008421H   LINE      CODE     ---       #194
      01008428H   LINE      CODE     ---       #195
      01008439H   LINE      CODE     ---       #196
      01008451H   LINE      CODE     ---       #197
      01008460H   LINE      CODE     ---       #198
      01008462H   LINE      CODE     ---       #199
      01008469H   LINE      CODE     ---       #200
      01008474H   LINE      CODE     ---       #201
      0100848FH   LINE      CODE     ---       #202
      01008495H   LINE      CODE     ---       #203
      010084A8H   LINE      CODE     ---       #204
      010084BDH   LINE      CODE     ---       #205
      010084D0H   LINE      CODE     ---       #206
      010084D8H   LINE      CODE     ---       #207
LX51 LINKER/LOCATER V3.51                                                             01/27/2014  09:14:18  PAGE 142


      010084D8H   LINE      CODE     ---       #209
      010084E5H   LINE      CODE     ---       #210
      010084E5H   LINE      CODE     ---       #211
      010084E7H   LINE      CODE     ---       #213
      ---         BLOCKEND  ---      ---       LVL=0

      0100E0A6H   BLOCK     CODE     ---       LVL=0
      00000007H   SYMBOL    XSTK     ---       tar
      00000000H   SYMBOL    XSTK     BYTE      temp_fs
      00000002H   SYMBOL    XSTK     ---       tar_config
      00000006H   SYMBOL    XSTK     BYTE      i
      0100E0A6H   LINE      CODE     ---       #215
      0100E0AFH   LINE      CODE     ---       #218
      0100E0B4H   LINE      CODE     ---       #221
      0100E0BDH   LINE      CODE     ---       #222
      0100E0C3H   LINE      CODE     ---       #223
      0100E0D7H   LINE      CODE     ---       #225
      0100E0FCH   LINE      CODE     ---       #226
      0100E112H   LINE      CODE     ---       #227
      0100E11BH   LINE      CODE     ---       #228
      0100E11FH   LINE      CODE     ---       #229
      0100E11FH   LINE      CODE     ---       #231
      0100E11FH   LINE      CODE     ---       #232
      0100E11FH   LINE      CODE     ---       #233
      0100E121H   LINE      CODE     ---       #234
      ---         BLOCKEND  ---      ---       LVL=0

      01006CCEH   BLOCK     CODE     ---       LVL=0
      0000000FH   SYMBOL    XSTK     ---       tar
      00000012H   SYMBOL    XSTK     BYTE      mode
      00000013H   SYMBOL    XSTK     BYTE      index
      00000014H   SYMBOL    XSTK     ---       buffer_out
      00000000H   SYMBOL    XSTK     ---       temp_fs
      00000007H   SYMBOL    XSTK     ---       tar_config
      00000008H   SYMBOL    XSTK     WORD      i
      0000000AH   SYMBOL    XSTK     BYTE      j
      0000000BH   SYMBOL    XSTK     BYTE      k
      0000000DH   SYMBOL    XSTK     ---       buffer
      0000000EH   SYMBOL    XSTK     BYTE      status
      01006CCEH   LINE      CODE     ---       #236
      01006CDCH   LINE      CODE     ---       #239
      01006CDFH   LINE      CODE     ---       #240
      01006CE9H   LINE      CODE     ---       #242
      01006CEEH   LINE      CODE     ---       #243
      01006CFAH   LINE      CODE     ---       #244
      01006D09H   LINE      CODE     ---       #245
      01006D13H   LINE      CODE     ---       #246
      01006D1DH   LINE      CODE     ---       #247
      01006D30H   LINE      CODE     ---       #249
      01006D58H   LINE      CODE     ---       #250
      01006D7AH   LINE      CODE     ---       #252
      01006D7AH   LINE      CODE     ---       #253
      01006D7AH   LINE      CODE     ---       #254
      01006D7AH   LINE      CODE     ---       #256
      01006D84H   LINE      CODE     ---       #257
      01006D97H   LINE      CODE     ---       #259
      01006D9AH   LINE      CODE     ---       #260
      01006DAFH   LINE      CODE     ---       #261
      01006DC0H   LINE      CODE     ---       #262
      01006DCBH   LINE      CODE     ---       #263
      01006DD4H   LINE      CODE     ---       #264
      01006DDCH   LINE      CODE     ---       #265
      01006DEDH   LINE      CODE     ---       #266
      01006DF8H   LINE      CODE     ---       #267
      01006E10H   LINE      CODE     ---       #268
LX51 LINKER/LOCATER V3.51                                                             01/27/2014  09:14:18  PAGE 143


      01006E10H   LINE      CODE     ---       #269
      01006E15H   LINE      CODE     ---       #270
      01006E17H   LINE      CODE     ---       #271
      01006E17H   LINE      CODE     ---       #272
      01006E1DH   LINE      CODE     ---       #273
      01006E1DH   LINE      CODE     ---       #274
      01006E31H   LINE      CODE     ---       #275
      01006E3BH   LINE      CODE     ---       #276
      01006E4EH   LINE      CODE     ---       #277
      01006E7CH   LINE      CODE     ---       #278
      01006E7FH   LINE      CODE     ---       #279
      01006E7FH   LINE      CODE     ---       #280
      01006E9FH   LINE      CODE     ---       #281
      01006EA2H   LINE      CODE     ---       #282
      01006EA2H   LINE      CODE     ---       #283
      01006EA2H   LINE      CODE     ---       #284
      01006EA2H   LINE      CODE     ---       #285
      01006EACH   LINE      CODE     ---       #286
      01006EC8H   LINE      CODE     ---       #287
      01006ED2H   LINE      CODE     ---       #288
      01006EE4H   LINE      CODE     ---       #289
      01006EE4H   LINE      CODE     ---       #290
      01006EEFH   LINE      CODE     ---       #291
      01006EF5H   LINE      CODE     ---       #292
      01006F0AH   LINE      CODE     ---       #293
      01006F1FH   LINE      CODE     ---       #294
      01006F1FH   LINE      CODE     ---       #295
      01006F22H   LINE      CODE     ---       #296
      01006F22H   LINE      CODE     ---       #297
      01006F2DH   LINE      CODE     ---       #298
      01006F2DH   LINE      CODE     ---       #299
      01006F41H   LINE      CODE     ---       #300
      01006F41H   LINE      CODE     ---       #301
      01006F41H   LINE      CODE     ---       #302
      01006F4CH   LINE      CODE     ---       #303
      01006F4CH   LINE      CODE     ---       #304
      01006F60H   LINE      CODE     ---       #305
      01006F60H   LINE      CODE     ---       #306
      01006F6AH   LINE      CODE     ---       #307
      01006F7BH   LINE      CODE     ---       #308
      01006F84H   LINE      CODE     ---       #309
      01006F8EH   LINE      CODE     ---       #310
      01006F97H   LINE      CODE     ---       #311
      01006FA4H   LINE      CODE     ---       #312
      01006FB7H   LINE      CODE     ---       #313
      01006FD9H   LINE      CODE     ---       #314
      01006FD9H   LINE      CODE     ---       #315
      01006FDBH   LINE      CODE     ---       #316
      01006FDBH   LINE      CODE     ---       #317
      01006FE4H   LINE      CODE     ---       #318
      01006FE4H   LINE      CODE     ---       #319
      01006FE4H   LINE      CODE     ---       #320
      01006FF0H   LINE      CODE     ---       #321
      01006FF3H   LINE      CODE     ---       #322
      01006FF3H   LINE      CODE     ---       #323
      01006FF3H   LINE      CODE     ---       #324
      01006FF9H   LINE      CODE     ---       #325
      01006FF9H   LINE      CODE     ---       #326
      01007002H   LINE      CODE     ---       #327
      01007007H   LINE      CODE     ---       #328
      ---         BLOCKEND  ---      ---       LVL=0

      0100B922H   BLOCK     CODE     ---       LVL=0
      00000008H   SYMBOL    XSTK     BYTE      mode
      00000009H   SYMBOL    XSTK     ---       dcntr
LX51 LINKER/LOCATER V3.51                                                             01/27/2014  09:14:18  PAGE 144


      0000000CH   SYMBOL    XSTK     ---       scntr
      00000000H   SYMBOL    XSTK     DWORD     dctr
      00000004H   SYMBOL    XSTK     DWORD     sctr
      0100B922H   LINE      CODE     ---       #330
      0100B930H   LINE      CODE     ---       #331
      0100B942H   LINE      CODE     ---       #332
      0100B954H   LINE      CODE     ---       #333
      0100B96FH   LINE      CODE     ---       #334
      0100B977H   LINE      CODE     ---       #335
      0100B994H   LINE      CODE     ---       #336
      0100B99EH   LINE      CODE     ---       #337
      0100B9B7H   LINE      CODE     ---       #338
      0100B9B7H   LINE      CODE     ---       #339
      0100B9C2H   LINE      CODE     ---       #340
      0100B9DDH   LINE      CODE     ---       #341
      0100BA1BH   LINE      CODE     ---       #342
      0100BA36H   LINE      CODE     ---       #343
      0100BA57H   LINE      CODE     ---       #344
      0100BA57H   LINE      CODE     ---       #345
      0100BA59H   LINE      CODE     ---       #346
      ---         BLOCKEND  ---      ---       LVL=0

      01008785H   BLOCK     CODE     ---       LVL=0
      00000022H   SYMBOL    XSTK     ---       cmpkt
      00000000H   SYMBOL    XSTK     ---       temp_fs
      0000000CH   SYMBOL    XSTK     ---       tar_config
      00000010H   SYMBOL    XSTK     ---       buffer
      00000019H   SYMBOL    XSTK     WORD      i
      0000001BH   SYMBOL    XSTK     BYTE      j
      0000001CH   SYMBOL    XSTK     BYTE      k
      0000001DH   SYMBOL    XSTK     ---       vc
      00000020H   SYMBOL    XSTK     WORD      status
      01008785H   LINE      CODE     ---       #389
      0100878EH   LINE      CODE     ---       #393
      0100878EH   LINE      CODE     ---       #394
      01008798H   LINE      CODE     ---       #395
      010087A1H   LINE      CODE     ---       #396
      010087AAH   LINE      CODE     ---       #397
      010087B3H   LINE      CODE     ---       #398
      010087B9H   LINE      CODE     ---       #399
      010087CCH   LINE      CODE     ---       #400
      010087CEH   LINE      CODE     ---       #401
      010087DFH   LINE      CODE     ---       #402
      01008808H   LINE      CODE     ---       #403
      0100882FH   LINE      CODE     ---       #404
      01008831H   LINE      CODE     ---       #405
      01008831H   LINE      CODE     ---       #406
      01008831H   LINE      CODE     ---       #408
      01008837H   LINE      CODE     ---       #409
      0100884EH   LINE      CODE     ---       #411
      0100884EH   LINE      CODE     ---       #412
      01008860H   LINE      CODE     ---       #413
      0100887AH   LINE      CODE     ---       #414
      01008885H   LINE      CODE     ---       #415
      01008895H   LINE      CODE     ---       #416
      0100889DH   LINE      CODE     ---       #417
      010088B7H   LINE      CODE     ---       #418
      010088C2H   LINE      CODE     ---       #421
      010088CEH   LINE      CODE     ---       #423
      010088D7H   LINE      CODE     ---       #424
      010088FAH   LINE      CODE     ---       #426
      01008905H   LINE      CODE     ---       #428
      0100891BH   LINE      CODE     ---       #429
      01008949H   LINE      CODE     ---       #431
      01008977H   LINE      CODE     ---       #432
LX51 LINKER/LOCATER V3.51                                                             01/27/2014  09:14:18  PAGE 145


      01008980H   LINE      CODE     ---       #433
      01008980H   LINE      CODE     ---       #434
      01008980H   LINE      CODE     ---       #435
      0100898DH   LINE      CODE     ---       #436
      01008996H   LINE      CODE     ---       #437
      010089A0H   LINE      CODE     ---       #438
      010089B6H   LINE      CODE     ---       #439
      010089C0H   LINE      CODE     ---       #440
      010089CAH   LINE      CODE     ---       #441
      010089CAH   LINE      CODE     ---       #442
      010089D0H   LINE      CODE     ---       #443
      ---         BLOCKEND  ---      ---       LVL=0

      0100CE27H   BLOCK     CODE     ---       LVL=0
      0000000CH   SYMBOL    XSTK     WORD      fid
      0000000EH   SYMBOL    XSTK     BYTE      id
      0000000FH   SYMBOL    XSTK     ---       buffer
      00000012H   SYMBOL    XSTK     BYTE      max_len
      00000000H   SYMBOL    XSTK     ---       temp_fs
      00000009H   SYMBOL    XSTK     ---       temp
      0000000AH   SYMBOL    XSTK     WORD      i
      0100CE27H   LINE      CODE     ---       #445
      0100CE38H   LINE      CODE     ---       #448
      0100CE3FH   LINE      CODE     ---       #449
      0100CE48H   LINE      CODE     ---       #450
      0100CE4EH   LINE      CODE     ---       #451
      0100CE6BH   LINE      CODE     ---       #452
      0100CE8DH   LINE      CODE     ---       #453
      0100CE99H   LINE      CODE     ---       #454
      0100CEA0H   LINE      CODE     ---       #455
      0100CEADH   LINE      CODE     ---       #456
      0100CEB2H   LINE      CODE     ---       #457
      0100CEB2H   LINE      CODE     ---       #458
      0100CED7H   LINE      CODE     ---       #459
      0100CEDEH   LINE      CODE     ---       #460
      0100CEDEH   LINE      CODE     ---       #461
      0100CEEDH   LINE      CODE     ---       #462
      0100CEF0H   LINE      CODE     ---       #463
      0100CEF2H   LINE      CODE     ---       #464
      ---         BLOCKEND  ---      ---       LVL=0

      ---         MODULE    ---      ---       VAS
      020006A8H   PUBLIC    XDATA    BYTE      vas_tar_mode
      020006A0H   PUBLIC    XDATA    ---       _vas_fs
      0200069EH   PUBLIC    XDATA    WORD      vas_skip
      0200069CH   PUBLIC    XDATA    WORD      vas_PC_prev
      0200069BH   PUBLIC    XDATA    BYTE      vas_cvid
      02000698H   PUBLIC    XDATA    ---       vas_cistr
      02000697H   PUBLIC    XDATA    BYTE      vas_mode
      02000696H   PUBLIC    XDATA    BYTE      vas_state
      02000693H   PUBLIC    XDATA    ---       _var_list
      02000691H   PUBLIC    XDATA    WORD      vas_PL
      0200068FH   PUBLIC    XDATA    WORD      vas_PC
      0200068CH   PUBLIC    XDATA    ---       _const_list
      0100EB91H   PUBLIC    CODE     ---       _?VAS_strcmp
      010033D9H   PUBLIC    CODE     ---       _?VAS_decode
      0100E3C2H   PUBLIC    CODE     ---       _?VAS_push_header
      0100C043H   PUBLIC    CODE     ---       _?VAS_substitute
      0100B55AH   PUBLIC    CODE     ---       _?VAS_execute
      0100F6E5H   PUBLIC    CODE     ---       _?VAS_fetch
      01007C49H   PUBLIC    CODE     ---       _?VAS_script_fetch
      0100F004H   PUBLIC    CODE     ---       _?get_variable
      0100CF00H   PUBLIC    CODE     ---       _?clear_list
      0100B40DH   PUBLIC    CODE     ---       _?set_variable
      0100E2C1H   PUBLIC    CODE     ---       _?VAS_file_pop
LX51 LINKER/LOCATER V3.51                                                             01/27/2014  09:14:18  PAGE 146


      0100F08BH   PUBLIC    CODE     ---       _?VAS_init
      0100F9C5H   PUBLIC    CODE     ---       VAS_exit_plugin
      0100E1B7H   PUBLIC    CODE     ---       _?VAS_plugin_init
      0100E79AH   PUBLIC    CODE     ---       _?VAS_activated
      000000A8H   SFRSYM    DATA     BYTE      IE
      00000088H   SFRSYM    DATA     BYTE      TCON
      000000C0H   SFRSYM    DATA     BYTE      DESCTL
      000000E8H   SFRSYM    DATA     BYTE      FL_STS
      000000D8H   SFRSYM    DATA     BYTE      USR

      0100797BH   BLOCK     CODE     ---       LVL=0
      ---         BLOCKEND  ---      ---       LVL=0

      0100E79AH   BLOCK     CODE     ---       LVL=0
      00000000H   SYMBOL    XSTK     ---       cb_fs
      0100E79AH   LINE      CODE     ---       #30
      0100E7A0H   LINE      CODE     ---       #32
      0100E7ACH   LINE      CODE     ---       #33
      0100E7C2H   LINE      CODE     ---       #34
      0100E7DFH   LINE      CODE     ---       #35
      0100E7F5H   LINE      CODE     ---       #36
      0100E7F9H   LINE      CODE     ---       #37
      0100E7F9H   LINE      CODE     ---       #38
      0100E7FBH   LINE      CODE     ---       #39
      ---         BLOCKEND  ---      ---       LVL=0

      0100E1B7H   BLOCK     CODE     ---       LVL=0
      00000002H   SYMBOL    XSTK     WORD      address
      00000000H   SYMBOL    XSTK     WORD      length
      0100E1B7H   LINE      CODE     ---       #56
      0100E1BAH   LINE      CODE     ---       #58
      0100E1C4H   LINE      CODE     ---       #59
      0100E1CEH   LINE      CODE     ---       #60
      0100E1E2H   LINE      CODE     ---       #61
      0100E20BH   LINE      CODE     ---       #62
      0100E21CH   LINE      CODE     ---       #63
      0100E22AH   LINE      CODE     ---       #64
      0100E230H   LINE      CODE     ---       #65
      0100E230H   LINE      CODE     ---       #66
      0100E235H   LINE      CODE     ---       #67
      0100E235H   LINE      CODE     ---       #68
      0100E237H   LINE      CODE     ---       #69
      ---         BLOCKEND  ---      ---       LVL=0

      0100F9C5H   BLOCK     CODE     ---       LVL=0
      0100F9C5H   LINE      CODE     ---       #71
      0100F9C5H   LINE      CODE     ---       #72
      0100F9CAH   LINE      CODE     ---       #73
      0100F9D1H   LINE      CODE     ---       #74
      ---         BLOCKEND  ---      ---       LVL=0

      0100F08BH   BLOCK     CODE     ---       LVL=0
      00000000H   SYMBOL    XSTK     ---       handle
      00000003H   SYMBOL    XSTK     WORD      address
      00000005H   SYMBOL    XSTK     WORD      size
      0100F08BH   LINE      CODE     ---       #78
      0100F096H   LINE      CODE     ---       #83
      0100F0A9H   LINE      CODE     ---       #84
      0100F0B6H   LINE      CODE     ---       #85
      0100F0BEH   LINE      CODE     ---       #86
      0100F0C4H   LINE      CODE     ---       #87
      0100F0C4H   LINE      CODE     ---       #88
      0100F0C7H   LINE      CODE     ---       #91
      ---         BLOCKEND  ---      ---       LVL=0

LX51 LINKER/LOCATER V3.51                                                             01/27/2014  09:14:18  PAGE 147


      0100E2C1H   BLOCK     CODE     ---       LVL=0
      00000000H   SYMBOL    XSTK     WORD      i
      00000002H   SYMBOL    XSTK     ---       tag
      00000005H   SYMBOL    XSTK     ---       size
      00000008H   SYMBOL    XSTK     ---       value
      0100E2C1H   LINE      CODE     ---       #93
      0100E2C4H   LINE      CODE     ---       #94
      0100E2DEH   LINE      CODE     ---       #95
      0100E301H   LINE      CODE     ---       #96
      0100E330H   LINE      CODE     ---       #97
      0100E33CH   LINE      CODE     ---       #98
      ---         BLOCKEND  ---      ---       LVL=0

      0100B40DH   BLOCK     CODE     ---       LVL=0
      00000006H   SYMBOL    XSTK     ---       list
      00000009H   SYMBOL    XSTK     BYTE      id
      0000000AH   SYMBOL    XSTK     BYTE      length
      0000000BH   SYMBOL    XSTK     ---       buffer
      00000000H   SYMBOL    XSTK     ---       iterator
      00000003H   SYMBOL    XSTK     ---       temp
      0100B40DH   LINE      CODE     ---       #115
      0100B41BH   LINE      CODE     ---       #116
      0100B42AH   LINE      CODE     ---       #118
      0100B435H   LINE      CODE     ---       #119
      0100B443H   LINE      CODE     ---       #120
      0100B443H   LINE      CODE     ---       #121
      0100B458H   LINE      CODE     ---       #122
      0100B45BH   LINE      CODE     ---       #123
      0100B45EH   LINE      CODE     ---       #124
      0100B469H   LINE      CODE     ---       #125
      0100B475H   LINE      CODE     ---       #126
      0100B481H   LINE      CODE     ---       #127
      0100B493H   LINE      CODE     ---       #128
      0100B49CH   LINE      CODE     ---       #129
      0100B49CH   LINE      CODE     ---       #130
      0100B4A8H   LINE      CODE     ---       #131
      0100B4AAH   LINE      CODE     ---       #132
      0100B4B9H   LINE      CODE     ---       #133
      0100B4C5H   LINE      CODE     ---       #134
      0100B4C8H   LINE      CODE     ---       #135
      0100B4CBH   LINE      CODE     ---       #136
      0100B4CBH   LINE      CODE     ---       #137
      0100B4E0H   LINE      CODE     ---       #138
      0100B4ECH   LINE      CODE     ---       #139
      0100B4ECH   LINE      CODE     ---       #140
      0100B4ECH   LINE      CODE     ---       #141
      0100B4F4H   LINE      CODE     ---       #142
      0100B502H   LINE      CODE     ---       #143
      0100B50BH   LINE      CODE     ---       #144
      0100B51DH   LINE      CODE     ---       #145
      0100B544H   LINE      CODE     ---       #146
      0100B544H   LINE      CODE     ---       #147
      0100B54AH   LINE      CODE     ---       #148
      ---         BLOCKEND  ---      ---       LVL=0

      0100CF00H   BLOCK     CODE     ---       LVL=0
      00000009H   SYMBOL    XSTK     ---       list
      0000000CH   SYMBOL    XSTK     BYTE      from
      0000000DH   SYMBOL    XSTK     BYTE      to
      00000000H   SYMBOL    XSTK     ---       iterator
      00000003H   SYMBOL    XSTK     ---       temp
      00000006H   SYMBOL    XSTK     ---       last
      0100CF00H   LINE      CODE     ---       #151
      0100CF0EH   LINE      CODE     ---       #152
      0100CF1DH   LINE      CODE     ---       #153
LX51 LINKER/LOCATER V3.51                                                             01/27/2014  09:14:18  PAGE 148


      0100CF26H   LINE      CODE     ---       #154
      0100CF2BH   LINE      CODE     ---       #155
      0100CF36H   LINE      CODE     ---       #156
      0100CF3FH   LINE      CODE     ---       #157
      0100CF4BH   LINE      CODE     ---       #158
      0100CF6AH   LINE      CODE     ---       #159
      0100CF6DH   LINE      CODE     ---       #160
      0100CF6FH   LINE      CODE     ---       #161
      0100CF7AH   LINE      CODE     ---       #162
      0100CF8FH   LINE      CODE     ---       #163
      0100CF9BH   LINE      CODE     ---       #164
      0100CF9DH   LINE      CODE     ---       #165
      0100CFA9H   LINE      CODE     ---       #166
      0100CFBBH   LINE      CODE     ---       #167
      0100CFBBH   LINE      CODE     ---       #168
      0100CFBBH   LINE      CODE     ---       #169
      0100CFBEH   LINE      CODE     ---       #170
      0100CFD3H   LINE      CODE     ---       #171
      ---         BLOCKEND  ---      ---       LVL=0

      0100F004H   BLOCK     CODE     ---       LVL=0
      00000003H   SYMBOL    XSTK     ---       list
      00000006H   SYMBOL    XSTK     BYTE      id
      00000000H   SYMBOL    XSTK     ---       iterator
      0100F004H   LINE      CODE     ---       #174
      0100F012H   LINE      CODE     ---       #175
      0100F01AH   LINE      CODE     ---       #176
      0100F022H   LINE      CODE     ---       #177
      0100F034H   LINE      CODE     ---       #178
      0100F03DH   LINE      CODE     ---       #179
      0100F03FH   LINE      CODE     ---       #180
      0100F042H   LINE      CODE     ---       #181
      ---         BLOCKEND  ---      ---       LVL=0

      01007C49H   BLOCK     CODE     ---       LVL=0
      00000007H   SYMBOL    XSTK     ---       response
      0000000AH   SYMBOL    XSTK     WORD      length
      00000000H   SYMBOL    XSTK     BYTE      i
      00000001H   SYMBOL    XSTK     BYTE      tag
      00000002H   SYMBOL    XSTK     BYTE      res
      00000003H   SYMBOL    XSTK     BYTE      size
      0200068BH   SYMBOL    XDATA    BYTE      fetch_cntr
      00000004H   SYMBOL    XSTK     ---       selected
      01007C49H   LINE      CODE     ---       #199
      01007C57H   LINE      CODE     ---       #200
      01007C5CH   LINE      CODE     ---       #207
      01007C66H   LINE      CODE     ---       #208
      01007C7FH   LINE      CODE     ---       #209
      01007C96H   LINE      CODE     ---       #210
      01007CB7H   LINE      CODE     ---       #211
      01007CBBH   LINE      CODE     ---       #212
      01007CDDH   LINE      CODE     ---       #213
      01007CDDH   LINE      CODE     ---       #216
      01007CDDH   LINE      CODE     ---       #217
      01007CDDH   LINE      CODE     ---       #218
      01007CE1H   LINE      CODE     ---       #219
      01007CF8H   LINE      CODE     ---       #220
      01007CFFH   LINE      CODE     ---       #221
      01007CFFH   LINE      CODE     ---       #222
      01007D04H   LINE      CODE     ---       #223
      01007D09H   LINE      CODE     ---       #224
      01007D09H   LINE      CODE     ---       #225
      01007D0EH   LINE      CODE     ---       #226
      01007D10H   LINE      CODE     ---       #227
      01007D10H   LINE      CODE     ---       #228
LX51 LINKER/LOCATER V3.51                                                             01/27/2014  09:14:18  PAGE 149


      01007D10H   LINE      CODE     ---       #229
      01007D10H   LINE      CODE     ---       #230
      01007D10H   LINE      CODE     ---       #231
      01007D10H   LINE      CODE     ---       #232
      01007D1EH   LINE      CODE     ---       #233
      01007D21H   LINE      CODE     ---       #235
      01007D21H   LINE      CODE     ---       #236
      01007D21H   LINE      CODE     ---       #237
      01007D21H   LINE      CODE     ---       #238
      01007D2EH   LINE      CODE     ---       #239
      01007D37H   LINE      CODE     ---       #240
      01007D3AH   LINE      CODE     ---       #241
      01007D3AH   LINE      CODE     ---       #242
      01007D41H   LINE      CODE     ---       #243
      01007D41H   LINE      CODE     ---       #244
      01007D41H   LINE      CODE     ---       #245
      01007D41H   LINE      CODE     ---       #246
      01007D41H   LINE      CODE     ---       #247
      01007D4BH   LINE      CODE     ---       #248
      01007D4EH   LINE      CODE     ---       #249
      01007D4EH   LINE      CODE     ---       #250
      01007D4EH   LINE      CODE     ---       #251
      01007D4EH   LINE      CODE     ---       #252
      01007D4EH   LINE      CODE     ---       #253
      01007D4EH   LINE      CODE     ---       #254
      01007D58H   LINE      CODE     ---       #256
      01007D64H   LINE      CODE     ---       #257
      01007D71H   LINE      CODE     ---       #258
      01007D7EH   LINE      CODE     ---       #259
      01007D91H   LINE      CODE     ---       #260
      01007D98H   LINE      CODE     ---       #261
      01007DBFH   LINE      CODE     ---       #262
      01007DC5H   LINE      CODE     ---       #263
      01007DCEH   LINE      CODE     ---       #264
      01007DCEH   LINE      CODE     ---       #265
      01007DCEH   LINE      CODE     ---       #266
      01007DCEH   LINE      CODE     ---       #267
      01007DCEH   LINE      CODE     ---       #268
      01007DD7H   LINE      CODE     ---       #270
      01007DE1H   LINE      CODE     ---       #271
      01007DEAH   LINE      CODE     ---       #272
      01007DEDH   LINE      CODE     ---       #273
      01007DF6H   LINE      CODE     ---       #274
      01007E07H   LINE      CODE     ---       #275
      01007E1CH   LINE      CODE     ---       #277
      01007E23H   LINE      CODE     ---       #278
      01007E39H   LINE      CODE     ---       #279
      01007E47H   LINE      CODE     ---       #280
      01007E5EH   LINE      CODE     ---       #283
      01007E5EH   LINE      CODE     ---       #284
      01007E5EH   LINE      CODE     ---       #285
      01007E61H   LINE      CODE     ---       #286
      01007E61H   LINE      CODE     ---       #287
      01007E6CH   LINE      CODE     ---       #288
      01007E6FH   LINE      CODE     ---       #289
      01007E79H   LINE      CODE     ---       #290
      01007E87H   LINE      CODE     ---       #291
      01007E89H   LINE      CODE     ---       #292
      01007E89H   LINE      CODE     ---       #293
      01007E89H   LINE      CODE     ---       #294
      01007E89H   LINE      CODE     ---       #295
      01007E89H   LINE      CODE     ---       #297
      01007E94H   LINE      CODE     ---       #298
      01007E97H   LINE      CODE     ---       #299
      01007EA0H   LINE      CODE     ---       #300
LX51 LINKER/LOCATER V3.51                                                             01/27/2014  09:14:18  PAGE 150


      01007EA8H   LINE      CODE     ---       #301
      01007EBCH   LINE      CODE     ---       #302
      01007EBCH   LINE      CODE     ---       #303
      01007ED7H   LINE      CODE     ---       #304
      01007ED9H   LINE      CODE     ---       #305
      01007ED9H   LINE      CODE     ---       #306
      01007ED9H   LINE      CODE     ---       #308
      01007ED9H   LINE      CODE     ---       #309
      01007ED9H   LINE      CODE     ---       #310
      01007ED9H   LINE      CODE     ---       #312
      01007EE0H   LINE      CODE     ---       #313
      01007EE0H   LINE      CODE     ---       #314
      01007EE7H   LINE      CODE     ---       #315
      01007EECH   LINE      CODE     ---       #316
      01007EECH   LINE      CODE     ---       #317
      01007EECH   LINE      CODE     ---       #318
      01007EF0H   LINE      CODE     ---       #319
      ---         BLOCKEND  ---      ---       LVL=0

      0100F6E5H   BLOCK     CODE     ---       LVL=0
      00000000H   SYMBOL    XSTK     ---       response
      00000003H   SYMBOL    XSTK     WORD      length
      0100F6E5H   LINE      CODE     ---       #321
      0100F6F0H   LINE      CODE     ---       #322
      0100F6F8H   LINE      CODE     ---       #324
      0100F6FDH   LINE      CODE     ---       #325
      0100F6FDH   LINE      CODE     ---       #347
      0100F6FDH   LINE      CODE     ---       #348
      0100F6FDH   LINE      CODE     ---       #350
      0100F70DH   LINE      CODE     ---       #351
      0100F70DH   LINE      CODE     ---       #352
      ---         BLOCKEND  ---      ---       LVL=0

      0100B55AH   BLOCK     CODE     ---       LVL=0
      00000007H   SYMBOL    XSTK     ---       response
      00000000H   SYMBOL    XSTK     BYTE      dsize
      00000001H   SYMBOL    XSTK     BYTE      dtag
      00000002H   SYMBOL    XSTK     WORD      status
      00000004H   SYMBOL    XSTK     BYTE      tag
      00000005H   SYMBOL    XSTK     BYTE      size
      00000006H   SYMBOL    XSTK     BYTE      i
      0100B55AH   LINE      CODE     ---       #354
      0100B560H   LINE      CODE     ---       #357
      0100B566H   LINE      CODE     ---       #358
      0100B56AH   LINE      CODE     ---       #359
      0100B58FH   LINE      CODE     ---       #360
      0100B5A5H   LINE      CODE     ---       #362
      0100B5BFH   LINE      CODE     ---       #363
      0100B5BFH   LINE      CODE     ---       #365
      0100B5CDH   LINE      CODE     ---       #366
      0100B5DBH   LINE      CODE     ---       #367
      0100B5E0H   LINE      CODE     ---       #368
      0100B5F6H   LINE      CODE     ---       #369
      0100B5F9H   LINE      CODE     ---       #370
      0100B5F9H   LINE      CODE     ---       #371
      0100B5F9H   LINE      CODE     ---       #373
      0100B5F9H   LINE      CODE     ---       #374
      0100B5F9H   LINE      CODE     ---       #375
      0100B612H   LINE      CODE     ---       #376
      0100B61DH   LINE      CODE     ---       #377
      0100B63DH   LINE      CODE     ---       #378
      0100B642H   LINE      CODE     ---       #379
      0100B64DH   LINE      CODE     ---       #380
      0100B64DH   LINE      CODE     ---       #381
      0100B64DH   LINE      CODE     ---       #382
LX51 LINKER/LOCATER V3.51                                                             01/27/2014  09:14:18  PAGE 151


      0100B64DH   LINE      CODE     ---       #383
      0100B64DH   LINE      CODE     ---       #384
      0100B64DH   LINE      CODE     ---       #385
      0100B64DH   LINE      CODE     ---       #386
      0100B64DH   LINE      CODE     ---       #388
      0100B64DH   LINE      CODE     ---       #389
      0100B64DH   LINE      CODE     ---       #393
      0100B64DH   LINE      CODE     ---       #394
      0100B64DH   LINE      CODE     ---       #395
      0100B655H   LINE      CODE     ---       #396
      0100B663H   LINE      CODE     ---       #397
      0100B663H   LINE      CODE     ---       #398
      0100B66CH   LINE      CODE     ---       #399
      0100B673H   LINE      CODE     ---       #400
      0100B673H   LINE      CODE     ---       #401
      0100B675H   LINE      CODE     ---       #402
      0100B675H   LINE      CODE     ---       #403
      0100B684H   LINE      CODE     ---       #404
      0100B68DH   LINE      CODE     ---       #405
      0100B68DH   LINE      CODE     ---       #406
      0100B68FH   LINE      CODE     ---       #407
      0100B68FH   LINE      CODE     ---       #408
      0100B68FH   LINE      CODE     ---       #409
      0100B68FH   LINE      CODE     ---       #410
      0100B68FH   LINE      CODE     ---       #411
      0100B695H   LINE      CODE     ---       #412
      0100B695H   LINE      CODE     ---       #413
      0100B69FH   LINE      CODE     ---       #414
      ---         BLOCKEND  ---      ---       LVL=0

      0100C043H   BLOCK     CODE     ---       LVL=0
      00000007H   SYMBOL    XSTK     BYTE      lv_format
      00000008H   SYMBOL    XSTK     ---       buffer_in
      0000000BH   SYMBOL    XSTK     BYTE      len
      0000000CH   SYMBOL    XSTK     ---       buffer_out
      0000000FH   SYMBOL    XSTK     BYTE      max_len
      00000000H   SYMBOL    XSTK     BYTE      i
      00000001H   SYMBOL    XSTK     BYTE      j
      00000002H   SYMBOL    XSTK     BYTE      p
      00000003H   SYMBOL    XSTK     BYTE      d
      00000004H   SYMBOL    XSTK     ---       selected
      0100C043H   LINE      CODE     ---       #416
      0100C04EH   LINE      CODE     ---       #417
      0100C055H   LINE      CODE     ---       #421
      0100C068H   LINE      CODE     ---       #422
      0100C06EH   LINE      CODE     ---       #423
      0100C078H   LINE      CODE     ---       #424
      0100C081H   LINE      CODE     ---       #425
      0100C081H   LINE      CODE     ---       #426
      0100C081H   LINE      CODE     ---       #427
      0100C081H   LINE      CODE     ---       #428
      0100C087H   LINE      CODE     ---       #429
      0100C096H   LINE      CODE     ---       #431
      0100C096H   LINE      CODE     ---       #432
      0100C096H   LINE      CODE     ---       #433
      0100C096H   LINE      CODE     ---       #434
      0100C096H   LINE      CODE     ---       #435
      0100C099H   LINE      CODE     ---       #437
      0100C099H   LINE      CODE     ---       #438
      0100C0AAH   LINE      CODE     ---       #439
      0100C0B5H   LINE      CODE     ---       #440
      0100C0BBH   LINE      CODE     ---       #441
      0100C0CBH   LINE      CODE     ---       #442
      0100C0E1H   LINE      CODE     ---       #443
      0100C0E1H   LINE      CODE     ---       #444
LX51 LINKER/LOCATER V3.51                                                             01/27/2014  09:14:18  PAGE 152


      0100C10AH   LINE      CODE     ---       #445
      0100C12FH   LINE      CODE     ---       #446
      0100C140H   LINE      CODE     ---       #447
      0100C140H   LINE      CODE     ---       #448
      0100C143H   LINE      CODE     ---       #449
      0100C143H   LINE      CODE     ---       #450
      0100C143H   LINE      CODE     ---       #451
      0100C143H   LINE      CODE     ---       #452
      0100C156H   LINE      CODE     ---       #453
      0100C159H   LINE      CODE     ---       #454
      0100C159H   LINE      CODE     ---       #455
      0100C159H   LINE      CODE     ---       #457
      0100C15FH   LINE      CODE     ---       #458
      ---         BLOCKEND  ---      ---       LVL=0

      0100E3C2H   BLOCK     CODE     ---       LVL=0
      00000003H   SYMBOL    XSTK     BYTE      offset
      00000004H   SYMBOL    XSTK     BYTE      cmd
      00000005H   SYMBOL    XSTK     BYTE      qualifier
      00000006H   SYMBOL    XSTK     BYTE      target
      00000002H   SYMBOL    XSTK     ---       temp
      0100E3C2H   LINE      CODE     ---       #460
      0100E3D7H   LINE      CODE     ---       #462
      0100E3DCH   LINE      CODE     ---       #463
      0100E3E4H   LINE      CODE     ---       #464
      0100E3EDH   LINE      CODE     ---       #465
      0100E40BH   LINE      CODE     ---       #466
      0100E411H   LINE      CODE     ---       #467
      0100E41AH   LINE      CODE     ---       #468
      0100E438H   LINE      CODE     ---       #469
      0100E43CH   LINE      CODE     ---       #470
      ---         BLOCKEND  ---      ---       LVL=0

      010033D9H   BLOCK     CODE     ---       LVL=0
      00000000H   SYMBOL    XSTK     WORD      status
      00000002H   SYMBOL    XSTK     BYTE      j
      00000003H   SYMBOL    XSTK     BYTE      k
      00000004H   SYMBOL    XSTK     BYTE      tag
      00000005H   SYMBOL    XSTK     BYTE      size
      00000006H   SYMBOL    XSTK     BYTE      len
      00000008H   SYMBOL    XSTK     ---       temp
      0000000CH   SYMBOL    XSTK     BYTE      attr
      0000000DH   SYMBOL    XSTK     ---       value
      00000010H   SYMBOL    XSTK     ---       address
      00000013H   SYMBOL    XSTK     ---       cvar
      010033D9H   LINE      CODE     ---       #473
      010033DFH   LINE      CODE     ---       #476
      010033E5H   LINE      CODE     ---       #492
      010033E5H   LINE      CODE     ---       #493
      010033FDH   LINE      CODE     ---       #494
      01003407H   LINE      CODE     ---       #495
      01003416H   LINE      CODE     ---       #496
      0100341DH   LINE      CODE     ---       #497
      0100341DH   LINE      CODE     ---       #498
      0100342AH   LINE      CODE     ---       #499
      01003438H   LINE      CODE     ---       #500
      0100345CH   LINE      CODE     ---       #502
      01003461H   LINE      CODE     ---       #503
      0100346AH   LINE      CODE     ---       #504
      0100346EH   LINE      CODE     ---       #505
      01003474H   LINE      CODE     ---       #506
      01003479H   LINE      CODE     ---       #507
      0100347DH   LINE      CODE     ---       #508
      010034CBH   LINE      CODE     ---       #510
      010034CBH   LINE      CODE     ---       #511
LX51 LINKER/LOCATER V3.51                                                             01/27/2014  09:14:18  PAGE 153


      010034D6H   LINE      CODE     ---       #514
      010034D6H   LINE      CODE     ---       #517
      010034E0H   LINE      CODE     ---       #518
      010034E6H   LINE      CODE     ---       #519
      01003508H   LINE      CODE     ---       #521
      01003520H   LINE      CODE     ---       #522
      01003526H   LINE      CODE     ---       #524
      01003531H   LINE      CODE     ---       #526
      0100354AH   LINE      CODE     ---       #529
      01003552H   LINE      CODE     ---       #530
      0100355CH   LINE      CODE     ---       #531
      01003568H   LINE      CODE     ---       #532
      01003575H   LINE      CODE     ---       #533
      0100357AH   LINE      CODE     ---       #535
      010035A0H   LINE      CODE     ---       #536
      010035A6H   LINE      CODE     ---       #537
      010035AEH   LINE      CODE     ---       #538
      010035B4H   LINE      CODE     ---       #539
      010035CDH   LINE      CODE     ---       #540
      010035D3H   LINE      CODE     ---       #541
      010035D9H   LINE      CODE     ---       #542
      010035F0H   LINE      CODE     ---       #543
      010035F2H   LINE      CODE     ---       #544
      010035F2H   LINE      CODE     ---       #545
      010035F2H   LINE      CODE     ---       #546
      010035F9H   LINE      CODE     ---       #547
      010035F9H   LINE      CODE     ---       #548
      01003603H   LINE      CODE     ---       #549
      01003606H   LINE      CODE     ---       #552
      01003610H   LINE      CODE     ---       #553
      0100361BH   LINE      CODE     ---       #555
      0100361BH   LINE      CODE     ---       #556
      01003624H   LINE      CODE     ---       #557
      01003637H   LINE      CODE     ---       #559
      01003641H   LINE      CODE     ---       #560
      0100364DH   LINE      CODE     ---       #561
      0100365AH   LINE      CODE     ---       #562
      0100367BH   LINE      CODE     ---       #563
      01003690H   LINE      CODE     ---       #564
      010036ADH   LINE      CODE     ---       #565
      010036BBH   LINE      CODE     ---       #566
      010036C4H   LINE      CODE     ---       #568
      010036D0H   LINE      CODE     ---       #569
      010036F8H   LINE      CODE     ---       #570
      0100370DH   LINE      CODE     ---       #571
      0100371CH   LINE      CODE     ---       #572
      0100374DH   LINE      CODE     ---       #574
      01003753H   LINE      CODE     ---       #575
      0100375CH   LINE      CODE     ---       #576
      01003770H   LINE      CODE     ---       #582
      01003779H   LINE      CODE     ---       #583
      0100377FH   LINE      CODE     ---       #584
      0100377FH   LINE      CODE     ---       #590
      01003782H   LINE      CODE     ---       #593
      01003782H   LINE      CODE     ---       #594
      01003795H   LINE      CODE     ---       #595
      010037A0H   LINE      CODE     ---       #596
      010037A5H   LINE      CODE     ---       #597
      010037A7H   LINE      CODE     ---       #600
      010037A7H   LINE      CODE     ---       #601
      010037AEH   LINE      CODE     ---       #604
      010037AEH   LINE      CODE     ---       #607
      010037AEH   LINE      CODE     ---       #608
      010037C7H   LINE      CODE     ---       #609
      010037D1H   LINE      CODE     ---       #611
LX51 LINKER/LOCATER V3.51                                                             01/27/2014  09:14:18  PAGE 154


      010037D7H   LINE      CODE     ---       #612
      010037F6H   LINE      CODE     ---       #619
      010037F6H   LINE      CODE     ---       #620
      010037FCH   LINE      CODE     ---       #621
      01003802H   LINE      CODE     ---       #623
      0100380AH   LINE      CODE     ---       #624
      0100381DH   LINE      CODE     ---       #625
      01003835H   LINE      CODE     ---       #626
      01003838H   LINE      CODE     ---       #627
      01003838H   LINE      CODE     ---       #628
      0100383BH   LINE      CODE     ---       #631
      0100383BH   LINE      CODE     ---       #632
      01003844H   LINE      CODE     ---       #633
      0100384EH   LINE      CODE     ---       #634
      01003854H   LINE      CODE     ---       #635
      01003876H   LINE      CODE     ---       #637
      0100388EH   LINE      CODE     ---       #638
      01003894H   LINE      CODE     ---       #639
      0100389BH   LINE      CODE     ---       #640
      010038A8H   LINE      CODE     ---       #641
      010038B0H   LINE      CODE     ---       #642
      010038D5H   LINE      CODE     ---       #644
      010038DAH   LINE      CODE     ---       #645
      010038DCH   LINE      CODE     ---       #646
      010038E7H   LINE      CODE     ---       #647
      010038EAH   LINE      CODE     ---       #648
      010038FDH   LINE      CODE     ---       #649
      01003907H   LINE      CODE     ---       #650
      01003916H   LINE      CODE     ---       #651
      01003928H   LINE      CODE     ---       #652
      01003928H   LINE      CODE     ---       #653
      01003932H   LINE      CODE     ---       #654
      01003934H   LINE      CODE     ---       #655
      0100394BH   LINE      CODE     ---       #662
      0100396FH   LINE      CODE     ---       #663
      01003975H   LINE      CODE     ---       #664
      0100398AH   LINE      CODE     ---       #665
      01003990H   LINE      CODE     ---       #666
      0100399BH   LINE      CODE     ---       #667
      0100399EH   LINE      CODE     ---       #668
      010039AAH   LINE      CODE     ---       #669
      010039CCH   LINE      CODE     ---       #670
      010039CCH   LINE      CODE     ---       #671
      010039D6H   LINE      CODE     ---       #672
      010039D8H   LINE      CODE     ---       #674
      010039DEH   LINE      CODE     ---       #675
      010039DEH   LINE      CODE     ---       #676
      010039E1H   LINE      CODE     ---       #679
      010039E1H   LINE      CODE     ---       #680
      010039EBH   LINE      CODE     ---       #681
      01003A01H   LINE      CODE     ---       #682
      01003A06H   LINE      CODE     ---       #683
      01003A0FH   LINE      CODE     ---       #692
      01003A2DH   LINE      CODE     ---       #694
      01003A3FH   LINE      CODE     ---       #695
      01003A49H   LINE      CODE     ---       #696
      01003A4FH   LINE      CODE     ---       #698
      01003A5EH   LINE      CODE     ---       #699
      01003A66H   LINE      CODE     ---       #700
      01003A70H   LINE      CODE     ---       #701
      01003A73H   LINE      CODE     ---       #703
      01003A95H   LINE      CODE     ---       #704
      01003AABH   LINE      CODE     ---       #710
      01003ABFH   LINE      CODE     ---       #711
      01003AD4H   LINE      CODE     ---       #712
LX51 LINKER/LOCATER V3.51                                                             01/27/2014  09:14:18  PAGE 155


      01003ADCH   LINE      CODE     ---       #713
      01003AE2H   LINE      CODE     ---       #714
      01003AEBH   LINE      CODE     ---       #715
      01003AFAH   LINE      CODE     ---       #716
      01003B00H   LINE      CODE     ---       #717
      01003B05H   LINE      CODE     ---       #719
      01003B14H   LINE      CODE     ---       #720
      01003B27H   LINE      CODE     ---       #721
      01003B2DH   LINE      CODE     ---       #722
      01003B32H   LINE      CODE     ---       #723
      01003B34H   LINE      CODE     ---       #724
      01003B3AH   LINE      CODE     ---       #725
      01003B65H   LINE      CODE     ---       #726
      01003B7AH   LINE      CODE     ---       #727
      01003B80H   LINE      CODE     ---       #728
      01003B8AH   LINE      CODE     ---       #729
      01003B8AH   LINE      CODE     ---       #730
      01003B8FH   LINE      CODE     ---       #731
      01003B92H   LINE      CODE     ---       #737
      01003B92H   LINE      CODE     ---       #738
      01003B9CH   LINE      CODE     ---       #739
      01003BA8H   LINE      CODE     ---       #740
      01003BBFH   LINE      CODE     ---       #741
      01003BCFH   LINE      CODE     ---       #742
      01003BD6H   LINE      CODE     ---       #743
      01003BD9H   LINE      CODE     ---       #790
      01003BD9H   LINE      CODE     ---       #791
      01003BF3H   LINE      CODE     ---       #792
      01003BF6H   LINE      CODE     ---       #793
      01003C0FH   LINE      CODE     ---       #794
      01003C0FH   LINE      CODE     ---       #795
      01003C12H   LINE      CODE     ---       #863
      01003C12H   LINE      CODE     ---       #864
      01003C1FH   LINE      CODE     ---       #865
      01003C1FH   LINE      CODE     ---       #866
      01003C1FH   LINE      CODE     ---       #867
      01003C3AH   LINE      CODE     ---       #869
      01003C3DH   LINE      CODE     ---       #875
      01003C40H   LINE      CODE     ---       #876
      01003C46H   LINE      CODE     ---       #877
      01003C4CH   LINE      CODE     ---       #878
      01003C6EH   LINE      CODE     ---       #879
      01003C77H   LINE      CODE     ---       #880
      01003C89H   LINE      CODE     ---       #881
      01003C8FH   LINE      CODE     ---       #882
      01003C94H   LINE      CODE     ---       #883
      01003C9EH   LINE      CODE     ---       #884
      01003CBBH   LINE      CODE     ---       #890
      01003CD4H   LINE      CODE     ---       #891
      01003CD9H   LINE      CODE     ---       #892
      01003CE4H   LINE      CODE     ---       #893
      01003CE7H   LINE      CODE     ---       #894
      01003CF2H   LINE      CODE     ---       #895
      01003CFAH   LINE      CODE     ---       #896
      01003CFAH   LINE      CODE     ---       #897
      01003D07H   LINE      CODE     ---       #898
      01003D09H   LINE      CODE     ---       #899
      01003D09H   LINE      CODE     ---       #900
      01003D0CH   LINE      CODE     ---       #903
      01003D0CH   LINE      CODE     ---       #905
      01003D19H   LINE      CODE     ---       #906
      01003D19H   LINE      CODE     ---       #907
      01003D19H   LINE      CODE     ---       #908
      01003D34H   LINE      CODE     ---       #909
      01003D37H   LINE      CODE     ---       #910
LX51 LINKER/LOCATER V3.51                                                             01/27/2014  09:14:18  PAGE 156


      01003D3AH   LINE      CODE     ---       #911
      01003D40H   LINE      CODE     ---       #912
      01003D46H   LINE      CODE     ---       #913
      01003D68H   LINE      CODE     ---       #914
      01003D71H   LINE      CODE     ---       #915
      01003D83H   LINE      CODE     ---       #916
      01003D89H   LINE      CODE     ---       #917
      01003D89H   LINE      CODE     ---       #918
      01003D93H   LINE      CODE     ---       #919
      01003D9DH   LINE      CODE     ---       #920
      01003DA6H   LINE      CODE     ---       #921
      01003DB1H   LINE      CODE     ---       #922
      01003DC0H   LINE      CODE     ---       #923
      01003DD2H   LINE      CODE     ---       #924
      01003DE5H   LINE      CODE     ---       #925
      01003E09H   LINE      CODE     ---       #926
      01003E0BH   LINE      CODE     ---       #927
      01003E14H   LINE      CODE     ---       #928
      01003E14H   LINE      CODE     ---       #929
      01003E14H   LINE      CODE     ---       #930
      01003E1CH   LINE      CODE     ---       #931
      01003E1FH   LINE      CODE     ---       #932
      01003E2DH   LINE      CODE     ---       #933
      01003E30H   LINE      CODE     ---       #934
      01003E3EH   LINE      CODE     ---       #935
      01003E4BH   LINE      CODE     ---       #936
      01003E58H   LINE      CODE     ---       #937
      01003E63H   LINE      CODE     ---       #938
      01003E72H   LINE      CODE     ---       #939
      01003E7DH   LINE      CODE     ---       #940
      01003E8DH   LINE      CODE     ---       #941
      01003EAEH   LINE      CODE     ---       #942
      01003ECCH   LINE      CODE     ---       #943
      01003ED2H   LINE      CODE     ---       #944
      01003ED2H   LINE      CODE     ---       #945
      01003ED2H   LINE      CODE     ---       #946
      01003EDCH   LINE      CODE     ---       #947
      01003EDFH   LINE      CODE     ---       #948
      01003EE6H   LINE      CODE     ---       #949
      01003EEEH   LINE      CODE     ---       #952
      01003EF4H   LINE      CODE     ---       #953
      01003F13H   LINE      CODE     ---       #954
      01003F13H   LINE      CODE     ---       #955
      01003F19H   LINE      CODE     ---       #956
      01003F1FH   LINE      CODE     ---       #957
      01003F32H   LINE      CODE     ---       #958
      01003F3DH   LINE      CODE     ---       #959
      01003F67H   LINE      CODE     ---       #960
      01003F7BH   LINE      CODE     ---       #961
      01003F84H   LINE      CODE     ---       #962
      01003F84H   LINE      CODE     ---       #963
      01003F87H   LINE      CODE     ---       #966
      01003F87H   LINE      CODE     ---       #968
      01003FA0H   LINE      CODE     ---       #969
      01003FA0H   LINE      CODE     ---       #970
      01003FAAH   LINE      CODE     ---       #971
      01003FAFH   LINE      CODE     ---       #972
      01003FBAH   LINE      CODE     ---       #973
      01003FDFH   LINE      CODE     ---       #974
      01003FDFH   LINE      CODE     ---       #975
      01003FE4H   LINE      CODE     ---       #976
      01003FEBH   LINE      CODE     ---       #977
      01004006H   LINE      CODE     ---       #978
      01004010H   LINE      CODE     ---       #979
      01004010H   LINE      CODE     ---       #980
LX51 LINKER/LOCATER V3.51                                                             01/27/2014  09:14:18  PAGE 157


      01004015H   LINE      CODE     ---       #983
      01004021H   LINE      CODE     ---       #984
      01004040H   LINE      CODE     ---       #985
      01004040H   LINE      CODE     ---       #986
      01004046H   LINE      CODE     ---       #987
      01004052H   LINE      CODE     ---       #988
      01004065H   LINE      CODE     ---       #989
      01004070H   LINE      CODE     ---       #990
      010040A6H   LINE      CODE     ---       #991
      010040BFH   LINE      CODE     ---       #992
      010040C8H   LINE      CODE     ---       #993
      010040D8H   LINE      CODE     ---       #994
      010040DBH   LINE      CODE     ---       #1001
      010040DBH   LINE      CODE     ---       #1007
      010040DBH   LINE      CODE     ---       #1010
      010040DBH   LINE      CODE     ---       #1011
      010040E2H   LINE      CODE     ---       #1012
      010040EFH   LINE      CODE     ---       #1013
      010040EFH   LINE      CODE     ---       #1014
      010040F7H   LINE      CODE     ---       #1015
      01004102H   LINE      CODE     ---       #1016
      01004102H   LINE      CODE     ---       #1018
      01004105H   LINE      CODE     ---       #1021
      01004105H   LINE      CODE     ---       #1022
      01004105H   LINE      CODE     ---       #1023
      0100410CH   LINE      CODE     ---       #1024
      01004110H   LINE      CODE     ---       #1025
      0100411EH   LINE      CODE     ---       #1026
      01004124H   LINE      CODE     ---       #1027
      01004127H   LINE      CODE     ---       #1030
      01004127H   LINE      CODE     ---       #1031
      01004132H   LINE      CODE     ---       #1032
      01004143H   LINE      CODE     ---       #1033
      0100414AH   LINE      CODE     ---       #1034
      01004154H   LINE      CODE     ---       #1035
      01004165H   LINE      CODE     ---       #1036
      01004165H   LINE      CODE     ---       #1037
      01004165H   LINE      CODE     ---       #1038
      01004165H   LINE      CODE     ---       #1041
      01004165H   LINE      CODE     ---       #1044
      01004165H   LINE      CODE     ---       #1047
      01004179H   LINE      CODE     ---       #1048
      0100417CH   LINE      CODE     ---       #1051
      0100417CH   LINE      CODE     ---       #1052
      01004182H   LINE      CODE     ---       #1053
      0100418DH   LINE      CODE     ---       #1054
      01004197H   LINE      CODE     ---       #1055
      010041A1H   LINE      CODE     ---       #1056
      010041B4H   LINE      CODE     ---       #1057
      010041BEH   LINE      CODE     ---       #1058
      010041E1H   LINE      CODE     ---       #1059
      010041E7H   LINE      CODE     ---       #1060
      010041E7H   LINE      CODE     ---       #1061
      010041E7H   LINE      CODE     ---       #1062
      010041E7H   LINE      CODE     ---       #1063
      010041E7H   LINE      CODE     ---       #1064
      010041EAH   LINE      CODE     ---       #1067
      010041EAH   LINE      CODE     ---       #1068
      010041F3H   LINE      CODE     ---       #1069
      01004201H   LINE      CODE     ---       #1070
      01004206H   LINE      CODE     ---       #1071
      01004232H   LINE      CODE     ---       #1072
      01004255H   LINE      CODE     ---       #1073
      01004258H   LINE      CODE     ---       #1074
      01004258H   LINE      CODE     ---       #1075
LX51 LINKER/LOCATER V3.51                                                             01/27/2014  09:14:18  PAGE 158


      01004262H   LINE      CODE     ---       #1076
      01004264H   LINE      CODE     ---       #1077
      01004264H   LINE      CODE     ---       #1084
      01004264H   LINE      CODE     ---       #1085
      0100426AH   LINE      CODE     ---       #1086
      01004273H   LINE      CODE     ---       #1087
      010042A3H   LINE      CODE     ---       #1088
      010042B5H   LINE      CODE     ---       #1089
      010042B5H   LINE      CODE     ---       #1090
      010042B8H   LINE      CODE     ---       #1093
      010042B8H   LINE      CODE     ---       #1094
      010042C0H   LINE      CODE     ---       #1095
      010042D0H   LINE      CODE     ---       #1096
      010042DAH   LINE      CODE     ---       #1097
      010042E8H   LINE      CODE     ---       #1098
      010042F2H   LINE      CODE     ---       #1099
      010042F8H   LINE      CODE     ---       #1100
      010042FEH   LINE      CODE     ---       #1101
      01004308H   LINE      CODE     ---       #1102
      01004312H   LINE      CODE     ---       #1103
      01004325H   LINE      CODE     ---       #1104
      0100432BH   LINE      CODE     ---       #1106
      0100432BH   LINE      CODE     ---       #1107
      01004355H   LINE      CODE     ---       #1108
      0100436BH   LINE      CODE     ---       #1109
      01004371H   LINE      CODE     ---       #1110
      01004373H   LINE      CODE     ---       #1111
      01004373H   LINE      CODE     ---       #1112
      01004380H   LINE      CODE     ---       #1113
      01004380H   LINE      CODE     ---       #1114
      01004380H   LINE      CODE     ---       #1115
      01004386H   LINE      CODE     ---       #1116
      01004389H   LINE      CODE     ---       #1161
      01004389H   LINE      CODE     ---       #1162
      01004389H   LINE      CODE     ---       #1199
      01004389H   LINE      CODE     ---       #1201
      01004392H   LINE      CODE     ---       #1202
      01004397H   LINE      CODE     ---       #1206
      0100439DH   LINE      CODE     ---       #1208
      0100439DH   LINE      CODE     ---       #1209
      010043A2H   LINE      CODE     ---       #1211
      010043B2H   LINE      CODE     ---       #1212
      010043D7H   LINE      CODE     ---       #1213
      010043F3H   LINE      CODE     ---       #1214
      010043F9H   LINE      CODE     ---       #1215
      01004406H   LINE      CODE     ---       #1216
      0100440DH   LINE      CODE     ---       #1217
      0100442FH   LINE      CODE     ---       #1282
      01004432H   LINE      CODE     ---       #1283
      01004435H   LINE      CODE     ---       #1286
      01004435H   LINE      CODE     ---       #1287
      01004435H   LINE      CODE     ---       #1288
      01004435H   LINE      CODE     ---       #1289
      01004435H   LINE      CODE     ---       #1290
      01004435H   LINE      CODE     ---       #1291
      01004435H   LINE      CODE     ---       #1292
      01004435H   LINE      CODE     ---       #1293
      01004435H   LINE      CODE     ---       #1294
      01004435H   LINE      CODE     ---       #1295
      01004435H   LINE      CODE     ---       #1296
      0100443FH   LINE      CODE     ---       #1297
      0100443FH   LINE      CODE     ---       #1298
      01004442H   LINE      CODE     ---       #1299
      01004442H   LINE      CODE     ---       #1303
      0100444BH   LINE      CODE     ---       #1304
LX51 LINKER/LOCATER V3.51                                                             01/27/2014  09:14:18  PAGE 159


      01004457H   LINE      CODE     ---       #1305
      01004457H   LINE      CODE     ---       #1306
      01004461H   LINE      CODE     ---       #1307
      ---         BLOCKEND  ---      ---       LVL=0

      0100EB91H   BLOCK     CODE     ---       LVL=0
      00000002H   SYMBOL    XSTK     ---       a
      00000005H   SYMBOL    XSTK     ---       b
      00000008H   SYMBOL    XSTK     BYTE      len
      00000000H   SYMBOL    XSTK     BYTE      i
      00000001H   SYMBOL    XSTK     BYTE      c
      0100EB91H   LINE      CODE     ---       #1309
      0100EB97H   LINE      CODE     ---       #1310
      0100EB9CH   LINE      CODE     ---       #1312
      0100EBABH   LINE      CODE     ---       #1313
      0100EBBFH   LINE      CODE     ---       #1314
      0100EBDFH   LINE      CODE     ---       #1315
      0100EBE7H   LINE      CODE     ---       #1316
      0100EBE9H   LINE      CODE     ---       #1317
      ---         BLOCKEND  ---      ---       LVL=0

      ---         MODULE    ---      ---       RFM
      010090EEH   PUBLIC    CODE     ---       _?RFM_decode
      000000A8H   SFRSYM    DATA     BYTE      IE
      00000088H   SFRSYM    DATA     BYTE      TCON
      000000C0H   SFRSYM    DATA     BYTE      DESCTL
      000000E8H   SFRSYM    DATA     BYTE      FL_STS
      000000D8H   SFRSYM    DATA     BYTE      USR

      0100E725H   BLOCK     CODE     ---       LVL=0
      ---         BLOCKEND  ---      ---       LVL=0

      010090EEH   BLOCK     CODE     ---       LVL=0
      0000000EH   SYMBOL    XSTK     ---       handle
      00000011H   SYMBOL    XSTK     WORD      address
      00000013H   SYMBOL    XSTK     WORD      length
      00000000H   SYMBOL    XSTK     WORD      status
      00000002H   SYMBOL    XSTK     BYTE      j
      00000003H   SYMBOL    XSTK     ---       curfile
      00000006H   SYMBOL    XSTK     ---       rfm_fs
      010090EEH   LINE      CODE     ---       #8
      01009102H   LINE      CODE     ---       #9
      0100910BH   LINE      CODE     ---       #14
      01009114H   LINE      CODE     ---       #15
      01009125H   LINE      CODE     ---       #16
      0100913EH   LINE      CODE     ---       #17
      01009148H   LINE      CODE     ---       #18
      0100914FH   LINE      CODE     ---       #19
      0100916EH   LINE      CODE     ---       #20
      0100916EH   LINE      CODE     ---       #21
      01009174H   LINE      CODE     ---       #22
      01009182H   LINE      CODE     ---       #23
      0100919CH   LINE      CODE     ---       #24
      010091B8H   LINE      CODE     ---       #25
      010091C3H   LINE      CODE     ---       #26
      010091C6H   LINE      CODE     ---       #27
      010091C9H   LINE      CODE     ---       #28
      010091C9H   LINE      CODE     ---       #29
      010091D4H   LINE      CODE     ---       #30
      010091D4H   LINE      CODE     ---       #31
      010091D4H   LINE      CODE     ---       #32
      010091D4H   LINE      CODE     ---       #33
      010091D4H   LINE      CODE     ---       #34
      010091D4H   LINE      CODE     ---       #35
      010091D4H   LINE      CODE     ---       #36
LX51 LINKER/LOCATER V3.51                                                             01/27/2014  09:14:18  PAGE 160


      010091D4H   LINE      CODE     ---       #37
      010091D7H   LINE      CODE     ---       #38
      010091E5H   LINE      CODE     ---       #39
      010091F8H   LINE      CODE     ---       #40
      01009205H   LINE      CODE     ---       #41
      0100920BH   LINE      CODE     ---       #42
      01009219H   LINE      CODE     ---       #43
      01009235H   LINE      CODE     ---       #44
      01009235H   LINE      CODE     ---       #45
      01009235H   LINE      CODE     ---       #46
      01009235H   LINE      CODE     ---       #47
      01009235H   LINE      CODE     ---       #48
      01009238H   LINE      CODE     ---       #49
      01009238H   LINE      CODE     ---       #50
      01009238H   LINE      CODE     ---       #51
      0100923BH   LINE      CODE     ---       #52
      01009249H   LINE      CODE     ---       #53
      0100925CH   LINE      CODE     ---       #54
      01009266H   LINE      CODE     ---       #55
      0100926FH   LINE      CODE     ---       #56
      01009280H   LINE      CODE     ---       #57
      0100928FH   LINE      CODE     ---       #58
      0100928FH   LINE      CODE     ---       #59
      010092A0H   LINE      CODE     ---       #60
      010092A2H   LINE      CODE     ---       #61
      010092A2H   LINE      CODE     ---       #62
      010092B3H   LINE      CODE     ---       #63
      010092B5H   LINE      CODE     ---       #64
      010092B5H   LINE      CODE     ---       #65
      010092D9H   LINE      CODE     ---       #66
      010092D9H   LINE      CODE     ---       #67
      010092D9H   LINE      CODE     ---       #68
      010092D9H   LINE      CODE     ---       #69
      010092D9H   LINE      CODE     ---       #70
      010092D9H   LINE      CODE     ---       #71
      010092D9H   LINE      CODE     ---       #72
      010092E2H   LINE      CODE     ---       #73
      010092E2H   LINE      CODE     ---       #74
      010092E5H   LINE      CODE     ---       #75
      010092E5H   LINE      CODE     ---       #76
      010092EEH   LINE      CODE     ---       #77
      010092F0H   LINE      CODE     ---       #78
      010092F0H   LINE      CODE     ---       #79
      010092FEH   LINE      CODE     ---       #80
      01009301H   LINE      CODE     ---       #81
      01009301H   LINE      CODE     ---       #82
      01009301H   LINE      CODE     ---       #83
      01009301H   LINE      CODE     ---       #84
      01009301H   LINE      CODE     ---       #85
      01009301H   LINE      CODE     ---       #86
      01009301H   LINE      CODE     ---       #87
      01009301H   LINE      CODE     ---       #89
      01009309H   LINE      CODE     ---       #91
      01009311H   LINE      CODE     ---       #92
      ---         BLOCKEND  ---      ---       LVL=0

      ---         MODULE    ---      ---       DES
      01009330H   PUBLIC    CODE     ---       _?DES_FileOperation
      0100A096H   PUBLIC    CODE     ---       _?DES_MemOperation
      000000A8H   SFRSYM    DATA     BYTE      IE
      00000088H   SFRSYM    DATA     BYTE      TCON
      000000C0H   SFRSYM    DATA     BYTE      DESCTL
      000000E8H   SFRSYM    DATA     BYTE      FL_STS
      000000D8H   SFRSYM    DATA     BYTE      USR
      0100FF56H   SYMBOL    CONST    ---       _?ix1000
LX51 LINKER/LOCATER V3.51                                                             01/27/2014  09:14:18  PAGE 161


      0100FF5EH   SYMBOL    CONST    ---       _?ix1001
      0100FF66H   SYMBOL    CONST    ---       _?ix1002
      0100FF6EH   SYMBOL    CONST    ---       _?ix1003

      0100B7E4H   BLOCK     CODE     ---       LVL=0
      ---         BLOCKEND  ---      ---       LVL=0

      0100A096H   BLOCK     CODE     ---       LVL=0
      00000014H   SYMBOL    XSTK     WORD      length
      00000016H   SYMBOL    XSTK     BYTE      mode
      00000017H   SYMBOL    XSTK     ---       key
      0000001AH   SYMBOL    XSTK     ---       inbuf
      0000001DH   SYMBOL    XSTK     ---       outbuf
      00000000H   SYMBOL    XSTK     WORD      i
      00000002H   SYMBOL    XSTK     WORD      j
      00000004H   SYMBOL    XSTK     ---       cbc_buffer
      0000000CH   SYMBOL    XSTK     ---       cbc_buffer2
      0100A096H   LINE      CODE     ---       #11
      0100A0A8H   LINE      CODE     ---       #13
      0100A0B9H   LINE      CODE     ---       #14
      0100A0CCH   LINE      CODE     ---       #15
      0100A0EAH   LINE      CODE     ---       #17
      0100A0F4H   LINE      CODE     ---       #19
      0100A0F7H   LINE      CODE     ---       #20
      0100A106H   LINE      CODE     ---       #21
      0100A122H   LINE      CODE     ---       #23
      0100A12AH   LINE      CODE     ---       #24
      0100A12AH   LINE      CODE     ---       #25
      0100A133H   LINE      CODE     ---       #26
      0100A145H   LINE      CODE     ---       #27
      0100A147H   LINE      CODE     ---       #28
      0100A14DH   LINE      CODE     ---       #29
      0100A14DH   LINE      CODE     ---       #30
      0100A156H   LINE      CODE     ---       #31
      0100A168H   LINE      CODE     ---       #32
      0100A183H   LINE      CODE     ---       #33
      0100A18BH   LINE      CODE     ---       #34
      0100A18BH   LINE      CODE     ---       #36
      0100A18BH   LINE      CODE     ---       #38
      0100A191H   LINE      CODE     ---       #39
      0100A1A0H   LINE      CODE     ---       #40
      0100A1C1H   LINE      CODE     ---       #41
      0100A1C9H   LINE      CODE     ---       #42
      0100A1C9H   LINE      CODE     ---       #43
      0100A1D2H   LINE      CODE     ---       #44
      0100A1E4H   LINE      CODE     ---       #45
      0100A1E6H   LINE      CODE     ---       #46
      0100A1ECH   LINE      CODE     ---       #47
      0100A1ECH   LINE      CODE     ---       #48
      0100A1F2H   LINE      CODE     ---       #49
      0100A201H   LINE      CODE     ---       #50
      0100A218H   LINE      CODE     ---       #51
      0100A22AH   LINE      CODE     ---       #52
      0100A232H   LINE      CODE     ---       #53
      0100A232H   LINE      CODE     ---       #55
      0100A232H   LINE      CODE     ---       #56
      0100A241H   LINE      CODE     ---       #57
      ---         BLOCKEND  ---      ---       LVL=0

      01009330H   BLOCK     CODE     ---       LVL=0
      00000035H   SYMBOL    XSTK     WORD      length
      00000037H   SYMBOL    XSTK     WORD      offset
      00000039H   SYMBOL    XSTK     BYTE      mode
      0000003AH   SYMBOL    XSTK     ---       key
      0000003DH   SYMBOL    XSTK     ---       handle
LX51 LINKER/LOCATER V3.51                                                             01/27/2014  09:14:18  PAGE 162


      00000000H   SYMBOL    XSTK     WORD      i
      00000002H   SYMBOL    XSTK     WORD      j
      00000004H   SYMBOL    XSTK     BYTE      k
      00000005H   SYMBOL    XSTK     ---       cbc_buffer
      0000000DH   SYMBOL    XSTK     ---       cbc_buffer2
      00000015H   SYMBOL    XSTK     ---       buffer
      01009330H   LINE      CODE     ---       #62
      0100934AH   LINE      CODE     ---       #65
      01009361H   LINE      CODE     ---       #66
      01009378H   LINE      CODE     ---       #68
      01009397H   LINE      CODE     ---       #69
      010093B1H   LINE      CODE     ---       #70
      010093E3H   LINE      CODE     ---       #72
      010093EDH   LINE      CODE     ---       #74
      010093F0H   LINE      CODE     ---       #75
      01009403H   LINE      CODE     ---       #76
      01009417H   LINE      CODE     ---       #77
      0100941FH   LINE      CODE     ---       #78
      0100941FH   LINE      CODE     ---       #79
      01009428H   LINE      CODE     ---       #80
      01009440H   LINE      CODE     ---       #81
      01009442H   LINE      CODE     ---       #82
      0100944EH   LINE      CODE     ---       #83
      0100944EH   LINE      CODE     ---       #84
      01009457H   LINE      CODE     ---       #85
      0100946DH   LINE      CODE     ---       #86
      01009478H   LINE      CODE     ---       #87
      01009480H   LINE      CODE     ---       #88
      01009480H   LINE      CODE     ---       #90
      01009480H   LINE      CODE     ---       #92
      01009486H   LINE      CODE     ---       #93
      01009499H   LINE      CODE     ---       #94
      010094A8H   LINE      CODE     ---       #95
      010094B0H   LINE      CODE     ---       #96
      010094B0H   LINE      CODE     ---       #97
      010094B9H   LINE      CODE     ---       #98
      010094D1H   LINE      CODE     ---       #99
      010094D3H   LINE      CODE     ---       #100
      010094DFH   LINE      CODE     ---       #101
      010094DFH   LINE      CODE     ---       #102
      010094E5H   LINE      CODE     ---       #103
      010094F8H   LINE      CODE     ---       #104
      0100950CH   LINE      CODE     ---       #105
      01009523H   LINE      CODE     ---       #106
      0100952BH   LINE      CODE     ---       #107
      0100952BH   LINE      CODE     ---       #109
      0100952BH   LINE      CODE     ---       #110
      01009535H   LINE      CODE     ---       #111
      0100955AH   LINE      CODE     ---       #112
      01009569H   LINE      CODE     ---       #113
      ---         BLOCKEND  ---      ---       LVL=0

      ---         MODULE    ---      ---       DCS
      01006607H   PUBLIC    CODE     ---       _?encode_827
      0100BDF4H   PUBLIC    CODE     ---       _?decode_728
      000000A8H   SFRSYM    DATA     BYTE      IE
      00000088H   SFRSYM    DATA     BYTE      TCON
      000000C0H   SFRSYM    DATA     BYTE      DESCTL
      000000E8H   SFRSYM    DATA     BYTE      FL_STS
      000000D8H   SFRSYM    DATA     BYTE      USR

      0100DF90H   BLOCK     CODE     ---       LVL=0
      ---         BLOCKEND  ---      ---       LVL=0

      0100BDF4H   BLOCK     CODE     ---       LVL=0
LX51 LINKER/LOCATER V3.51                                                             01/27/2014  09:14:18  PAGE 163


      00000008H   SYMBOL    XSTK     ---       buffer_in
      0000000BH   SYMBOL    XSTK     ---       buffer_out
      0000000EH   SYMBOL    XSTK     BYTE      size
      00000000H   SYMBOL    XSTK     BYTE      i
      00000001H   SYMBOL    XSTK     BYTE      j
      00000002H   SYMBOL    XSTK     BYTE      k
      00000003H   SYMBOL    XSTK     BYTE      l
      00000004H   SYMBOL    XSTK     BYTE      m
      00000005H   SYMBOL    XSTK     ---       temp
      0100BDF4H   LINE      CODE     ---       #6
      0100BDFDH   LINE      CODE     ---       #11
      0100BE0CH   LINE      CODE     ---       #12
      0100BE21H   LINE      CODE     ---       #13
      0100BE3DH   LINE      CODE     ---       #14
      0100BE44H   LINE      CODE     ---       #15
      0100BEBAH   LINE      CODE     ---       #16
      0100BED2H   LINE      CODE     ---       #20
      0100BEE1H   LINE      CODE     ---       #21
      0100BF0AH   LINE      CODE     ---       #22
      0100BF13H   LINE      CODE     ---       #23
      0100BF16H   LINE      CODE     ---       #24
      ---         BLOCKEND  ---      ---       LVL=0

      01006607H   BLOCK     CODE     ---       LVL=0
      0000000AH   SYMBOL    XSTK     ---       buffer_in
      0000000DH   SYMBOL    XSTK     ---       buffer_out
      00000010H   SYMBOL    XSTK     BYTE      size
      00000011H   SYMBOL    XSTK     BYTE      offset
      00000000H   SYMBOL    XSTK     BYTE      i
      00000001H   SYMBOL    XSTK     BYTE      j
      00000002H   SYMBOL    XSTK     BYTE      k
      00000003H   SYMBOL    XSTK     BYTE      l
      00000004H   SYMBOL    XSTK     BYTE      m
      0000000DH   SYMBOL    XDATA    BYTE      o
      0000000EH   SYMBOL    XDATA    BYTE      c
      00000007H   SYMBOL    XSTK     ---       temp
      01006607H   LINE      CODE     ---       #26
      01006610H   LINE      CODE     ---       #34
      01006620H   LINE      CODE     ---       #35
      0100662CH   LINE      CODE     ---       #36
      01006630H   LINE      CODE     ---       #37
      01006635H   LINE      CODE     ---       #42
      01006639H   LINE      CODE     ---       #43
      0100663BH   LINE      CODE     ---       #44
      01006647H   LINE      CODE     ---       #45
      0100664AH   LINE      CODE     ---       #48
      01006659H   LINE      CODE     ---       #78
      0100667CH   LINE      CODE     ---       #79
      0100667CH   LINE      CODE     ---       #81
      01006692H   LINE      CODE     ---       #82
      01006692H   LINE      CODE     ---       #83
      01006695H   LINE      CODE     ---       #84
      01006695H   LINE      CODE     ---       #85
      010066A3H   LINE      CODE     ---       #86
      010066CBH   LINE      CODE     ---       #87
      010066E4H   LINE      CODE     ---       #88
      010066E4H   LINE      CODE     ---       #89
      010066E7H   LINE      CODE     ---       #90
      010066E7H   LINE      CODE     ---       #91
      010066F5H   LINE      CODE     ---       #92
      0100671CH   LINE      CODE     ---       #93
      01006737H   LINE      CODE     ---       #94
      01006737H   LINE      CODE     ---       #95
      0100673AH   LINE      CODE     ---       #96
      0100673AH   LINE      CODE     ---       #97
LX51 LINKER/LOCATER V3.51                                                             01/27/2014  09:14:18  PAGE 164


      01006748H   LINE      CODE     ---       #98
      0100676EH   LINE      CODE     ---       #99
      0100678AH   LINE      CODE     ---       #100
      0100678AH   LINE      CODE     ---       #101
      0100678DH   LINE      CODE     ---       #102
      0100678DH   LINE      CODE     ---       #103
      0100679BH   LINE      CODE     ---       #104
      010067C0H   LINE      CODE     ---       #105
      010067DAH   LINE      CODE     ---       #106
      010067DAH   LINE      CODE     ---       #107
      010067DDH   LINE      CODE     ---       #108
      010067DDH   LINE      CODE     ---       #109
      010067EBH   LINE      CODE     ---       #110
      01006812H   LINE      CODE     ---       #111
      0100682DH   LINE      CODE     ---       #112
      0100682DH   LINE      CODE     ---       #113
      0100682FH   LINE      CODE     ---       #114
      0100682FH   LINE      CODE     ---       #115
      0100683DH   LINE      CODE     ---       #116
      01006863H   LINE      CODE     ---       #117
      01006882H   LINE      CODE     ---       #118
      01006888H   LINE      CODE     ---       #119
      0100688AH   LINE      CODE     ---       #120
      0100688AH   LINE      CODE     ---       #122
      010068B2H   LINE      CODE     ---       #123
      010068B2H   LINE      CODE     ---       #124
      010068B2H   LINE      CODE     ---       #125
      010068B2H   LINE      CODE     ---       #126
      010068B8H   LINE      CODE     ---       #127
      010068BDH   LINE      CODE     ---       #128
      010068C6H   LINE      CODE     ---       #129
      010068D1H   LINE      CODE     ---       #130
      01006900H   LINE      CODE     ---       #131
      0100690CH   LINE      CODE     ---       #132
      01006914H   LINE      CODE     ---       #133
      0100691AH   LINE      CODE     ---       #134
      0100691FH   LINE      CODE     ---       #135
      0100691FH   LINE      CODE     ---       #136
      01006922H   LINE      CODE     ---       #137
      0100692AH   LINE      CODE     ---       #138
      01006959H   LINE      CODE     ---       #139
      01006960H   LINE      CODE     ---       #140
      01006960H   LINE      CODE     ---       #141
      01006966H   LINE      CODE     ---       #148
      ---         BLOCKEND  ---      ---       LVL=0

      ---         MODULE    ---      ---       MDIL
      000000A8H   SFRSYM    DATA     BYTE      IE
      00000088H   SFRSYM    DATA     BYTE      TCON
      000000C0H   SFRSYM    DATA     BYTE      DESCTL
      000000E8H   SFRSYM    DATA     BYTE      FL_STS
      000000D8H   SFRSYM    DATA     BYTE      USR

      ---         MODULE    ---      ---       VDIL
      000000A8H   SFRSYM    DATA     BYTE      IE
      00000088H   SFRSYM    DATA     BYTE      TCON
      000000C0H   SFRSYM    DATA     BYTE      DESCTL
      000000E8H   SFRSYM    DATA     BYTE      FL_STS
      000000D8H   SFRSYM    DATA     BYTE      USR

      ---         MODULE    ---      ---       DECR
      000000A8H   SFRSYM    DATA     BYTE      IE
      00000088H   SFRSYM    DATA     BYTE      TCON
      000000C0H   SFRSYM    DATA     BYTE      DESCTL
      000000E8H   SFRSYM    DATA     BYTE      FL_STS
LX51 LINKER/LOCATER V3.51                                                             01/27/2014  09:14:18  PAGE 165


      000000D8H   SFRSYM    DATA     BYTE      USR

      ---         MODULE    ---      ---       DITR
      000000A8H   SFRSYM    DATA     BYTE      IE
      00000088H   SFRSYM    DATA     BYTE      TCON
      000000C0H   SFRSYM    DATA     BYTE      DESCTL
      000000E8H   SFRSYM    DATA     BYTE      FL_STS
      000000D8H   SFRSYM    DATA     BYTE      USR

      ---         MODULE    ---      ---       ENCR
      000000A8H   SFRSYM    DATA     BYTE      IE
      00000088H   SFRSYM    DATA     BYTE      TCON
      000000C0H   SFRSYM    DATA     BYTE      DESCTL
      000000E8H   SFRSYM    DATA     BYTE      FL_STS
      000000D8H   SFRSYM    DATA     BYTE      USR

      ---         MODULE    ---      ---       MASL
      000000A8H   SFRSYM    DATA     BYTE      IE
      00000088H   SFRSYM    DATA     BYTE      TCON
      000000C0H   SFRSYM    DATA     BYTE      DESCTL
      000000E8H   SFRSYM    DATA     BYTE      FL_STS
      000000D8H   SFRSYM    DATA     BYTE      USR

      ---         MODULE    ---      ---       ICCID
      000000A8H   SFRSYM    DATA     BYTE      IE
      00000088H   SFRSYM    DATA     BYTE      TCON
      000000C0H   SFRSYM    DATA     BYTE      DESCTL
      000000E8H   SFRSYM    DATA     BYTE      FL_STS
      000000D8H   SFRSYM    DATA     BYTE      USR

      ---         MODULE    ---      ---       ?C_INIT
      0100E37DH   PUBLIC    CODE     ---       ?C_START

      ---         MODULE    ---      ---       ?C?COPY
      01004693H   PUBLIC    CODE     ---       ?C?COPY

      ---         MODULE    ---      ---       ?C?CLDPTR
      010046B9H   PUBLIC    CODE     ---       ?C?CLDPTR

      ---         MODULE    ---      ---       ?C?CLDOPTR
      010046D2H   PUBLIC    CODE     ---       ?C?CLDOPTR

      ---         MODULE    ---      ---       ?C?CILDOPTR
      010046FFH   PUBLIC    CODE     ---       ?C?CILDOPTR

      ---         MODULE    ---      ---       ?C?CSTPTR
      01004732H   PUBLIC    CODE     ---       ?C?CSTPTR

      ---         MODULE    ---      ---       ?C?CSTOPTR
      01004744H   PUBLIC    CODE     ---       ?C?CSTOPTR

      ---         MODULE    ---      ---       ?C?IMUL
      01004766H   PUBLIC    CODE     ---       ?C?IMUL

      ---         MODULE    ---      ---       ?C?UIDIV
      01004778H   PUBLIC    CODE     ---       ?C?UIDIV

      ---         MODULE    ---      ---       ?C?SIDIV
      010047CDH   PUBLIC    CODE     ---       ?C?SIDIV

      ---         MODULE    ---      ---       ?C?IILDX
      01004803H   PUBLIC    CODE     ---       ?C?IILDX

      ---         MODULE    ---      ---       ?C?ILDIX
      01004819H   PUBLIC    CODE     ---       ?C?ILDIX
LX51 LINKER/LOCATER V3.51                                                             01/27/2014  09:14:18  PAGE 166



      ---         MODULE    ---      ---       ?C?ILDPTR
      0100482FH   PUBLIC    CODE     ---       ?C?ILDPTR

      ---         MODULE    ---      ---       ?C?ILDOPTR
      0100485AH   PUBLIC    CODE     ---       ?C?ILDOPTR

      ---         MODULE    ---      ---       ?C?ISTPTR
      01004892H   PUBLIC    CODE     ---       ?C?ISTPTR

      ---         MODULE    ---      ---       ?C?ISTOPTR
      010048B1H   PUBLIC    CODE     ---       ?C?ISTOPTR

      ---         MODULE    ---      ---       ?C?LADD
      010048DEH   PUBLIC    CODE     ---       ?C?LADD

      ---         MODULE    ---      ---       ?C?LSUB
      010048EBH   PUBLIC    CODE     ---       ?C?LSUB

      ---         MODULE    ---      ---       ?C?LXOR
      010048F9H   PUBLIC    CODE     ---       ?C?LXOR

      ---         MODULE    ---      ---       ?C?LNOT
      01004906H   PUBLIC    CODE     ---       ?C?LNOT

      ---         MODULE    ---      ---       ?C?SLCMP
      01004913H   PUBLIC    CODE     ---       ?C?SLCMP

      ---         MODULE    ---      ---       ?C?ULCMP
      01004929H   PUBLIC    CODE     ---       ?C?ULCMP

      ---         MODULE    ---      ---       ?C?ULSHR
      0100493AH   PUBLIC    CODE     ---       ?C?ULSHR

      ---         MODULE    ---      ---       ?C?LSHL
      0100494DH   PUBLIC    CODE     ---       ?C?LSHL

      ---         MODULE    ---      ---       ?C?LLDOPTR
      01004960H   PUBLIC    CODE     ---       ?C?LLDOPTR

      ---         MODULE    ---      ---       ?C?LSTOPTR
      01004990H   PUBLIC    CODE     ---       ?C?LSTOPTR

      ---         MODULE    ---      ---       ?C?LLDXDATA
      010049B4H   PUBLIC    CODE     ---       ?C?LLDXDATA

      ---         MODULE    ---      ---       ?C?LLDXDATA0
      010049C0H   PUBLIC    CODE     ---       ?C?LLDXDATA0

      ---         MODULE    ---      ---       ?C?LSTXDATA
      010049CCH   PUBLIC    CODE     ---       ?C?LSTXDATA

      ---         MODULE    ---      ---       ?C?LSTKXDATA
      010049D8H   PUBLIC    CODE     ---       ?C?LSTKXDATA

      ---         MODULE    ---      ---       ?C?PLDXDATA
      01004A09H   PUBLIC    CODE     ---       ?C?PLDXDATA

      ---         MODULE    ---      ---       ?C?PLDIXDATA
      01004A12H   PUBLIC    CODE     ---       ?C?PLDIXDATA

      ---         MODULE    ---      ---       ?C?PSTXDATA
      01004A29H   PUBLIC    CODE     ---       ?C?PSTXDATA

      ---         MODULE    ---      ---       ?C?PLDPTR
LX51 LINKER/LOCATER V3.51                                                             01/27/2014  09:14:18  PAGE 167


      01004A32H   PUBLIC    CODE     ---       ?C?PLDPTR

      ---         MODULE    ---      ---       ?C?PSTPTR
      01004A52H   PUBLIC    CODE     ---       ?C?PSTPTR

      ---         MODULE    ---      ---       ?C?PLDOPTR
      01004AA1H   PUBLIC    CODE     ---       ?C?PLDOPTR

      ---         MODULE    ---      ---       ?C?PSTOPTR
      01004AD1H   PUBLIC    CODE     ---       ?C?PSTOPTR

      ---         MODULE    ---      ---       ?C?CCASE
      01004B2AH   PUBLIC    CODE     ---       ?C?CCASE

      ---         MODULE    ---      ---       ?C?ICASE
      01004B50H   PUBLIC    CODE     ---       ?C?ICASE

      ---         MODULE    ---      ---       ?C_XBP
      00000008H   PUBLIC    DATA     ---       ?C_XBP

      ---         MODULE    ---      ---       ?C?ADDXBP
      01004B7DH   PUBLIC    CODE     ---       ?C?ADDXBP

      ---         MODULE    ---      ---       ?C?XBPOFF
      01004BA1H   PUBLIC    CODE     ---       ?C?XBPOFF

      ---         MODULE    ---      ---       ?C?STRCPY
      01004C7AH   PUBLIC    CODE     ---       ?C?STRCPY

      ---         MODULE    ---      ---       STRLEN
      0100F9DAH   PUBLIC    CODE     ---       _STRLEN

      ---         MODULE    ---      ---       ?C?MEMCMP
      01004E1DH   PUBLIC    CODE     ---       ?C?MEMCMP

      ---         MODULE    ---      ---       ?C?MEMSET
      01004E41H   PUBLIC    CODE     ---       ?C?MEMSET

      ---         MODULE    ---      ---       ?C?LLDIDATA
      01004E6DH   PUBLIC    CODE     ---       ?C?LLDIDATA

      ---         MODULE    ---      ---       ?C?LLDPDATA
      01004E79H   PUBLIC    CODE     ---       ?C?LLDPDATA

      ---         MODULE    ---      ---       ?C?LLDCODE
      01004E85H   PUBLIC    CODE     ---       ?C?LLDCODE

      ---         MODULE    ---      ---       ?C?LSTIDATA
      01004E95H   PUBLIC    CODE     ---       ?C?LSTIDATA

      ---         MODULE    ---      ---       ?C?LSTPDATA
      01004EA1H   PUBLIC    CODE     ---       ?C?LSTPDATA

      ---         MODULE    ---      ---       ?C?PLDIDATA
      01004EADH   PUBLIC    CODE     ---       ?C?PLDIDATA

      ---         MODULE    ---      ---       ?C?PSTIDATA
      01004EB6H   PUBLIC    CODE     ---       ?C?PSTIDATA

      ---         MODULE    ---      ---       ?C?PLDPDATA
      01004EBFH   PUBLIC    CODE     ---       ?C?PLDPDATA

      ---         MODULE    ---      ---       ?C?PSTPDATA
      01004EC8H   PUBLIC    CODE     ---       ?C?PSTPDATA

LX51 LINKER/LOCATER V3.51                                                             01/27/2014  09:14:18  PAGE 168


      ---         MODULE    ---      ---       ?C?PLDCODE
      01004ED1H   PUBLIC    CODE     ---       ?C?PLDCODE



*** WARNING L16: UNCALLED FUNCTION, IGNORED FOR OVERLAY PROCESS
    NAME:    PPS/ISO7816_API

*** WARNING L16: UNCALLED FUNCTION, IGNORED FOR OVERLAY PROCESS
    NAME:    _?RX_N_BYTES/ISO7816_API

*** WARNING L16: UNCALLED FUNCTION, IGNORED FOR OVERLAY PROCESS
    NAME:    ISO_DELAYETU/ISO7816_API

*** WARNING L16: UNCALLED FUNCTION, IGNORED FOR OVERLAY PROCESS
    NAME:    _?SETBASE/ISO7816_API

*** WARNING L16: UNCALLED FUNCTION, IGNORED FOR OVERLAY PROCESS
    NAME:    _?ERASE_PAGES/ISO7816_API

*** WARNING L16: UNCALLED FUNCTION, IGNORED FOR OVERLAY PROCESS
    NAME:    _IOMAN_WRITE_POS/IOMAN

*** WARNING L16: UNCALLED FUNCTION, IGNORED FOR OVERLAY PROCESS
    NAME:    _?LIQUID_ERROR/LIQUID

*** WARNING L16: UNCALLED FUNCTION, IGNORED FOR OVERLAY PROCESS
    NAME:    _?VAS_LOAD_TEXT/WIB

*** WARNING L16: UNCALLED FUNCTION, IGNORED FOR OVERLAY PROCESS
    NAME:    _?VAS_STRCMP/VAS

*** WARNING L15: MULTIPLE CALL TO FUNCTION
    NAME:    _DES_OPERATION/ISO7816_API
    CALLER1: ?C_C51STARTUP
    CALLER2: _?MAC_ALGORITHM3/ISO7816_API

Program Size: data=74.0 xdata=1767 const=1181 code=64145
LX51 RUN COMPLETE.  10 WARNING(S),  0 ERROR(S)
